Archive member included because of file (symbol)

/home/autobuild/tools/win32/mingw32/lib/libgcc.a(__main.o)
                              SDLTest.o (__main)
/home/autobuild/tools/win32/mingw32/lib/libgcc.a(_ctors.o)
                              /home/autobuild/tools/win32/mingw32/lib/libgcc.a(__main.o) (__DTOR_LIST__)
../../../lib/libc.dll.a(d000297.o)
                              file/SDL_rwops.o (free)
../../../lib/libc.dll.a(d000264.o)
                              file/SDL_rwops.o (fclose)
../../../lib/libc.dll.a(d000307.o)
                              file/SDL_rwops.o (fwrite)
../../../lib/libc.dll.a(d000296.o)
                              file/SDL_rwops.o (fread)
../../../lib/libc.dll.a(d000302.o)
                              file/SDL_rwops.o (fseek)
../../../lib/libc.dll.a(d000305.o)
                              file/SDL_rwops.o (ftell)
../../../lib/libc.dll.a(d000413.o)
                              file/SDL_rwops.o (memcpy)
../../../lib/libc.dll.a(d000405.o)
                              file/SDL_rwops.o (malloc)
../../../lib/libc.dll.a(d000291.o)
                              file/SDL_rwops.o (fopen)
../../../lib/libc.dll.a(d000415.o)
                              video/SDL_cursor.o (memset)
../../../lib/libc.dll.a(d000387.o)
                              video/SDL_gamma.o (log)
../../../lib/libc.dll.a(d000434.o)
                              video/SDL_gamma.o (pow)
../../../lib/libc.dll.a(d000412.o)
                              video/SDL_pixels.o (memcmp)
../../../lib/libc.dll.a(d000448.o)
                              video/SDL_RLEaccel.o (realloc)
../../../lib/libc.dll.a(d000510.o)
                              video/SDL_video.o (strncpy)
../../../lib/libc.dll.a(d000506.o)
                              video/SDL_video.o (strlen)
../../../lib/libc.dll.a(d000501.o)
                              video/SDL_video.o (strcpy)
../../../lib/libc.dll.a(d000509.o)
                              video/SDL_video.o (strncmp)
../../../lib/libc.dll.a(d000208.o)
                              video/SDL_yuv.o (atoi)
../../../lib/libc.dll.a(d000253.o)
                              video/menuetos/SDL_menuetevents.o (exit)
../../../lib/libc.dll.a(d000564.o)
                              SDL_error.o (vsprintf)
../../../lib/libc.dll.a(d000486.o)
                              SDL_error.o (sprintf)
../../../lib/libc.dll.a(d000438.o)
                              SDL_fatal.o (printf)
../../../lib/libc.dll.a(d000206.o)
                              /home/autobuild/tools/win32/mingw32/lib/libgcc.a(__main.o) (atexit)
../../../lib/libc.dll.a(d000000.o)
                              ../../../lib/libc.dll.a(d000297.o) (_head_libc_dll)
../../../lib/libc.dll.a(d000577.o)
                              ../../../lib/libc.dll.a(d000000.o) (libc_dll_iname)
../../../lib/libapp.a(start.o)
                              (_start)
../../../lib/libapp.a(crt3.o)
                              ../../../lib/libapp.a(start.o) (__crt_startup)
../../../lib/libapp.a(crtloader.o)
                              ../../../lib/libapp.a(crt3.o) (get_entry_point)

Allocating common symbols
Common symbol       size              file

__DTOR_LIST__       0x8               /home/autobuild/tools/win32/mingw32/lib/libgcc.a(_ctors.o)
SDL_ProcessEvents   0x20              events/SDL_events.o
__CTOR_LIST__       0x8               /home/autobuild/tools/win32/mingw32/lib/libgcc.a(_ctors.o)
SDL_alarm_callback  0x4               timer/SDL_timer.o
SDL_KeyRepeat       0x24              events/SDL_keyboard.o

Discarded input sections

 .drectve       0x0000000000000000       0x24 timer/SDL_timer.o
 .drectve       0x0000000000000000       0x24 events/SDL_events.o
 .drectve       0x0000000000000000       0x20 events/SDL_keyboard.o
 .debug_info    0x0000000000000000      0x3ea /home/autobuild/tools/win32/mingw32/lib/libgcc.a(__main.o)
 .debug_abbrev  0x0000000000000000      0x113 /home/autobuild/tools/win32/mingw32/lib/libgcc.a(__main.o)
 .debug_loc     0x0000000000000000       0x54 /home/autobuild/tools/win32/mingw32/lib/libgcc.a(__main.o)
 .debug_aranges
                0x0000000000000000       0x20 /home/autobuild/tools/win32/mingw32/lib/libgcc.a(__main.o)
 .debug_ranges  0x0000000000000000       0x18 /home/autobuild/tools/win32/mingw32/lib/libgcc.a(__main.o)
 .debug_line    0x0000000000000000       0xcb /home/autobuild/tools/win32/mingw32/lib/libgcc.a(__main.o)
 .debug_str     0x0000000000000000        0x0 /home/autobuild/tools/win32/mingw32/lib/libgcc.a(__main.o)
 .drectve       0x0000000000000000       0x3c /home/autobuild/tools/win32/mingw32/lib/libgcc.a(_ctors.o)
 .debug_info    0x0000000000000000      0xb70 /home/autobuild/tools/win32/mingw32/lib/libgcc.a(_ctors.o)
 .debug_abbrev  0x0000000000000000       0xa7 /home/autobuild/tools/win32/mingw32/lib/libgcc.a(_ctors.o)
 .debug_aranges
                0x0000000000000000       0x18 /home/autobuild/tools/win32/mingw32/lib/libgcc.a(_ctors.o)
 .debug_line    0x0000000000000000       0xbf /home/autobuild/tools/win32/mingw32/lib/libgcc.a(_ctors.o)
 .debug_str     0x0000000000000000        0x0 /home/autobuild/tools/win32/mingw32/lib/libgcc.a(_ctors.o)

Memory Configuration

Name             Origin             Length             Attributes
*default*        0x0000000000000000 0xffffffffffffffff

Linker script and memory map

                0x0000000000000000                __image_base__ = 0x0
                0x0000000000000000                __dll__ = 0x0
                0x0000000000000000                ___ImageBase = 0x0
                0x0000000000001000                __section_alignment__ = 0x1000
                0x0000000000000200                __file_alignment__ = 0x200
                0x0000000000000004                __major_os_version__ = 0x4
                0x0000000000000000                __minor_os_version__ = 0x0
                0x0000000000000001                __major_image_version__ = 0x1
                0x0000000000000000                __minor_image_version__ = 0x0
                0x0000000000000004                __major_subsystem_version__ = 0x4
                0x0000000000000000                __minor_subsystem_version__ = 0x0
                0x0000000000000003                __subsystem__ = 0x3
                0x0000000000200000                __size_of_stack_reserve__ = 0x200000
                0x0000000000001000                __size_of_stack_commit__ = 0x1000
                0x0000000000100000                __size_of_heap_reserve__ = 0x100000
                0x0000000000001000                __size_of_heap_commit__ = 0x1000
                0x0000000000000000                __loader_flags__ = 0x0
                0x0000000000000000                __dll_characteristics__ = 0x0

.text           0x0000000000000000    0x24a00
                0x0000000000000000        0x4 LONG 0x554e454d
                0x0000000000000004        0x4 LONG 0x32305445
                0x0000000000000008        0x4 LONG 0x1
                0x000000000000000c        0x4 LONG 0x34 __start
                0x0000000000000010        0x4 LONG 0x29210 ___iend
                0x0000000000000014        0x4 LONG 0x3b6f0 ___memsize
                0x0000000000000018        0x4 LONG 0x3b6f0 ___stacktop
                0x000000000000001c        0x4 LONG 0x3b1e0 ___cmdline
                0x0000000000000020        0x4 LONG 0x3b2e0 ___pgmname
                0x0000000000000024        0x4 LONG 0x3 __subsystem__
                0x0000000000000028        0x4 LONG 0x2d670 __idata_start
                0x000000000000002c        0x4 LONG 0x2d8c8 __idata_end
                0x0000000000000030        0x4 LONG 0x24780 _main
 *(.init)
 .init          0x0000000000000034       0x84 ../../../lib/libapp.a(start.o)
                0x0000000000000034                _start
 *(.text)
 *fill*         0x00000000000000b8        0x8 
 .text          0x00000000000000c0      0x170 SDLTest.o
                0x00000000000000c0                setpixel
                0x0000000000000110                DrawScreen
 .text          0x0000000000000230      0x2c0 endian/SDL_endian.o
                0x0000000000000230                SDL_ReadLE16
                0x0000000000000260                SDL_ReadBE16
                0x00000000000002a0                SDL_ReadLE32
                0x00000000000002d0                SDL_ReadBE32
                0x0000000000000300                SDL_ReadLE64
                0x0000000000000340                SDL_ReadBE64
                0x0000000000000380                SDL_WriteLE16
                0x00000000000003c0                SDL_WriteBE16
                0x0000000000000400                SDL_WriteLE32
                0x0000000000000430                SDL_WriteBE32
                0x0000000000000470                SDL_WriteLE64
                0x00000000000004b0                SDL_WriteBE64
 .text          0x00000000000004f0      0x3a0 file/SDL_rwops.o
                0x0000000000000780                SDL_AllocRW
                0x00000000000007b0                SDL_RWFromFP
                0x00000000000007f0                SDL_RWFromFile
                0x0000000000000840                SDL_RWFromMem
                0x0000000000000880                SDL_FreeRW
 .text          0x0000000000000890      0x2d0 thread/SDL_syscond.o
                0x0000000000000890                SDL_DestroyCond
                0x00000000000008e0                SDL_CreateCond
                0x0000000000000960                SDL_CondSignal
                0x00000000000009d0                SDL_CondBroadcast
                0x0000000000000a60                SDL_CondWaitTimeout
                0x0000000000000b30                SDL_CondWait
 .text          0x0000000000000b60       0xb0 thread/SDL_sysmutex.o
                0x0000000000000b60                SDL_CreateMutex
                0x0000000000000bc0                SDL_DestroyMutex
                0x0000000000000bf0                SDL_mutexP
                0x0000000000000c00                SDL_mutexV
 .text          0x0000000000000c10       0xc0 thread/SDL_syssem.o
                0x0000000000000c10                SDL_CreateSemaphore
                0x0000000000000c30                SDL_DestroySemaphore
                0x0000000000000c40                SDL_SemTryWait
                0x0000000000000c60                SDL_SemWaitTimeout
                0x0000000000000c80                SDL_SemWait
                0x0000000000000ca0                SDL_SemValue
                0x0000000000000cb0                SDL_SemPost
 .text          0x0000000000000cd0       0x60 thread/SDL_systhread.o
                0x0000000000000cd0                SDL_SYS_CreateThread
                0x0000000000000cf0                SDL_SYS_SetupThread
                0x0000000000000d00                SDL_ThreadID
                0x0000000000000d10                SDL_SYS_WaitThread
                0x0000000000000d20                SDL_SYS_KillThread
 .text          0x0000000000000d30      0x430 thread/SDL_thread.o
                0x0000000000000da0                SDL_ThreadsInit
                0x0000000000000dd0                SDL_ThreadsQuit
                0x0000000000000e00                SDL_GetErrBuf
                0x0000000000000e90                SDL_RunThread
                0x0000000000000ed0                SDL_CreateThread
                0x00000000000010d0                SDL_WaitThread
                0x0000000000001110                SDL_GetThreadID
                0x0000000000001130                SDL_KillThread
 .text          0x0000000000001160      0x460 timer/SDL_timer.o
                0x0000000000001170                SDL_SetTimerThreaded
                0x00000000000011b0                SDL_ThreadedTimerCheck
                0x00000000000012c0                SDL_AddTimer
                0x00000000000013a0                SDL_RemoveTimer
                0x0000000000001420                SDL_SetTimer
                0x0000000000001500                SDL_TimerInit
                0x0000000000001560                SDL_TimerQuit
 .text          0x00000000000015c0       0x90 timer/dummy/SDL_systimer.o
                0x00000000000015c0                SDL_StartTicks
                0x00000000000015e0                SDL_GetTicks
                0x0000000000001600                SDL_Delay
                0x0000000000001610                SDL_SYS_TimerInit
                0x0000000000001620                SDL_SYS_TimerQuit
                0x0000000000001630                SDL_SYS_StartTimer
                0x0000000000001640                SDL_SYS_StopTimer
 .text          0x0000000000001650      0x110 events/SDL_active.o
                0x0000000000001650                SDL_AppActiveInit
                0x0000000000001660                SDL_GetAppState
                0x0000000000001670                SDL_PrivateAppActive
 .text          0x0000000000001760      0x960 events/SDL_events.o
                0x0000000000001bc0                SDL_Lock_EventThread
                0x0000000000001c10                SDL_Unlock_EventThread
                0x0000000000001c40                SDL_EventThreadID
                0x0000000000001c50                SDL_StopEventLoop
                0x0000000000001c80                SDL_StartEventLoop
                0x0000000000001df0                SDL_PeepEvents
                0x0000000000001e20                SDL_PumpEvents
                0x0000000000001e40                SDL_PollEvent
                0x0000000000001e90                SDL_WaitEvent
                0x0000000000001f00                SDL_PushEvent
                0x0000000000001f30                SDL_SetEventFilter
                0x0000000000001f60                SDL_GetEventFilter
                0x0000000000001f70                SDL_EventState
                0x0000000000002050                SDL_PrivateSysWMEvent
 .text          0x00000000000020c0       0x80 events/SDL_expose.o
                0x00000000000020c0                SDL_PrivateExpose
 .text          0x0000000000002140      0xdb0 events/SDL_keyboard.o
                0x0000000000002140                SDL_EnableUNICODE
                0x0000000000002160                SDL_GetKeyState
                0x0000000000002180                SDL_GetModState
                0x0000000000002190                SDL_SetModState
                0x00000000000021a0                SDL_GetKeyName
                0x00000000000021d0                SDL_PrivateKeyboard
                0x00000000000024a0                SDL_ResetKeyboard
                0x0000000000002510                SDL_CheckKeyRepeat
                0x0000000000002520                SDL_EnableKeyRepeat
                0x0000000000002580                SDL_KeyboardInit
 .text          0x0000000000002ef0      0x4e0 events/SDL_mouse.o
                0x0000000000002f40                SDL_MouseInit
                0x0000000000002f70                SDL_GetMouseState
                0x0000000000002fa0                SDL_GetRelativeMouseState
                0x0000000000002fe0                SDL_PrivateMouseMotion
                0x00000000000031f0                SDL_PrivateMouseButton
 .text          0x00000000000033d0       0x60 events/SDL_quit.o
                0x00000000000033d0                SDL_QuitInit
                0x00000000000033e0                SDL_PrivateQuit
 .text          0x0000000000003430       0xd0 events/SDL_resize.o
                0x0000000000003430                SDL_PrivateResize
 .text          0x0000000000003500      0xd10 video/SDL_blit_0.o
                0x00000000000041a0                SDL_CalculateBlit0
 .text          0x0000000000004210     0x2730 video/SDL_blit_1.o
                0x00000000000068d0                SDL_CalculateBlit1
 .text          0x0000000000006940     0x5f50 video/SDL_blit_A.o
                0x000000000000c6b0                SDL_CalculateAlphaBlit
 .text          0x000000000000c890      0x740 video/SDL_blit.o
                0x000000000000cc80                debug_board_write_byte
                0x000000000000cca0                debug_board_write_str
                0x000000000000ccd0                SDL_CalculateBlit
 .text          0x000000000000cfd0     0x6810 video/SDL_blit_N.o
                0x0000000000013600                SDL_CalculateBlitN
 .text          0x00000000000137e0      0xbf0 video/SDL_bmp.o
                0x00000000000137e0                SDL_LoadBMP_RW
                0x0000000000013e70                SDL_SaveBMP_RW
 .text          0x00000000000143d0     0x1380 video/SDL_cursor.o
                0x00000000000143d0                SDL_GetCursor
                0x00000000000143e0                SDL_WarpMouse
                0x0000000000014460                SDL_CursorPaletteChanged
                0x0000000000014470                SDL_MouseRect
                0x0000000000014520                SDL_DrawCursorNoLock
                0x0000000000014d90                SDL_DrawCursor
                0x0000000000014e40                SDL_EraseCursorNoLock
                0x0000000000014ff0                SDL_EraseCursor
                0x00000000000150a0                SDL_SetCursor
                0x0000000000015240                SDL_FreeCursor
                0x00000000000152c0                SDL_CursorQuit
                0x0000000000015340                SDL_CreateCursor
                0x0000000000015530                SDL_CursorInit
                0x00000000000155b0                SDL_ShowCursor
                0x0000000000015650                SDL_MoveCursor
                0x0000000000015700                SDL_ResetCursor
 .text          0x0000000000015750      0x850 video/SDL_gamma.o
                0x0000000000015900                SDL_GetGammaRamp
                0x0000000000015b60                SDL_GetGamma
                0x0000000000015c20                SDL_SetGammaRamp
                0x0000000000015ee0                SDL_SetGamma
 .text          0x0000000000015fa0      0xe20 video/SDL_pixels.o
                0x0000000000015fa0                SDL_FreeFormat
                0x0000000000015fe0                SDL_AllocFormat
                0x0000000000016360                SDL_DitherColors
                0x00000000000163e0                SDL_CalculatePitch
                0x0000000000016420                SDL_FindColor
                0x00000000000165d0                SDL_MapRGB
                0x0000000000016660                SDL_MapRGBA
                0x0000000000016700                SDL_GetRGBA
                0x00000000000167f0                SDL_GetRGB
                0x00000000000168c0                SDL_ApplyGamma
                0x0000000000016920                SDL_InvalidateMap
                0x0000000000016960                SDL_FormatChanged
                0x0000000000016980                SDL_ReallocFormat
                0x00000000000169e0                SDL_MapSurface
                0x0000000000016d10                SDL_FreeBlitMap
                0x0000000000016d50                SDL_AllocBlitMap
 .text          0x0000000000016dc0     0x4750 video/SDL_RLEaccel.o
                0x0000000000017360                SDL_RLEBlit
                0x0000000000019bf0                SDL_RLEAlphaBlit
                0x000000000001a640                SDL_UnRLESurface
                0x000000000001a890                SDL_RLESurface
 .text          0x000000000001b510      0x540 video/SDL_stretch.o
                0x000000000001b510                copy_row3
                0x000000000001b5b0                SDL_SoftStretch
 .text          0x000000000001ba50     0x1020 video/SDL_surface.o
                0x000000000001ba50                SDL_SetColorKey
                0x000000000001bb60                SDL_SetAlpha
                0x000000000001bce0                SDL_SetClipRect
                0x000000000001bd90                SDL_GetClipRect
                0x000000000001bdb0                SDL_LowerBlit
                0x000000000001be20                SDL_UpperBlit
                0x000000000001c050                SDL_LockSurface
                0x000000000001c0c0                SDL_UnlockSurface
                0x000000000001c120                SDL_FillRect
                0x000000000001c420                SDL_FreeSurface
                0x000000000001c4f0                SDL_CreateRGBSurface
                0x000000000001c710                SDL_CreateRGBSurfaceFrom
                0x000000000001c7a0                SDL_ConvertSurface
 .text          0x000000000001ca70     0x1f50 video/SDL_video.o
                0x000000000001cac0                SDL_VideoDriverName
                0x000000000001cb00                SDL_GetVideoSurface
                0x000000000001cb20                SDL_GetVideoInfo
                0x000000000001cb40                SDL_ListModes
                0x000000000001cb80                SDL_VideoModeOK
                0x000000000001cc80                SDL_DisplayFormat
                0x000000000001cce0                SDL_DisplayFormatAlpha
                0x000000000001cdf0                SDL_UpdateRects
                0x000000000001d010                SDL_UpdateRect
                0x000000000001d260                SDL_Flip
                0x000000000001d3a0                SDL_SetPalette
                0x000000000001d570                SDL_SetColors
                0x000000000001d5b0                SDL_GL_LoadLibrary
                0x000000000001d5f0                SDL_GL_GetProcAddress
                0x000000000001d640                SDL_GL_SetAttribute
                0x000000000001d740                SDL_GL_GetAttribute
                0x000000000001d790                SDL_GL_SwapBuffers
                0x000000000001d7b0                SDL_GL_UpdateRectsLock
                0x000000000001d7c0                SDL_GL_UpdateRects
                0x000000000001d7d0                SDL_GL_Lock
                0x000000000001d7e0                SDL_GL_Unlock
                0x000000000001d7f0                SDL_WM_SetCaption
                0x000000000001d8c0                SDL_WM_GetCaption
                0x000000000001d8f0                SDL_WM_SetIcon
                0x000000000001dc00                SDL_WM_GrabInput
                0x000000000001dc50                SDL_VideoQuit
                0x000000000001dda0                SDL_VideoInit
                0x000000000001e050                SDL_SetVideoMode
                0x000000000001e8b0                SDL_WM_IconifyWindow
                0x000000000001e8d0                SDL_WM_ToggleFullScreen
                0x000000000001e980                SDL_GetWMInfo
 .text          0x000000000001e9c0      0x190 video/SDL_yuv.o
                0x000000000001e9c0                SDL_CreateYUVOverlay
                0x000000000001eaa0                SDL_LockYUVOverlay
                0x000000000001eac0                SDL_UnlockYUVOverlay
                0x000000000001eae0                SDL_DisplayYUVOverlay
                0x000000000001eb10                SDL_FreeYUVOverlay
 .text          0x000000000001eb50      0x420 video/SDL_yuv_mmx.o
                0x000000000001eb50                ColorRGBDitherYV12MMX1X
                0x000000000001ed00                Color565DitherYV12MMX1X
 .text          0x000000000001ef70     0x21f0 video/SDL_yuv_sw.o
                0x00000000000206a0                SDL_LockYUV_SW
                0x00000000000206b0                SDL_UnlockYUV_SW
                0x00000000000206c0                SDL_DisplayYUV_SW
                0x00000000000209f0                SDL_FreeYUV_SW
                0x0000000000020a50                SDL_CreateYUV_SW
 .text          0x0000000000021160      0x3b0 video/menuetos/SDL_menuetevents.o
                0x0000000000021160                MenuetOS_InitOSKeymap
                0x0000000000021180                MenuetOS_PumpEvents
 .text          0x0000000000021510      0x7a0 video/menuetos/SDL_menuetvideo.o
                0x0000000000021550                MenuetOS_SetColors
                0x0000000000021560                MenuetOS_SetCaption
                0x0000000000021620                KolibriOS_FreeWMCursor
                0x0000000000021660                KolibriOS_ShowWMCursor
                0x00000000000218c0                MenuetOS_VideoQuit
                0x0000000000021970                KolibriOS_CheckMouseMode
                0x0000000000021990                KolibriOS_CreateWMCursor
                0x0000000000021ad0                get_skinh
                0x0000000000021ae0                MenuetOS_SDL_RepaintWnd
                0x0000000000021b80                MenuetOS_SetVideoMode
                0x0000000000021ca0                MenuetOS_FinalQuit
 .text          0x0000000000021cb0      0x220 SDL.o
                0x0000000000021cb0                SDL_InitSubSystem
                0x0000000000021dd0                SDL_Init
                0x0000000000021e10                SDL_QuitSubSystem
                0x0000000000021e80                SDL_WasInit
                0x0000000000021ea0                SDL_Quit
                0x0000000000021ec0                SDL_Linked_Version
 .text          0x0000000000021ed0      0x650 SDL_error.o
                0x0000000000021ed0                SDL_printf
                0x0000000000021f40                SDL_GetErrorMsgUNICODE
                0x0000000000022290                SDL_GetErrorMsg
                0x0000000000022310                SDL_SetError
                0x0000000000022490                SDL_GetError
                0x00000000000224b0                SDL_ClearError
                0x00000000000224c0                SDL_Error
 .text          0x0000000000022520       0x50 SDL_fatal.o
                0x0000000000022520                SDL_printf_error
                0x0000000000022550                SDL_InstallParachute
                0x0000000000022560                SDL_UninstallParachute
 .text          0x0000000000022570      0x1d0 SDL_getenv.o
                0x0000000000022570                SDL_putenv
                0x00000000000226b0                SDL_getenv
 .text          0x0000000000022740       0xbf ../../sound/src/init.obj
                0x0000000000022740                InitSound@4
                0x00000000000227a4                CreateBuffer@12
                0x00000000000227d4                DestroyBuffer@4
 *fill*         0x00000000000227ff        0x1 
 .text          0x0000000000022800       0x57 ../../sound/src/setbuf.obj
                0x0000000000022800                SetBuffer@16
                0x000000000002282c                PlayBuffer@8
 *fill*         0x0000000000022857        0x9 
 .text          0x0000000000022860       0x2b ../../sound/src/stopbuf.obj
                0x0000000000022860                StopBuffer@4
 *fill*         0x000000000002288b        0x5 
 .text          0x0000000000022890       0x64 ../../sound/src/sndgetsize.obj
                0x0000000000022890                GetBufferSize@8
                0x00000000000228c0                GetBufferFree@8
 *fill*         0x00000000000228f4        0xc 
 .text          0x0000000000022900      0xd20 audio/SDL_kolibri_audio.o
                0x0000000000022bb0                SDL_AudioInit
                0x0000000000022c10                SDL_AudioQuit
                0x0000000000022c20                SDL_AudioDriverName
                0x0000000000022c60                SDL_OpenAudio
                0x0000000000023520                SDL_CloseAudio
                0x0000000000023580                SDL_PauseAudio
                0x00000000000235d0                SDL_LockAudio
                0x0000000000023610                SDL_UnlockAudio
 .text          0x0000000000023620      0x2da hermes/mmxp2_32.o
                0x0000000000023620                ConvertMMXpII32_24RGB888
                0x00000000000236a5                ConvertMMXpII32_16RGB565
                0x0000000000023748                ConvertMMXpII32_16BGR565
                0x00000000000237f1                ConvertMMXpII32_16BGR555
                0x00000000000237fa                ConvertMMXpII32_16RGB555
 *fill*         0x00000000000238fa        0x6 
 .text          0x0000000000023900       0x2b hermes/mmx_main.o
                0x0000000000023900                ConvertMMX
                0x000000000002391b                mmxreturn
 *fill*         0x000000000002392b        0x5 
 .text          0x0000000000023930      0x37d hermes/x86p_16.o
                0x0000000000023930                ConvertX86p16_16BGR565
                0x0000000000023a01                ConvertX86p16_16RGB555
                0x0000000000023ac5                ConvertX86p16_16BGR555
                0x0000000000023bb0                ConvertX86p16_8RGB332
 *fill*         0x0000000000023cad        0x3 
 .text          0x0000000000023cb0      0x66e hermes/x86p_32.o
                0x0000000000023cb0                ConvertX86p32_32BGR888
                0x0000000000023d24                ConvertX86p32_32RGBA888
                0x0000000000023d8c                ConvertX86p32_32BGRA888
                0x0000000000023dee                ConvertX86p32_24RGB888
                0x0000000000023e91                ConvertX86p32_24BGR888
                0x0000000000023f31                ConvertX86p32_16RGB565
                0x0000000000023ffc                ConvertX86p32_16BGR565
                0x00000000000240cf                ConvertX86p32_16RGB555
                0x000000000002419a                ConvertX86p32_16BGR555
                0x000000000002426d                ConvertX86p32_8RGB332
 *fill*         0x000000000002431e        0x2 
 .text          0x0000000000024320       0x62 hermes/x86_main.o
                0x0000000000024320                ConvertX86
                0x000000000002433b                x86return
                0x0000000000024349                Hermes_X86_CPU
 *fill*         0x0000000000024382        0xe 
 .text          0x0000000000024390       0xa0 /home/autobuild/tools/win32/mingw32/lib/libgcc.a(__main.o)
                0x0000000000024390                __do_global_dtors
                0x00000000000243c0                __do_global_ctors
                0x0000000000024410                __main
 .text          0x0000000000024430        0x0 /home/autobuild/tools/win32/mingw32/lib/libgcc.a(_ctors.o)
 .text          0x0000000000024430        0x8 ../../../lib/libc.dll.a(d000297.o)
                0x0000000000024430                free
 .text          0x0000000000024438        0x8 ../../../lib/libc.dll.a(d000264.o)
                0x0000000000024438                fclose
 .text          0x0000000000024440        0x8 ../../../lib/libc.dll.a(d000307.o)
                0x0000000000024440                fwrite
 .text          0x0000000000024448        0x8 ../../../lib/libc.dll.a(d000296.o)
                0x0000000000024448                fread
 .text          0x0000000000024450        0x8 ../../../lib/libc.dll.a(d000302.o)
                0x0000000000024450                fseek
 .text          0x0000000000024458        0x8 ../../../lib/libc.dll.a(d000305.o)
                0x0000000000024458                ftell
 .text          0x0000000000024460        0x8 ../../../lib/libc.dll.a(d000413.o)
                0x0000000000024460                memcpy
 .text          0x0000000000024468        0x8 ../../../lib/libc.dll.a(d000405.o)
                0x0000000000024468                malloc
 .text          0x0000000000024470        0x8 ../../../lib/libc.dll.a(d000291.o)
                0x0000000000024470                fopen
 .text          0x0000000000024478        0x8 ../../../lib/libc.dll.a(d000415.o)
                0x0000000000024478                memset
 .text          0x0000000000024480        0x8 ../../../lib/libc.dll.a(d000387.o)
                0x0000000000024480                log
 .text          0x0000000000024488        0x8 ../../../lib/libc.dll.a(d000434.o)
                0x0000000000024488                pow
 .text          0x0000000000024490        0x8 ../../../lib/libc.dll.a(d000412.o)
                0x0000000000024490                memcmp
 .text          0x0000000000024498        0x8 ../../../lib/libc.dll.a(d000448.o)
                0x0000000000024498                realloc
 .text          0x00000000000244a0        0x8 ../../../lib/libc.dll.a(d000510.o)
                0x00000000000244a0                strncpy
 .text          0x00000000000244a8        0x8 ../../../lib/libc.dll.a(d000506.o)
                0x00000000000244a8                strlen
 .text          0x00000000000244b0        0x8 ../../../lib/libc.dll.a(d000501.o)
                0x00000000000244b0                strcpy
 .text          0x00000000000244b8        0x8 ../../../lib/libc.dll.a(d000509.o)
                0x00000000000244b8                strncmp
 .text          0x00000000000244c0        0x8 ../../../lib/libc.dll.a(d000208.o)
                0x00000000000244c0                atoi
 .text          0x00000000000244c8        0x8 ../../../lib/libc.dll.a(d000253.o)
                0x00000000000244c8                exit
 .text          0x00000000000244d0        0x8 ../../../lib/libc.dll.a(d000564.o)
                0x00000000000244d0                vsprintf
 .text          0x00000000000244d8        0x8 ../../../lib/libc.dll.a(d000486.o)
                0x00000000000244d8                sprintf
 .text          0x00000000000244e0        0x8 ../../../lib/libc.dll.a(d000438.o)
                0x00000000000244e0                printf
 .text          0x00000000000244e8        0x8 ../../../lib/libc.dll.a(d000206.o)
                0x00000000000244e8                atexit
 .text          0x00000000000244f0        0x0 ../../../lib/libapp.a(start.o)
 .text          0x00000000000244f0       0x40 ../../../lib/libapp.a(crt3.o)
                0x00000000000244f0                _pei386_runtime_relocator
                0x0000000000024500                __crt_startup
 .text          0x0000000000024530      0x250 ../../../lib/libapp.a(crtloader.o)
                0x0000000000024530                validate_pe
                0x00000000000245c0                create_image
                0x0000000000024700                get_entry_point
                0x0000000000024710                load_libc
 *(SORT(.text$*))
 *(.text.*)
 .text.startup  0x0000000000024780       0xd0 SDLTest.o
                0x0000000000024780                main
 *(.glue_7t)
 *(.glue_7)
                0x0000000000024850                ___CTOR_LIST__ = .
                0x0000000000024850                __CTOR_LIST__ = .
                0x0000000000024850        0x4 LONG 0xffffffffffffffff
 *(.ctors)
 *(.ctor)
 *(SORT(.ctors.*))
                0x0000000000024854        0x4 LONG 0x0
                0x0000000000024858                ___DTOR_LIST__ = .
                0x0000000000024858                __DTOR_LIST__ = .
                0x0000000000024858        0x4 LONG 0xffffffffffffffff
 *(.dtors)
 *(.dtor)
 *(SORT(.dtors.*))
                0x000000000002485c        0x4 LONG 0x0
 *(.fini)
 *(.gcc_exc)
                0x0000000000024860                PROVIDE (etext, .)
 *(.gcc_except_table)

'.DATA'         0x0000000000025000      0x200
 '.DATA'        0x0000000000025000        0x4 hermes/x86_main.o

.rdata          0x0000000000025010     0x4210
 *(.rdata)
 .rdata         0x0000000000025010       0x2c file/SDL_rwops.o
 .rdata         0x000000000002503c       0x24 thread/SDL_syscond.o
 .rdata         0x0000000000025060       0x28 thread/SDL_syssem.o
 .rdata         0x0000000000025088       0x2c thread/SDL_systhread.o
 .rdata         0x00000000000250b4       0xa8 timer/SDL_timer.o
 .rdata         0x000000000002515c       0x1c events/SDL_events.o
 .rdata         0x0000000000025178      0x624 events/SDL_keyboard.o
 .rdata         0x000000000002579c       0x28 video/SDL_blit_0.o
 .rdata         0x00000000000257c4      0x168 video/SDL_blit_1.o
 .rdata         0x000000000002592c       0x20 video/SDL_blit_A.o
 .rdata         0x000000000002594c       0x20 video/SDL_blit.o
 *fill*         0x000000000002596c       0x14 
 .rdata         0x0000000000025980     0x25c0 video/SDL_blit_N.o
 .rdata         0x0000000000027f40       0xa4 video/SDL_bmp.o
 .rdata         0x0000000000027fe4       0x2c video/SDL_cursor.o
 .rdata         0x0000000000028010       0x54 video/SDL_gamma.o
 .rdata         0x0000000000028064       0x10 video/SDL_RLEaccel.o
 .rdata         0x0000000000028074       0xa8 video/SDL_stretch.o
 .rdata         0x000000000002811c       0x6c video/SDL_surface.o
 .rdata         0x0000000000028188      0x1dc video/SDL_video.o
 .rdata         0x0000000000028364       0x2c video/SDL_yuv.o
 .rdata         0x0000000000028390       0x90 video/SDL_yuv_sw.o
 .rdata         0x0000000000028420      0x620 video/menuetos/SDL_menuetevents.o
 .rdata         0x0000000000028a40       0x20 video/menuetos/SDL_menuetvideo.o
 .rdata         0x0000000000028a60       0x68 SDL.o
 .rdata         0x0000000000028ac8       0x94 SDL_error.o
 .rdata         0x0000000000028b5c      0x19c audio/SDL_kolibri_audio.o
 .rdata         0x0000000000028cf8       0x18 ../../../lib/libapp.a(crtloader.o)
 *(SORT(.rdata$*))
 .rdata$zzz     0x0000000000028d10       0x14 SDLTest.o
 .rdata$zzz     0x0000000000028d24       0x14 endian/SDL_endian.o
 .rdata$zzz     0x0000000000028d38       0x14 file/SDL_rwops.o
 .rdata$zzz     0x0000000000028d4c       0x14 thread/SDL_syscond.o
 .rdata$zzz     0x0000000000028d60       0x14 thread/SDL_sysmutex.o
 .rdata$zzz     0x0000000000028d74       0x14 thread/SDL_syssem.o
 .rdata$zzz     0x0000000000028d88       0x14 thread/SDL_systhread.o
 .rdata$zzz     0x0000000000028d9c       0x14 thread/SDL_thread.o
 .rdata$zzz     0x0000000000028db0       0x14 timer/SDL_timer.o
 .rdata$zzz     0x0000000000028dc4       0x14 timer/dummy/SDL_systimer.o
 .rdata$zzz     0x0000000000028dd8       0x14 events/SDL_active.o
 .rdata$zzz     0x0000000000028dec       0x14 events/SDL_events.o
 .rdata$zzz     0x0000000000028e00       0x14 events/SDL_expose.o
 .rdata$zzz     0x0000000000028e14       0x14 events/SDL_keyboard.o
 .rdata$zzz     0x0000000000028e28       0x14 events/SDL_mouse.o
 .rdata$zzz     0x0000000000028e3c       0x14 events/SDL_quit.o
 .rdata$zzz     0x0000000000028e50       0x14 events/SDL_resize.o
 .rdata$zzz     0x0000000000028e64       0x14 video/SDL_blit_0.o
 .rdata$zzz     0x0000000000028e78       0x14 video/SDL_blit_1.o
 .rdata$zzz     0x0000000000028e8c       0x14 video/SDL_blit_A.o
 .rdata$zzz     0x0000000000028ea0       0x14 video/SDL_blit.o
 .rdata$zzz     0x0000000000028eb4       0x14 video/SDL_blit_N.o
 .rdata$zzz     0x0000000000028ec8       0x14 video/SDL_bmp.o
 .rdata$zzz     0x0000000000028edc       0x14 video/SDL_cursor.o
 .rdata$zzz     0x0000000000028ef0       0x14 video/SDL_gamma.o
 .rdata$zzz     0x0000000000028f04       0x14 video/SDL_pixels.o
 .rdata$zzz     0x0000000000028f18       0x14 video/SDL_RLEaccel.o
 .rdata$zzz     0x0000000000028f2c       0x14 video/SDL_stretch.o
 .rdata$zzz     0x0000000000028f40       0x14 video/SDL_surface.o
 .rdata$zzz     0x0000000000028f54       0x14 video/SDL_video.o
 .rdata$zzz     0x0000000000028f68       0x14 video/SDL_yuv.o
 .rdata$zzz     0x0000000000028f7c       0x14 video/SDL_yuv_mmx.o
 .rdata$zzz     0x0000000000028f90       0x14 video/SDL_yuv_sw.o
 .rdata$zzz     0x0000000000028fa4       0x14 video/menuetos/SDL_menuetevents.o
 .rdata$zzz     0x0000000000028fb8       0x14 video/menuetos/SDL_menuetvideo.o
 .rdata$zzz     0x0000000000028fcc       0x14 SDL.o
 .rdata$zzz     0x0000000000028fe0       0x14 SDL_error.o
 .rdata$zzz     0x0000000000028ff4       0x14 SDL_fatal.o
 .rdata$zzz     0x0000000000029008       0x14 SDL_getenv.o
 .rdata$zzz     0x000000000002901c       0x14 audio/SDL_kolibri_audio.o
 .rdata$zzz     0x0000000000029030       0x14 /home/autobuild/tools/win32/mingw32/lib/libgcc.a(__main.o)
 .rdata$zzz     0x0000000000029044       0x14 /home/autobuild/tools/win32/mingw32/lib/libgcc.a(_ctors.o)
                0x0000000000029058                ___RUNTIME_PSEUDO_RELOC_LIST__ = .
                0x0000000000029058                __RUNTIME_PSEUDO_RELOC_LIST__ = .
 *(.rdata_runtime_pseudo_reloc)
                0x0000000000029058                ___RUNTIME_PSEUDO_RELOC_LIST_END__ = .
                0x0000000000029058                __RUNTIME_PSEUDO_RELOC_LIST_END__ = .

.CRT            0x0000000000029060        0x0
                0x0000000000029060                ___crt_xc_start__ = .
 *(SORT(.CRT$XC*))
                0x0000000000029060                ___crt_xc_end__ = .
                0x0000000000029060                ___crt_xi_start__ = .
 *(SORT(.CRT$XI*))
                0x0000000000029060                ___crt_xi_end__ = .
                0x0000000000029060                ___crt_xl_start__ = .
 *(SORT(.CRT$XL*))
                0x0000000000029060                ___crt_xp_start__ = .
 *(SORT(.CRT$XP*))
                0x0000000000029060                ___crt_xp_end__ = .
                0x0000000000029060                ___crt_xt_start__ = .
 *(SORT(.CRT$XT*))
                0x0000000000029060                ___crt_xt_end__ = .

.data           0x0000000000029060      0x200
                0x0000000000029060                PROVIDE (__data_start__, .)
 *(.data)
 .data          0x0000000000029060        0x0 SDLTest.o
 .data          0x0000000000029060        0x0 endian/SDL_endian.o
 .data          0x0000000000029060        0x0 file/SDL_rwops.o
 .data          0x0000000000029060        0x0 thread/SDL_syscond.o
 .data          0x0000000000029060        0x0 thread/SDL_sysmutex.o
 .data          0x0000000000029060        0x0 thread/SDL_syssem.o
 .data          0x0000000000029060        0x0 thread/SDL_systhread.o
 .data          0x0000000000029060        0x0 thread/SDL_thread.o
 .data          0x0000000000029060        0x0 timer/SDL_timer.o
 .data          0x0000000000029060        0x0 timer/dummy/SDL_systimer.o
 .data          0x0000000000029060        0x0 events/SDL_active.o
 .data          0x0000000000029060        0x0 events/SDL_events.o
 .data          0x0000000000029060        0x0 events/SDL_expose.o
 .data          0x0000000000029060        0x0 events/SDL_keyboard.o
 .data          0x0000000000029060        0x0 events/SDL_mouse.o
 .data          0x0000000000029060        0x0 events/SDL_quit.o
 .data          0x0000000000029060        0x0 events/SDL_resize.o
 .data          0x0000000000029060        0x0 video/SDL_blit_0.o
 .data          0x0000000000029060        0x0 video/SDL_blit_1.o
 .data          0x0000000000029060        0x0 video/SDL_blit_A.o
 .data          0x0000000000029060        0x0 video/SDL_blit.o
 .data          0x0000000000029060        0x0 video/SDL_blit_N.o
 .data          0x0000000000029060        0x0 video/SDL_bmp.o
 .data          0x0000000000029060       0x60 video/SDL_cursor.o
 .data          0x00000000000290c0        0x0 video/SDL_gamma.o
 .data          0x00000000000290c0        0x0 video/SDL_pixels.o
 .data          0x00000000000290c0        0x0 video/SDL_RLEaccel.o
 .data          0x00000000000290c0        0x0 video/SDL_stretch.o
 .data          0x00000000000290c0        0x0 video/SDL_surface.o
 .data          0x00000000000290c0       0x20 video/SDL_video.o
 .data          0x00000000000290e0        0x0 video/SDL_yuv.o
 .data          0x00000000000290e0       0x98 video/SDL_yuv_mmx.o
                0x00000000000290e0                MMX_blu5x5
                0x00000000000290e8                MMX_grn565
                0x00000000000290f0                MMX_grn555
                0x00000000000290f8                MMX_red565
                0x0000000000029100                MMX_red555
                0x0000000000029108                MMX_Vgrn565
                0x0000000000029110                MMX_Ugrn565
                0x0000000000029118                MMX_Vgrn555
                0x0000000000029120                MMX_Ugrn555
                0x0000000000029128                MMX_Vred5x5
                0x0000000000029130                MMX_Ublu5x5
                0x0000000000029138                MMX_VgrnRGB
                0x0000000000029140                MMX_UgrnRGB
                0x0000000000029148                MMX_VredRGB
                0x0000000000029150                MMX_UbluRGB
                0x0000000000029158                MMX_Ycoeff
                0x0000000000029160                MMX_FF00w
                0x0000000000029168                MMX_00FFw
                0x0000000000029170                MMX_0080w
 .data          0x0000000000029178       0x10 video/SDL_yuv_sw.o
 .data          0x0000000000029188        0x0 video/menuetos/SDL_menuetevents.o
 .data          0x0000000000029188       0x24 video/menuetos/SDL_menuetvideo.o
                0x0000000000029188                mosvideo_bootstrab
                0x0000000000029198                def_title
 .data          0x00000000000291ac        0x4 SDL.o
 .data          0x00000000000291b0        0x0 SDL_error.o
 .data          0x00000000000291b0        0x0 SDL_fatal.o
 .data          0x00000000000291b0        0x0 SDL_getenv.o
 .data          0x00000000000291b0       0x17 ../../sound/src/init.obj
                0x00000000000291b0                hSound
                0x00000000000291b0                hSound
                0x00000000000291b4                hrdwSound
                0x00000000000291b4                hrdwSound
 *fill*         0x00000000000291c7        0x1 
 .data          0x00000000000291c8        0x0 audio/SDL_kolibri_audio.o
 .data          0x00000000000291c8       0x40 hermes/mmxp2_32.o
 .data          0x0000000000029208        0x4 /home/autobuild/tools/win32/mingw32/lib/libgcc.a(__main.o)
 .data          0x000000000002920c        0x0 /home/autobuild/tools/win32/mingw32/lib/libgcc.a(_ctors.o)
 .data          0x000000000002920c        0x0 ../../../lib/libapp.a(start.o)
 .data          0x000000000002920c        0x0 ../../../lib/libapp.a(crt3.o)
 .data          0x000000000002920c        0x0 ../../../lib/libapp.a(crtloader.o)
 *(.data2)
 *(SORT(.data$*))
 *(.jcr)
                0x000000000002920c                __CRT_MT = .
                0x000000000002920c        0x4 LONG 0x0
                0x0000000000029210                PROVIDE (__data_end__, .)
 *(.data_cygwin_nocopy)
                0x0000000000029210                ___iend = .

.eh_frame       0x0000000000029210     0x4600
                0x0000000000029210                PROVIDE (___EH_FRAME_BEGIN__, .)
 *(.eh_frame*)
 .eh_frame      0x0000000000029210       0xb8 SDLTest.o
 .eh_frame      0x00000000000292c8      0x138 endian/SDL_endian.o
 .eh_frame      0x0000000000029400      0x218 file/SDL_rwops.o
 .eh_frame      0x0000000000029618      0x12c thread/SDL_syscond.o
 .eh_frame      0x0000000000029744       0x9c thread/SDL_sysmutex.o
 .eh_frame      0x00000000000297e0       0xb8 thread/SDL_syssem.o
 .eh_frame      0x0000000000029898       0x80 thread/SDL_systhread.o
 .eh_frame      0x0000000000029918      0x198 thread/SDL_thread.o
 .eh_frame      0x0000000000029ab0      0x168 timer/SDL_timer.o
 .eh_frame      0x0000000000029c18       0xbc timer/dummy/SDL_systimer.o
 .eh_frame      0x0000000000029cd4       0x9c events/SDL_active.o
 .eh_frame      0x0000000000029d70      0x26c events/SDL_events.o
 .eh_frame      0x0000000000029fdc       0x50 events/SDL_expose.o
 .eh_frame      0x000000000002a02c      0x140 events/SDL_keyboard.o
 .eh_frame      0x000000000002a16c      0x118 events/SDL_mouse.o
 .eh_frame      0x000000000002a284       0x64 events/SDL_quit.o
 .eh_frame      0x000000000002a2e8       0x48 events/SDL_resize.o
 .eh_frame      0x000000000002a330      0x2bc video/SDL_blit_0.o
 .eh_frame      0x000000000002a5ec      0x2ac video/SDL_blit_1.o
 .eh_frame      0x000000000002a898      0x3d8 video/SDL_blit_A.o
 .eh_frame      0x000000000002ac70      0x194 video/SDL_blit.o
 .eh_frame      0x000000000002ae04      0x318 video/SDL_blit_N.o
 .eh_frame      0x000000000002b11c       0xb0 video/SDL_bmp.o
 .eh_frame      0x000000000002b1cc      0x330 video/SDL_cursor.o
 .eh_frame      0x000000000002b4fc      0x1ec video/SDL_gamma.o
 .eh_frame      0x000000000002b6e8      0x3b4 video/SDL_pixels.o
 .eh_frame      0x000000000002ba9c      0x300 video/SDL_RLEaccel.o
 .eh_frame      0x000000000002bd9c       0xdc video/SDL_stretch.o
 .eh_frame      0x000000000002be78      0x354 video/SDL_surface.o
 .eh_frame      0x000000000002c1cc      0x5ac video/SDL_video.o
 .eh_frame      0x000000000002c778       0xc4 video/SDL_yuv.o
 .eh_frame      0x000000000002c83c       0x80 video/SDL_yuv_mmx.o
 .eh_frame      0x000000000002c8bc      0x44c video/SDL_yuv_sw.o
 .eh_frame      0x000000000002cd08       0x74 video/menuetos/SDL_menuetevents.o
 .eh_frame      0x000000000002cd7c      0x310 video/menuetos/SDL_menuetvideo.o
 .eh_frame      0x000000000002d08c       0xcc SDL.o
 .eh_frame      0x000000000002d158      0x144 SDL_error.o
 .eh_frame      0x000000000002d29c       0x54 SDL_fatal.o
 .eh_frame      0x000000000002d2f0       0xac SDL_getenv.o
 .eh_frame      0x000000000002d39c      0x144 audio/SDL_kolibri_audio.o
 .eh_frame      0x000000000002d4e0       0x68 /home/autobuild/tools/win32/mingw32/lib/libgcc.a(__main.o)
 .eh_frame      0x000000000002d548       0x48 ../../../lib/libapp.a(crt3.o)
 .eh_frame      0x000000000002d590       0xd4 ../../../lib/libapp.a(crtloader.o)

.idata          0x000000000002d670      0x400
                0x000000000002d670                __idata_start = .
 SORT(*)(.idata$2)
 .idata$2       0x000000000002d670       0x14 ../../../lib/libc.dll.a(d000000.o)
                0x000000000002d670                _head_libc_dll
 SORT(*)(.idata$3)
                0x000000000002d684        0x4 LONG 0x0
                0x000000000002d688        0x4 LONG 0x0
                0x000000000002d68c        0x4 LONG 0x0
                0x000000000002d690        0x4 LONG 0x0
                0x000000000002d694        0x4 LONG 0x0
 SORT(*)(.idata$4)
 .idata$4       0x000000000002d698        0x0 ../../../lib/libc.dll.a(d000000.o)
 .idata$4       0x000000000002d698        0x4 ../../../lib/libc.dll.a(d000206.o)
 .idata$4       0x000000000002d69c        0x4 ../../../lib/libc.dll.a(d000208.o)
 .idata$4       0x000000000002d6a0        0x4 ../../../lib/libc.dll.a(d000253.o)
 .idata$4       0x000000000002d6a4        0x4 ../../../lib/libc.dll.a(d000264.o)
 .idata$4       0x000000000002d6a8        0x4 ../../../lib/libc.dll.a(d000291.o)
 .idata$4       0x000000000002d6ac        0x4 ../../../lib/libc.dll.a(d000296.o)
 .idata$4       0x000000000002d6b0        0x4 ../../../lib/libc.dll.a(d000297.o)
 .idata$4       0x000000000002d6b4        0x4 ../../../lib/libc.dll.a(d000302.o)
 .idata$4       0x000000000002d6b8        0x4 ../../../lib/libc.dll.a(d000305.o)
 .idata$4       0x000000000002d6bc        0x4 ../../../lib/libc.dll.a(d000307.o)
 .idata$4       0x000000000002d6c0        0x4 ../../../lib/libc.dll.a(d000387.o)
 .idata$4       0x000000000002d6c4        0x4 ../../../lib/libc.dll.a(d000405.o)
 .idata$4       0x000000000002d6c8        0x4 ../../../lib/libc.dll.a(d000412.o)
 .idata$4       0x000000000002d6cc        0x4 ../../../lib/libc.dll.a(d000413.o)
 .idata$4       0x000000000002d6d0        0x4 ../../../lib/libc.dll.a(d000415.o)
 .idata$4       0x000000000002d6d4        0x4 ../../../lib/libc.dll.a(d000434.o)
 .idata$4       0x000000000002d6d8        0x4 ../../../lib/libc.dll.a(d000438.o)
 .idata$4       0x000000000002d6dc        0x4 ../../../lib/libc.dll.a(d000448.o)
 .idata$4       0x000000000002d6e0        0x4 ../../../lib/libc.dll.a(d000486.o)
 .idata$4       0x000000000002d6e4        0x4 ../../../lib/libc.dll.a(d000501.o)
 .idata$4       0x000000000002d6e8        0x4 ../../../lib/libc.dll.a(d000506.o)
 .idata$4       0x000000000002d6ec        0x4 ../../../lib/libc.dll.a(d000509.o)
 .idata$4       0x000000000002d6f0        0x4 ../../../lib/libc.dll.a(d000510.o)
 .idata$4       0x000000000002d6f4        0x4 ../../../lib/libc.dll.a(d000564.o)
 .idata$4       0x000000000002d6f8        0x4 ../../../lib/libc.dll.a(d000577.o)
 SORT(*)(.idata$5)
 .idata$5       0x000000000002d6fc        0x0 ../../../lib/libc.dll.a(d000000.o)
 .idata$5       0x000000000002d6fc        0x4 ../../../lib/libc.dll.a(d000206.o)
                0x000000000002d6fc                _imp__atexit
 .idata$5       0x000000000002d700        0x4 ../../../lib/libc.dll.a(d000208.o)
                0x000000000002d700                _imp__atoi
 .idata$5       0x000000000002d704        0x4 ../../../lib/libc.dll.a(d000253.o)
                0x000000000002d704                _imp__exit
 .idata$5       0x000000000002d708        0x4 ../../../lib/libc.dll.a(d000264.o)
                0x000000000002d708                _imp__fclose
 .idata$5       0x000000000002d70c        0x4 ../../../lib/libc.dll.a(d000291.o)
                0x000000000002d70c                _imp__fopen
 .idata$5       0x000000000002d710        0x4 ../../../lib/libc.dll.a(d000296.o)
                0x000000000002d710                _imp__fread
 .idata$5       0x000000000002d714        0x4 ../../../lib/libc.dll.a(d000297.o)
                0x000000000002d714                _imp__free
 .idata$5       0x000000000002d718        0x4 ../../../lib/libc.dll.a(d000302.o)
                0x000000000002d718                _imp__fseek
 .idata$5       0x000000000002d71c        0x4 ../../../lib/libc.dll.a(d000305.o)
                0x000000000002d71c                _imp__ftell
 .idata$5       0x000000000002d720        0x4 ../../../lib/libc.dll.a(d000307.o)
                0x000000000002d720                _imp__fwrite
 .idata$5       0x000000000002d724        0x4 ../../../lib/libc.dll.a(d000387.o)
                0x000000000002d724                _imp__log
 .idata$5       0x000000000002d728        0x4 ../../../lib/libc.dll.a(d000405.o)
                0x000000000002d728                _imp__malloc
 .idata$5       0x000000000002d72c        0x4 ../../../lib/libc.dll.a(d000412.o)
                0x000000000002d72c                _imp__memcmp
 .idata$5       0x000000000002d730        0x4 ../../../lib/libc.dll.a(d000413.o)
                0x000000000002d730                _imp__memcpy
 .idata$5       0x000000000002d734        0x4 ../../../lib/libc.dll.a(d000415.o)
                0x000000000002d734                _imp__memset
 .idata$5       0x000000000002d738        0x4 ../../../lib/libc.dll.a(d000434.o)
                0x000000000002d738                _imp__pow
 .idata$5       0x000000000002d73c        0x4 ../../../lib/libc.dll.a(d000438.o)
                0x000000000002d73c                _imp__printf
 .idata$5       0x000000000002d740        0x4 ../../../lib/libc.dll.a(d000448.o)
                0x000000000002d740                _imp__realloc
 .idata$5       0x000000000002d744        0x4 ../../../lib/libc.dll.a(d000486.o)
                0x000000000002d744                _imp__sprintf
 .idata$5       0x000000000002d748        0x4 ../../../lib/libc.dll.a(d000501.o)
                0x000000000002d748                _imp__strcpy
 .idata$5       0x000000000002d74c        0x4 ../../../lib/libc.dll.a(d000506.o)
                0x000000000002d74c                _imp__strlen
 .idata$5       0x000000000002d750        0x4 ../../../lib/libc.dll.a(d000509.o)
                0x000000000002d750                _imp__strncmp
 .idata$5       0x000000000002d754        0x4 ../../../lib/libc.dll.a(d000510.o)
                0x000000000002d754                _imp__strncpy
 .idata$5       0x000000000002d758        0x4 ../../../lib/libc.dll.a(d000564.o)
                0x000000000002d758                _imp__vsprintf
 .idata$5       0x000000000002d75c        0x4 ../../../lib/libc.dll.a(d000577.o)
 SORT(*)(.idata$6)
 .idata$6       0x000000000002d760        0xc ../../../lib/libc.dll.a(d000206.o)
 .idata$6       0x000000000002d76c        0x8 ../../../lib/libc.dll.a(d000208.o)
 .idata$6       0x000000000002d774        0x8 ../../../lib/libc.dll.a(d000253.o)
 .idata$6       0x000000000002d77c        0xc ../../../lib/libc.dll.a(d000264.o)
 .idata$6       0x000000000002d788        0x8 ../../../lib/libc.dll.a(d000291.o)
 .idata$6       0x000000000002d790        0x8 ../../../lib/libc.dll.a(d000296.o)
 .idata$6       0x000000000002d798        0x8 ../../../lib/libc.dll.a(d000297.o)
 .idata$6       0x000000000002d7a0        0x8 ../../../lib/libc.dll.a(d000302.o)
 .idata$6       0x000000000002d7a8        0x8 ../../../lib/libc.dll.a(d000305.o)
 .idata$6       0x000000000002d7b0        0xc ../../../lib/libc.dll.a(d000307.o)
 .idata$6       0x000000000002d7bc        0x8 ../../../lib/libc.dll.a(d000387.o)
 .idata$6       0x000000000002d7c4        0xc ../../../lib/libc.dll.a(d000405.o)
 .idata$6       0x000000000002d7d0        0xc ../../../lib/libc.dll.a(d000412.o)
 .idata$6       0x000000000002d7dc        0xc ../../../lib/libc.dll.a(d000413.o)
 .idata$6       0x000000000002d7e8        0xc ../../../lib/libc.dll.a(d000415.o)
 .idata$6       0x000000000002d7f4        0x8 ../../../lib/libc.dll.a(d000434.o)
 .idata$6       0x000000000002d7fc        0xc ../../../lib/libc.dll.a(d000438.o)
 .idata$6       0x000000000002d808        0xc ../../../lib/libc.dll.a(d000448.o)
 .idata$6       0x000000000002d814        0xc ../../../lib/libc.dll.a(d000486.o)
 .idata$6       0x000000000002d820        0xc ../../../lib/libc.dll.a(d000501.o)
 .idata$6       0x000000000002d82c        0xc ../../../lib/libc.dll.a(d000506.o)
 .idata$6       0x000000000002d838        0xc ../../../lib/libc.dll.a(d000509.o)
 .idata$6       0x000000000002d844        0xc ../../../lib/libc.dll.a(d000510.o)
 .idata$6       0x000000000002d850        0xc ../../../lib/libc.dll.a(d000564.o)
 SORT(*)(.idata$7)
 .idata$7       0x000000000002d85c        0x4 ../../../lib/libc.dll.a(d000206.o)
 .idata$7       0x000000000002d860        0x4 ../../../lib/libc.dll.a(d000208.o)
 .idata$7       0x000000000002d864        0x4 ../../../lib/libc.dll.a(d000253.o)
 .idata$7       0x000000000002d868        0x4 ../../../lib/libc.dll.a(d000264.o)
 .idata$7       0x000000000002d86c        0x4 ../../../lib/libc.dll.a(d000291.o)
 .idata$7       0x000000000002d870        0x4 ../../../lib/libc.dll.a(d000296.o)
 .idata$7       0x000000000002d874        0x4 ../../../lib/libc.dll.a(d000297.o)
 .idata$7       0x000000000002d878        0x4 ../../../lib/libc.dll.a(d000302.o)
 .idata$7       0x000000000002d87c        0x4 ../../../lib/libc.dll.a(d000305.o)
 .idata$7       0x000000000002d880        0x4 ../../../lib/libc.dll.a(d000307.o)
 .idata$7       0x000000000002d884        0x4 ../../../lib/libc.dll.a(d000387.o)
 .idata$7       0x000000000002d888        0x4 ../../../lib/libc.dll.a(d000405.o)
 .idata$7       0x000000000002d88c        0x4 ../../../lib/libc.dll.a(d000412.o)
 .idata$7       0x000000000002d890        0x4 ../../../lib/libc.dll.a(d000413.o)
 .idata$7       0x000000000002d894        0x4 ../../../lib/libc.dll.a(d000415.o)
 .idata$7       0x000000000002d898        0x4 ../../../lib/libc.dll.a(d000434.o)
 .idata$7       0x000000000002d89c        0x4 ../../../lib/libc.dll.a(d000438.o)
 .idata$7       0x000000000002d8a0        0x4 ../../../lib/libc.dll.a(d000448.o)
 .idata$7       0x000000000002d8a4        0x4 ../../../lib/libc.dll.a(d000486.o)
 .idata$7       0x000000000002d8a8        0x4 ../../../lib/libc.dll.a(d000501.o)
 .idata$7       0x000000000002d8ac        0x4 ../../../lib/libc.dll.a(d000506.o)
 .idata$7       0x000000000002d8b0        0x4 ../../../lib/libc.dll.a(d000509.o)
 .idata$7       0x000000000002d8b4        0x4 ../../../lib/libc.dll.a(d000510.o)
 .idata$7       0x000000000002d8b8        0x4 ../../../lib/libc.dll.a(d000564.o)
 .idata$7       0x000000000002d8bc        0xc ../../../lib/libc.dll.a(d000577.o)
                0x000000000002d8bc                libc_dll_iname
                0x000000000002d8c8                __idata_end = .

bss             0x000000000002d8d0     0xde20
 *(.bss)
 .bss           0x000000000002d8d0        0x0 SDLTest.o
 .bss           0x000000000002d8d0        0x0 endian/SDL_endian.o
 .bss           0x000000000002d8d0        0x0 file/SDL_rwops.o
 .bss           0x000000000002d8d0        0x0 thread/SDL_syscond.o
 .bss           0x000000000002d8d0        0x0 thread/SDL_sysmutex.o
 .bss           0x000000000002d8d0        0x0 thread/SDL_syssem.o
 .bss           0x000000000002d8d0        0x0 thread/SDL_systhread.o
 *fill*         0x000000000002d8d0       0x10 
 .bss           0x000000000002d8e0      0x340 thread/SDL_thread.o
                0x000000000002d8e0                _creating_thread_lock
 .bss           0x000000000002dc20       0x20 timer/SDL_timer.o
                0x000000000002dc20                SDL_alarm_interval
                0x000000000002dc24                SDL_timer_running
                0x000000000002dc28                SDL_timer_started
 .bss           0x000000000002dc40        0x4 timer/dummy/SDL_systimer.o
 .bss           0x000000000002dc44        0x4 events/SDL_active.o
 *fill*         0x000000000002dc48       0x18 
 .bss           0x000000000002dc60      0xe40 events/SDL_events.o
                0x000000000002dc60                SDL_EventOK
 .bss           0x000000000002eaa0        0x0 events/SDL_expose.o
 .bss           0x000000000002eaa0      0x6a0 events/SDL_keyboard.o
                0x000000000002eaa0                SDL_TranslateUNICODE
 .bss           0x000000000002f140        0xc events/SDL_mouse.o
 .bss           0x000000000002f14c        0x0 events/SDL_quit.o
 .bss           0x000000000002f14c        0x8 events/SDL_resize.o
 .bss           0x000000000002f154        0x0 video/SDL_blit_0.o
 .bss           0x000000000002f154        0x0 video/SDL_blit_1.o
 .bss           0x000000000002f154        0x0 video/SDL_blit_A.o
 .bss           0x000000000002f154        0x0 video/SDL_blit.o
 .bss           0x000000000002f154        0x0 video/SDL_blit_N.o
 .bss           0x000000000002f154        0x0 video/SDL_bmp.o
 .bss           0x000000000002f154       0x18 video/SDL_cursor.o
                0x000000000002f154                SDL_cursorlock
                0x000000000002f158                SDL_cursor
                0x000000000002f15c                SDL_cursorstate
 .bss           0x000000000002f16c        0x0 video/SDL_gamma.o
 .bss           0x000000000002f16c        0x0 video/SDL_pixels.o
 .bss           0x000000000002f16c        0x0 video/SDL_RLEaccel.o
 *fill*         0x000000000002f16c       0x14 
 .bss           0x000000000002f180     0x1020 video/SDL_stretch.o
 .bss           0x00000000000301a0        0x0 video/SDL_surface.o
 .bss           0x00000000000301a0        0x4 video/SDL_video.o
                0x00000000000301a0                current_video
 .bss           0x00000000000301a4        0x0 video/SDL_yuv.o
 .bss           0x00000000000301a4        0x0 video/SDL_yuv_mmx.o
 .bss           0x00000000000301a4        0x0 video/SDL_yuv_sw.o
 .bss           0x00000000000301a4        0xc video/menuetos/SDL_menuetevents.o
 .bss           0x00000000000301b0       0x10 video/menuetos/SDL_menuetvideo.o
 .bss           0x00000000000301c0        0x8 SDL.o
 *fill*         0x00000000000301c8       0x18 
 .bss           0x00000000000301e0      0xb20 SDL_error.o
 .bss           0x0000000000030d00        0x0 SDL_fatal.o
 .bss           0x0000000000030d00        0x4 SDL_getenv.o
 *fill*         0x0000000000030d04       0x1c 
 .bss           0x0000000000030d20     0xa440 audio/SDL_kolibri_audio.o
 .bss           0x000000000003b160        0x4 /home/autobuild/tools/win32/mingw32/lib/libgcc.a(__main.o)
 .bss           0x000000000003b164        0x0 /home/autobuild/tools/win32/mingw32/lib/libgcc.a(_ctors.o)
 .bss           0x000000000003b164        0x0 ../../../lib/libapp.a(start.o)
 .bss           0x000000000003b164        0x0 ../../../lib/libapp.a(crt3.o)
 .bss           0x000000000003b164        0x0 ../../../lib/libapp.a(crtloader.o)
 *(COMMON)
 COMMON         0x000000000003b164        0x4 timer/SDL_timer.o
                0x000000000003b164                SDL_alarm_callback
 *fill*         0x000000000003b168       0x18 
 COMMON         0x000000000003b180       0x20 events/SDL_events.o
                0x000000000003b180                SDL_ProcessEvents
 COMMON         0x000000000003b1a0       0x24 events/SDL_keyboard.o
                0x000000000003b1a0                SDL_KeyRepeat
 COMMON         0x000000000003b1c4       0x10 /home/autobuild/tools/win32/mingw32/lib/libgcc.a(_ctors.o)
                0x000000000003b1e0                . = ALIGN (0x10)
 *fill*         0x000000000003b1d4        0xc 
                0x000000000003b1e0                ___cmdline = .
                0x000000000003b2e0                . = (. + 0x100)
 *fill*         0x000000000003b1e0      0x100 
                0x000000000003b2e0                ___pgmname = .
                0x000000000003b6f0                . = ((. + 0x400) + 0x10)
 *fill*         0x000000000003b2e0      0x410 
                0x000000000003b6f0                ___stacktop = .
                0x000000000003b6f0                ___memsize = .

/DISCARD/
 *(.debug$S)
 *(.debug$T)
 *(.debug$F)
 *(.drectve)
 *(.note.GNU-stack)
 *(.comment)
 *(.debug_abbrev)
 *(.debug_info)
 *(.debug_line)
 *(.debug_frame)
 *(.debug_loc)
 *(.debug_pubnames)
 *(.debug_aranges)
 *(.debug_ranges)
LOAD SDLTest.o
LOAD endian/SDL_endian.o
LOAD file/SDL_rwops.o
LOAD thread/SDL_syscond.o
LOAD thread/SDL_sysmutex.o
LOAD thread/SDL_syssem.o
LOAD thread/SDL_systhread.o
LOAD thread/SDL_thread.o
LOAD timer/SDL_timer.o
LOAD timer/dummy/SDL_systimer.o
LOAD events/SDL_active.o
LOAD events/SDL_events.o
LOAD events/SDL_expose.o
LOAD events/SDL_keyboard.o
LOAD events/SDL_mouse.o
LOAD events/SDL_quit.o
LOAD events/SDL_resize.o
LOAD video/SDL_blit_0.o
LOAD video/SDL_blit_1.o
LOAD video/SDL_blit_A.o
LOAD video/SDL_blit.o
LOAD video/SDL_blit_N.o
LOAD video/SDL_bmp.o
LOAD video/SDL_cursor.o
LOAD video/SDL_gamma.o
LOAD video/SDL_pixels.o
LOAD video/SDL_RLEaccel.o
LOAD video/SDL_stretch.o
LOAD video/SDL_surface.o
LOAD video/SDL_video.o
LOAD video/SDL_yuv.o
LOAD video/SDL_yuv_mmx.o
LOAD video/SDL_yuv_sw.o
LOAD video/menuetos/SDL_menuetevents.o
LOAD video/menuetos/SDL_menuetvideo.o
LOAD SDL.o
LOAD SDL_error.o
LOAD SDL_fatal.o
LOAD SDL_getenv.o
LOAD ../../sound/src/init.obj
LOAD ../../sound/src/setbuf.obj
LOAD ../../sound/src/stopbuf.obj
LOAD ../../sound/src/sndgetsize.obj
LOAD audio/SDL_kolibri_audio.o
LOAD hermes/mmxp2_32.o
LOAD hermes/mmx_main.o
LOAD hermes/x86p_16.o
LOAD hermes/x86p_32.o
LOAD hermes/x86_main.o
LOAD ../../../lib/libdll.a
LOAD /home/autobuild/tools/win32/mingw32/lib/libgcc.a
LOAD ../../../lib/libc.dll.a
LOAD ../../../lib/libapp.a
OUTPUT(cutable pei-i386)

.debug_str
