Archive member included because of file (symbol)

/home/autobuild/tools/win32/mingw32/lib/libgcc.a(_udivdi3.o)
                              content_llcache.o (__udivdi3)
/home/autobuild/tools/win32/mingw32/lib/libgcc.a(_chkstk_ms.o)
                              content_urldb.o (__chkstk_ms)
/home/autobuild/tools/win32/mingw32/lib/libgcc.a(_divdi3.o)
                              css_select.o (__divdi3)
/home/autobuild/tools/win32/mingw32/lib/libgcc.a(__main.o)
                              kolibrios_main.o (__main)
/home/autobuild/tools/win32/mingw32/lib/libgcc.a(_ctors.o)
                              /home/autobuild/tools/win32/mingw32/lib/libgcc.a(__main.o) (__DTOR_LIST__)
/home/autobuild/tools/win32/lib/libz.a(gzlib.o)
                              utils_messages.o (gzopen)
/home/autobuild/tools/win32/lib/libz.a(gzclose.o)
                              utils_messages.o (gzclose)
/home/autobuild/tools/win32/lib/libz.a(gzread.o)
                              utils_messages.o (gzgets)
/home/autobuild/tools/win32/lib/libz.a(inflate.o)
                              /home/autobuild/tools/win32/lib/libz.a(gzread.o) (inflateReset)
/home/autobuild/tools/win32/lib/libz.a(gzwrite.o)
                              /home/autobuild/tools/win32/lib/libz.a(gzclose.o) (gzclose_w)
/home/autobuild/tools/win32/lib/libz.a(zutil.o)
                              /home/autobuild/tools/win32/lib/libz.a(inflate.o) (zcalloc)
/home/autobuild/tools/win32/lib/libz.a(adler32.o)
                              /home/autobuild/tools/win32/lib/libz.a(inflate.o) (adler32)
/home/autobuild/tools/win32/lib/libz.a(crc32.o)
                              /home/autobuild/tools/win32/lib/libz.a(inflate.o) (crc32)
/home/autobuild/tools/win32/lib/libz.a(inftrees.o)
                              /home/autobuild/tools/win32/lib/libz.a(inflate.o) (inflate_table)
/home/autobuild/tools/win32/lib/libz.a(inffast.o)
                              /home/autobuild/tools/win32/lib/libz.a(inflate.o) (inflate_fast)
/home/autobuild/tools/win32/lib/libz.a(deflate.o)
                              /home/autobuild/tools/win32/lib/libz.a(gzwrite.o) (deflateReset)
/home/autobuild/tools/win32/lib/libz.a(trees.o)
                              /home/autobuild/tools/win32/lib/libz.a(deflate.o) (_tr_init)
/home/autobuild/tools/win32/lib/libapp.a(start.o)
                              (_start)
/home/autobuild/tools/win32/lib/libapp.a(crt3.o)
                              /home/autobuild/tools/win32/lib/libapp.a(start.o) (__crt_startup)
/home/autobuild/tools/win32/lib/libapp.a(crtloader.o)
                              /home/autobuild/tools/win32/lib/libapp.a(crt3.o) (get_entry_point)
/home/autobuild/tools/win32/lib/libc.dll.a(d000212.o)
                              content_content.o (calloc)
/home/autobuild/tools/win32/lib/libc.dll.a(d000503.o)
                              content_content.o (strdup)
/home/autobuild/tools/win32/lib/libc.dll.a(d000297.o)
                              content_content.o (free)
/home/autobuild/tools/win32/lib/libc.dll.a(d000006.o)
                              content_content.o (__assert_func)
/home/autobuild/tools/win32/lib/libc.dll.a(d000485.o)
                              content_content.o (snprintf)
/home/autobuild/tools/win32/lib/libc.dll.a(d000506.o)
                              content_content.o (strlen)
/home/autobuild/tools/win32/lib/libc.dll.a(d000413.o)
                              content_content.o (memcpy)
/home/autobuild/tools/win32/lib/libc.dll.a(d000405.o)
                              content_content.o (malloc)
/home/autobuild/tools/win32/lib/libc.dll.a(d000510.o)
                              content_dirlist.o (strncpy)
/home/autobuild/tools/win32/lib/libc.dll.a(d000563.o)
                              content_fetchers_about.o (vsnprintf)
/home/autobuild/tools/win32/lib/libc.dll.a(d000498.o)
                              content_fetchers_data.o (strchr)
/home/autobuild/tools/win32/lib/libc.dll.a(d000511.o)
                              content_fetchers_data.o (strndup)
/home/autobuild/tools/win32/lib/libc.dll.a(d000499.o)
                              content_fetchers_data.o (strcmp)
/home/autobuild/tools/win32/lib/libc.dll.a(d000507.o)
                              content_fetchers_file.o (strncasecmp)
/home/autobuild/tools/win32/lib/libc.dll.a(d000208.o)
                              content_fetchers_file.o (atoi)
/home/autobuild/tools/win32/lib/libc.dll.a(d000291.o)
                              content_fetchers_file.o (fopen)
/home/autobuild/tools/win32/lib/libc.dll.a(d000009.o)
                              content_fetchers_file.o (__errno)
/home/autobuild/tools/win32/lib/libc.dll.a(d000264.o)
                              content_fetchers_file.o (fclose)
/home/autobuild/tools/win32/lib/libc.dll.a(d000296.o)
                              content_fetchers_file.o (fread)
/home/autobuild/tools/win32/lib/libc.dll.a(d000385.o)
                              content_fetchers_file.o (localtime)
/home/autobuild/tools/win32/lib/libc.dll.a(d000505.o)
                              content_fetchers_file.o (strftime)
/home/autobuild/tools/win32/lib/libc.dll.a(d000536.o)
                              content_llcache.o (time)
/home/autobuild/tools/win32/lib/libc.dll.a(d000495.o)
                              content_llcache.o (strcasecmp)
/home/autobuild/tools/win32/lib/libc.dll.a(d000415.o)
                              content_llcache.o (memset)
/home/autobuild/tools/win32/lib/libc.dll.a(d000509.o)
                              content_llcache.o (strncmp)
/home/autobuild/tools/win32/lib/libc.dll.a(d000448.o)
                              content_llcache.o (realloc)
/home/autobuild/tools/win32/lib/libc.dll.a(d000491.o)
                              content_llcache.o (sscanf)
/home/autobuild/tools/win32/lib/libc.dll.a(d000412.o)
                              content_mimesniff.o (memcmp)
/home/autobuild/tools/win32/lib/libc.dll.a(d000007.o)
                              content_urldb.o (_imp____ctype_ptr__)
/home/autobuild/tools/win32/lib/libc.dll.a(d000292.o)
                              content_urldb.o (fprintf)
/home/autobuild/tools/win32/lib/libc.dll.a(d000516.o)
                              content_urldb.o (strspn)
/home/autobuild/tools/win32/lib/libc.dll.a(d000442.o)
                              content_urldb.o (qsort)
/home/autobuild/tools/win32/lib/libc.dll.a(d000293.o)
                              content_urldb.o (fputc)
/home/autobuild/tools/win32/lib/libc.dll.a(d000294.o)
                              content_urldb.o (fputs)
/home/autobuild/tools/win32/lib/libc.dll.a(d000514.o)
                              content_urldb.o (strrchr)
/home/autobuild/tools/win32/lib/libc.dll.a(d000486.o)
                              content_urldb.o (sprintf)
/home/autobuild/tools/win32/lib/libc.dll.a(d000501.o)
                              content_urldb.o (strcpy)
/home/autobuild/tools/win32/lib/libc.dll.a(d000513.o)
                              content_urldb.o (strpbrk)
/home/autobuild/tools/win32/lib/libc.dll.a(d000274.o)
                              content_urldb.o (fgets)
/home/autobuild/tools/win32/lib/libc.dll.a(d000517.o)
                              content_urldb.o (strstr)
/home/autobuild/tools/win32/lib/libc.dll.a(d000414.o)
                              content_urldb.o (memmove)
/home/autobuild/tools/win32/lib/libc.dll.a(d000307.o)
                              css_dump.o (fwrite)
/home/autobuild/tools/win32/lib/libc.dll.a(d000210.o)
                              css_select.o (bsearch)
/home/autobuild/tools/win32/lib/libc.dll.a(d000236.o)
                              desktop_cookie_manager.o (ctime)
/home/autobuild/tools/win32/lib/libc.dll.a(d000525.o)
                              desktop_download.o (strtoul)
/home/autobuild/tools/win32/lib/libc.dll.a(d000422.o)
                              desktop_global_history.o (mktime)
/home/autobuild/tools/win32/lib/libc.dll.a(d000451.o)
                              desktop_hotlist.o (remove)
/home/autobuild/tools/win32/lib/libc.dll.a(d000454.o)
                              desktop_hotlist.o (rename)
/home/autobuild/tools/win32/lib/libc.dll.a(d000504.o)
                              desktop_hotlist.o (strerror)
/home/autobuild/tools/win32/lib/libc.dll.a(d000473.o)
                              desktop_netsurf.o (signal)
/home/autobuild/tools/win32/lib/libc.dll.a(d000471.o)
                              desktop_netsurf.o (setlocale)
/home/autobuild/tools/win32/lib/libc.dll.a(d000302.o)
                              desktop_searchweb.o (fseek)
/home/autobuild/tools/win32/lib/libc.dll.a(d000305.o)
                              desktop_searchweb.o (ftell)
/home/autobuild/tools/win32/lib/libc.dll.a(d000444.o)
                              image_image_cache.o (rand)
/home/autobuild/tools/win32/lib/libc.dll.a(d000253.o)
                              kolibrios_fb_gui.o (exit)
/home/autobuild/tools/win32/lib/libc.dll.a(d000316.o)
                              kolibrios_fb_schedule.o (gettimeofday)
/home/autobuild/tools/win32/lib/libc.dll.a(d000522.o)
                              render_box_construct.o (strtol)
/home/autobuild/tools/win32/lib/libc.dll.a(d000502.o)
                              render_box_construct.o (strcspn)
/home/autobuild/tools/win32/lib/libc.dll.a(d000519.o)
                              render_box_construct.o (strtof)
/home/autobuild/tools/win32/lib/libc.dll.a(d000216.o)
                              render_html_redraw.o (ceilf)
/home/autobuild/tools/win32/lib/libc.dll.a(d000520.o)
                              render_imagemap.o (strtok)
/home/autobuild/tools/win32/lib/libc.dll.a(d000215.o)
                              render_layout.o (ceil)
/home/autobuild/tools/win32/lib/libc.dll.a(d000315.o)
                              utils_filepath.o (getenv)
/home/autobuild/tools/win32/lib/libc.dll.a(d000560.o)
                              utils_log.o (vfprintf)
/home/autobuild/tools/win32/lib/libc.dll.a(d000441.o)
                              utils_nsurl.o (puts)
/home/autobuild/tools/win32/lib/libc.dll.a(d000187.o)
                              utils_talloc.o (abort)
/home/autobuild/tools/win32/lib/libc.dll.a(d000272.o)
                              utils_talloc.o (fflush)
/home/autobuild/tools/win32/lib/libc.dll.a(d000332.o)
                              utils_url.o (isascii)
/home/autobuild/tools/win32/lib/libc.dll.a(d000317.o)
                              utils_utils.o (gmtime)
/home/autobuild/tools/win32/lib/libc.dll.a(d000411.o)
                              /home/bob/ofiles/libhubbub-tokeniser-tokeniser.o (memchr)
/home/autobuild/tools/win32/lib/libc.dll.a(d000438.o)
                              /home/bob/ofiles/libparserutils-utils-stack.o (printf)
/home/autobuild/tools/win32/lib/libc.dll.a(d000440.o)
                              /home/bob/ofiles/libparserutils-utils-stack.o (putchar)
/home/autobuild/tools/win32/lib/libc.dll.a(d000403.o)
                              /home/autobuild/tools/win32/lib/libz.a(gzlib.o) (lseek)
/home/autobuild/tools/win32/lib/libc.dll.a(d000497.o)
                              /home/autobuild/tools/win32/lib/libz.a(gzlib.o) (strcat)
/home/autobuild/tools/win32/lib/libc.dll.a(d000431.o)
                              /home/autobuild/tools/win32/lib/libz.a(gzlib.o) (open)
/home/autobuild/tools/win32/lib/libc.dll.a(d000446.o)
                              /home/autobuild/tools/win32/lib/libz.a(gzread.o) (read)
/home/autobuild/tools/win32/lib/libc.dll.a(d000220.o)
                              /home/autobuild/tools/win32/lib/libz.a(gzread.o) (close)
/home/autobuild/tools/win32/lib/libc.dll.a(d000569.o)
                              /home/autobuild/tools/win32/lib/libz.a(gzwrite.o) (write)
/home/autobuild/tools/win32/lib/libc.dll.a(d000564.o)
                              /home/autobuild/tools/win32/lib/libz.a(gzwrite.o) (vsprintf)
/home/autobuild/tools/win32/lib/libc.dll.a(d000000.o)
                              /home/autobuild/tools/win32/lib/libc.dll.a(d000212.o) (_head_libc_dll)
/home/autobuild/tools/win32/lib/libc.dll.a(d000577.o)
                              /home/autobuild/tools/win32/lib/libc.dll.a(d000000.o) (libc_dll_iname)
../../inst/lib/libnsfb.a(src_libnsfb.o)
                              kolibrios_fb_bitmap.o (nsfb_new)
../../inst/lib/libnsfb.a(src_plot_api.o)
                              kolibrios_fb_fbtk_fbtk.o (nsfb_plot_set_clip)
../../inst/lib/libnsfb.a(src_cursor.o)
                              kolibrios_fb_framebuffer.o (nsfb_cursor_init)
../../inst/lib/libnsfb.a(src_surface_surface.o)
                              ../../inst/lib/libnsfb.a(src_libnsfb.o) (nsfb_surface_get_rtns)
../../inst/lib/libnsfb.a(src_palette.o)
                              ../../inst/lib/libnsfb.a(src_libnsfb.o) (nsfb_palette_free)
../../inst/lib/libnsfb.a(src_plot_generic.o)
                              ../../inst/lib/libnsfb.a(src_surface_surface.o) (select_plotters)
../../inst/lib/libnsfb.a(src_plot_16bpp.o)
                              ../../inst/lib/libnsfb.a(src_plot_generic.o) (_nsfb_16bpp_plotters)
../../inst/lib/libnsfb.a(src_plot_32bpp-xrgb8888.o)
                              ../../inst/lib/libnsfb.a(src_plot_generic.o) (_nsfb_32bpp_xrgb8888_plotters)
../../inst/lib/libnsfb.a(src_plot_32bpp-xbgr8888.o)
                              ../../inst/lib/libnsfb.a(src_plot_generic.o) (_nsfb_32bpp_xbgr8888_plotters)
../../inst/lib/libnsfb.a(src_plot_8bpp.o)
                              ../../inst/lib/libnsfb.a(src_plot_generic.o) (_nsfb_8bpp_plotters)
../../inst/lib/libnsfb.a(src_plot_util.o)
                              ../../inst/lib/libnsfb.a(src_plot_generic.o) (nsfb_plot_clip)

Allocating common symbols
Common symbol       size              file

plot_style_even     0xa0              desktop_treeview.o
corestring_dom_file
                    0x4               utils_corestrings.o
plot_style_odd      0xa0              desktop_treeview.o
corestring_dom_playing
                    0x4               utils_corestrings.o
corestring_dom_dblclick
                    0x4               utils_corestrings.o
corestring_dom_src  0x4               utils_corestrings.o
corestring_lwc_submit
                    0x4               utils_corestrings.o
corestring_dom_dragleave
                    0x4               utils_corestrings.o
corestring_dom_volumechange
                    0x4               utils_corestrings.o
corestring_lwc_default
                    0x4               utils_corestrings.o
corestring_dom_mousewheel
                    0x4               utils_corestrings.o
corestring_dom_rect
                    0x4               utils_corestrings.o
corestring_lwc_ul   0x4               utils_corestrings.o
corestring_dom_value
                    0x4               utils_corestrings.o
corestring_dom_waiting
                    0x4               utils_corestrings.o
corestring_dom_hspace
                    0x4               utils_corestrings.o
corestring_dom_ended
                    0x4               utils_corestrings.o
corestring_dom_on   0x4               utils_corestrings.o
corestring_lwc_url  0x4               utils_corestrings.o
corestring_dom_input
                    0x4               utils_corestrings.o
corestring_dom_target
                    0x4               utils_corestrings.o
corestring_dom_DOMNodeInserted
                    0x4               utils_corestrings.o
corestring_dom_keypress
                    0x4               utils_corestrings.o
corestring_lwc_align
                    0x4               utils_corestrings.o
corestring_dom___ns_key_libcss_node_data
                    0x4               utils_corestrings.o
corestring_dom_type
                    0x4               utils_corestrings.o
corestring_dom_resize
                    0x4               utils_corestrings.o
corestring_dom_rel  0x4               utils_corestrings.o
corestring_dom_DOMSubtreeModified
                    0x4               utils_corestrings.o
corestring_dom_load
                    0x4               utils_corestrings.o
corestring_lwc_text
                    0x4               utils_corestrings.o
corestring_dom_mouseover
                    0x4               utils_corestrings.o
corestring_dom_loadstart
                    0x4               utils_corestrings.o
corestring_dom_ratechange
                    0x4               utils_corestrings.o
fetcher_head        0x4               content_fetchers_http_kolibri.o
corestring_dom_hashchange
                    0x4               utils_corestrings.o
corestring_lwc_password
                    0x4               utils_corestrings.o
corestring_lwc_textarea
                    0x4               utils_corestrings.o
corestring_dom_seeked
                    0x4               utils_corestrings.o
corestring_dom_name
                    0x4               utils_corestrings.o
corestring_lwc_justify
                    0x4               utils_corestrings.o
corestring_dom_canplay
                    0x4               utils_corestrings.o
corestring_lwc_yes  0x4               utils_corestrings.o
corestring_dom_classid
                    0x4               utils_corestrings.o
corestring_dom_popstate
                    0x4               utils_corestrings.o
corestring_dom_offline
                    0x4               utils_corestrings.o
corestring_dom_border
                    0x4               utils_corestrings.o
corestring_lwc_img  0x4               utils_corestrings.o
treeview_inits      0x4               desktop_tree.o
corestring_lwc_file
                    0x4               utils_corestrings.o
corestring_dom_href
                    0x4               utils_corestrings.o
corestring_dom_loadedmetadata
                    0x4               utils_corestrings.o
corestring_dom_bgcolor
                    0x4               utils_corestrings.o
corestring_dom_content
                    0x4               utils_corestrings.o
corestring_dom_loadeddata
                    0x4               utils_corestrings.o
corestring_dom_timeupdate
                    0x4               utils_corestrings.o
corestring_lwc_optgroup
                    0x4               utils_corestrings.o
corestring_dom_vlink
                    0x4               utils_corestrings.o
corestring_dom_HEAD
                    0x4               utils_corestrings.o
corestring_dom_pause
                    0x4               utils_corestrings.o
corestring_dom_area
                    0x4               utils_corestrings.o
corestring_dom_invalid
                    0x4               utils_corestrings.o
corestring_dom_cellpadding
                    0x4               utils_corestrings.o
corestring_dom___ns_key_box_node_data
                    0x4               utils_corestrings.o
corestring_lwc_object
                    0x4               utils_corestrings.o
corestring_lwc_javascript
                    0x4               utils_corestrings.o
fbtk                0x4               kolibrios_fb_gui.o
corestring_lwc_embed
                    0x4               utils_corestrings.o
corestring_lwc__parent
                    0x4               utils_corestrings.o
corestring_dom_change
                    0x4               utils_corestrings.o
kolibri_color_table
                    0x28              kolibrios_main.o
corestring_dom_selected
                    0x4               utils_corestrings.o
corestring_dom_codebase
                    0x4               utils_corestrings.o
corestring_lwc_col  0x4               utils_corestrings.o
save_complete_import_re
                    0x10              desktop_save_complete.o
corestring_dom_checkbox
                    0x4               utils_corestrings.o
corestring_dom_http_equiv
                    0x4               utils_corestrings.o
corestring_lwc_title
                    0x4               utils_corestrings.o
corestring_lwc_param
                    0x4               utils_corestrings.o
ft_load_type        0x4               kolibrios_fb_font_freetype.o
corestring_dom_cols
                    0x4               utils_corestrings.o
corestring_lwc_circle
                    0x4               utils_corestrings.o
corestring_dom_dragover
                    0x4               utils_corestrings.o
corestring_dom_drag
                    0x4               utils_corestrings.o
corestring_lwc_div  0x4               utils_corestrings.o
corestring_dom_dragend
                    0x4               utils_corestrings.o
corestring_lwc_about
                    0x4               utils_corestrings.o
corestring_dom_width
                    0x4               utils_corestrings.o
corestring_lwc_charset
                    0x4               utils_corestrings.o
corestring_lwc_reset
                    0x4               utils_corestrings.o
corestring_dom_radio
                    0x4               utils_corestrings.o
corestring_dom_height
                    0x4               utils_corestrings.o
corestring_dom_class
                    0x4               utils_corestrings.o
corestring_lwc_button
                    0x4               utils_corestrings.o
corestring_lwc_frame
                    0x4               utils_corestrings.o
corestring_lwc_text_css
                    0x4               utils_corestrings.o
corestring_dom_durationchange
                    0x4               utils_corestrings.o
corestring_lwc_option
                    0x4               utils_corestrings.o
corestring_dom_align
                    0x4               utils_corestrings.o
corestring_dom_pageshow
                    0x4               utils_corestrings.o
corestring_lwc_shortcut_icon
                    0x4               utils_corestrings.o
corestring_dom_TEXTAREA
                    0x4               utils_corestrings.o
corestring_dom_text_javascript
                    0x4               utils_corestrings.o
corestring_lwc__blank
                    0x4               utils_corestrings.o
corestring_dom_progress
                    0x4               utils_corestrings.o
corestring_dom_error
                    0x4               utils_corestrings.o
corestring_lwc_no   0x4               utils_corestrings.o
corestring_dom_blur
                    0x4               utils_corestrings.o
corestring_dom_reset
                    0x4               utils_corestrings.o
corestring_dom_INPUT
                    0x4               utils_corestrings.o
corestring_dom_data
                    0x4               utils_corestrings.o
corestring_dom_readystatechange
                    0x4               utils_corestrings.o
corestring_lwc_left
                    0x4               utils_corestrings.o
corestring_dom_noresize
                    0x4               utils_corestrings.o
corestring_lwc_applet
                    0x4               utils_corestrings.o
kolibri_gui_op_table
                    0x9c              kolibrios_main.o
__DTOR_LIST__       0x8               /home/autobuild/tools/win32/mingw32/lib/libgcc.a(_ctors.o)
gh_ctx              0xd8              desktop_global_history.o
corestring_dom_DOMAttrModified
                    0x4               utils_corestrings.o
corestring_lwc_checkbox
                    0x4               utils_corestrings.o
corestring_dom_image
                    0x4               utils_corestrings.o
corestring_dom_select
                    0x4               utils_corestrings.o
corestring_lwc_resource
                    0x4               utils_corestrings.o
corestring_lwc_link
                    0x4               utils_corestrings.o
corestring_dom_nohref
                    0x4               utils_corestrings.o
corestring_lwc_body
                    0x4               utils_corestrings.o
corestring_dom_stalled
                    0x4               utils_corestrings.o
corestring_dom___ns_key_file_name_node_data
                    0x4               utils_corestrings.o
tree_g              0x20              desktop_treeview.o
corestring_dom_cellspacing
                    0x4               utils_corestrings.o
corestring_dom_button
                    0x4               utils_corestrings.o
corestring_dom_mouseout
                    0x4               utils_corestrings.o
respaths            0x4               kolibrios_fb_findfile.o
corestring_lwc_head
                    0x4               utils_corestrings.o
corestring_dom_marginwidth
                    0x4               utils_corestrings.o
corestring_lwc_input
                    0x4               utils_corestrings.o
corestring_dom_BUTTON
                    0x4               utils_corestrings.o
corestring_dom_hreflang
                    0x4               utils_corestrings.o
corestring_dom_DOMNodeInsertedIntoDocument
                    0x4               utils_corestrings.o
corestring_dom_text
                    0x4               utils_corestrings.o
corestring_dom_color
                    0x4               utils_corestrings.o
corestring_lwc_p    0x4               utils_corestrings.o
corestring_lwc_baseline
                    0x4               utils_corestrings.o
corestring_lwc_src  0x4               utils_corestrings.o
corestring_dom_emptied
                    0x4               utils_corestrings.o
corestring_lwc_a    0x4               utils_corestrings.o
corestring_dom_mousemove
                    0x4               utils_corestrings.o
corestring_dom_mouseup
                    0x4               utils_corestrings.o
corestring_dom_SELECT
                    0x4               utils_corestrings.o
corestring_dom_suspend
                    0x4               utils_corestrings.o
corestring_lwc_absmiddle
                    0x4               utils_corestrings.o
cm_ctx              0xc4              desktop_cookie_manager.o
corestring_lwc_texttop
                    0x4               utils_corestrings.o
corestring_dom_rowspan
                    0x4               utils_corestrings.o
corestring_dom_marginheight
                    0x4               utils_corestrings.o
corestring_nsurl_about_blank
                    0x4               utils_corestrings.o
corestring_dom_online
                    0x4               utils_corestrings.o
corestring_dom_id   0x4               utils_corestrings.o
corestring_lwc_tbody
                    0x4               utils_corestrings.o
corestring_lwc_rect
                    0x4               utils_corestrings.o
corestring_lwc_image
                    0x4               utils_corestrings.o
corestring_lwc_data
                    0x4               utils_corestrings.o
corestring_dom_mousedown
                    0x4               utils_corestrings.o
corestring_dom_title
                    0x4               utils_corestrings.o
corestring_lwc_https
                    0x4               utils_corestrings.o
corestring_lwc(short,...)(long, float)
                    0x4               utils_corestrings.o
corestring_lwc_meta
                    0x4               utils_corestrings.o
corestring_dom_valign
                    0x4               utils_corestrings.o
corestring_dom_vspace
                    0x4               utils_corestrings.o
corestring_lwc_icon
                    0x4               utils_corestrings.o
corestring_dom_storage
                    0x4               utils_corestrings.o
corestring_dom_dragenter
                    0x4               utils_corestrings.o
corestring_dom_colspan
                    0x4               utils_corestrings.o
corestring_dom_media
                    0x4               utils_corestrings.o
gh_list             0x70              desktop_global_history.o
corestring_lwc_slash_
                    0x4               utils_corestrings.o
corestring_lwc_font
                    0x4               utils_corestrings.o
corestring_lwc_poly
                    0x4               utils_corestrings.o
corestring_dom_frameborder
                    0x4               utils_corestrings.o
corestring_lwc_radio
                    0x4               utils_corestrings.o
corestring_dom_BODY
                    0x4               utils_corestrings.o
corestring_dom_html_namespace
                    0x4               utils_corestrings.o
corestring_dom_defer
                    0x4               utils_corestrings.o
corestring_dom_beforeunload
                    0x4               utils_corestrings.o
corestring_dom_style
                    0x4               utils_corestrings.o
corestring_lwc_h3   0x4               utils_corestrings.o
corestring_lwc_h2   0x4               utils_corestrings.o
corestring_lwc_tfoot
                    0x4               utils_corestrings.o
corestring_lwc_h4   0x4               utils_corestrings.o
corestring_lwc_h5   0x4               utils_corestrings.o
corestring_lwc_h1   0x4               utils_corestrings.o
corestring_lwc_search
                    0x4               utils_corestrings.o
corestring_dom_pagehide
                    0x4               utils_corestrings.o
corestring_dom_cancel
                    0x4               utils_corestrings.o
corestring_dom_coords
                    0x4               utils_corestrings.o
corestring_lwc_center
                    0x4               utils_corestrings.o
corestring_lwc_select
                    0x4               utils_corestrings.o
corestring_dom_rows
                    0x4               utils_corestrings.o
corestring_lwc_h6   0x4               utils_corestrings.o
corestring_lwc_top  0x4               utils_corestrings.o
corestring_dom_scroll
                    0x4               utils_corestrings.o
corestring_dom_bordercolor
                    0x4               utils_corestrings.o
corestring_dom_submit
                    0x4               utils_corestrings.o
corestring_dom_background
                    0x4               utils_corestrings.o
corestring_dom_seeking
                    0x4               utils_corestrings.o
corestring_lwc_http
                    0x4               utils_corestrings.o
corestring_dom_contextmenu
                    0x4               utils_corestrings.o
corestring_lwc_middle
                    0x4               utils_corestrings.o
corestring_lwc_frameset
                    0x4               utils_corestrings.o
corestring_lwc__top
                    0x4               utils_corestrings.o
corestring_lwc_th   0x4               utils_corestrings.o
corestring_dom_charset
                    0x4               utils_corestrings.o
corestring_dom_size
                    0x4               utils_corestrings.o
corestring_lwc_td   0x4               utils_corestrings.o
corestring_dom_focus
                    0x4               utils_corestrings.o
corestring_lwc_style
                    0x4               utils_corestrings.o
corestring_dom_alt  0x4               utils_corestrings.o
corestring_dom_async
                    0x4               utils_corestrings.o
corestring_dom_cuechange
                    0x4               utils_corestrings.o
corestring_lwc_polygon
                    0x4               utils_corestrings.o
__CTOR_LIST__       0x8               /home/autobuild/tools/win32/mingw32/lib/libgcc.a(_ctors.o)
hl_ctx              0x34              desktop_hotlist.o
corestring_dom_close
                    0x4               utils_corestrings.o
corestring_dom___ns_key_image_coords_node_data
                    0x4               utils_corestrings.o
corestring_lwc_abscenter
                    0x4               utils_corestrings.o
corestring_dom_shape
                    0x4               utils_corestrings.o
corestring_dom_scrolling
                    0x4               utils_corestrings.o
corestring_dom_afterprint
                    0x4               utils_corestrings.o
corestring_lwc_tr   0x4               utils_corestrings.o
corestring_dom_dragstart
                    0x4               utils_corestrings.o
fetcher_tail        0x4               content_fetchers_http_kolibri.o
search_current_window
                    0x4               kolibrios_fb_gui.o
_ALIGNED            0x10              /home/bob/ofiles/libcss-parse-font_face.o
corestring_lwc_noscript
                    0x4               utils_corestrings.o
corestring_lwc_multipart_form_data
                    0x4               utils_corestrings.o
corestring_lwc_hr   0x4               utils_corestrings.o
corestring_dom_click
                    0x4               utils_corestrings.o
corestring_dom_abort
                    0x4               utils_corestrings.o
corestring_dom_link
                    0x4               utils_corestrings.o
corestring_dom_keydown
                    0x4               utils_corestrings.o
fetch_http_kolibri_multi
                    0x4               content_fetchers_http_kolibri.o
corestring_dom_drop
                    0x4               utils_corestrings.o
corestring_lwc_base
                    0x4               utils_corestrings.o
corestring_lwc_li   0x4               utils_corestrings.o
corestring_lwc_hidden
                    0x4               utils_corestrings.o
corestring_dom_canplaythrough
                    0x4               utils_corestrings.o
corestring_lwc_bottom
                    0x4               utils_corestrings.o
corestring_lwc_post
                    0x4               utils_corestrings.o
corestring_lwc_rectangle
                    0x4               utils_corestrings.o
corestring_lwc_iframe
                    0x4               utils_corestrings.o
corestring_dom_show
                    0x4               utils_corestrings.o
corestring_lwc_refresh
                    0x4               utils_corestrings.o
corestring_dom_unload
                    0x4               utils_corestrings.o
corestring_dom_play
                    0x4               utils_corestrings.o
corestring_dom_a    0x4               utils_corestrings.o
corestring_lwc_thead
                    0x4               utils_corestrings.o
corestring_dom_map  0x4               utils_corestrings.o
corestring_dom_message
                    0x4               utils_corestrings.o
corestring_lwc_right
                    0x4               utils_corestrings.o
corestring_lwc_filename
                    0x4               utils_corestrings.o
corestring_lwc_table
                    0x4               utils_corestrings.o
corestring_dom_beforeprint
                    0x4               utils_corestrings.o
corestring_dom___ns_key_html_content_data
                    0x4               utils_corestrings.o
corestring_dom_keyup
                    0x4               utils_corestrings.o
corestring_lwc_html
                    0x4               utils_corestrings.o
corestring_lwc_caption
                    0x4               utils_corestrings.o
corestring_dom_sizes
                    0x4               utils_corestrings.o

Discarded input sections

 .debug_info    0x0000000000000000     0x5069 content_content.o
 .debug_abbrev  0x0000000000000000      0x3b9 content_content.o
 .debug_aranges
                0x0000000000000000       0x20 content_content.o
 .debug_line    0x0000000000000000      0x9f1 content_content.o
 .debug_info    0x0000000000000000     0x2ab8 content_content_factory.o
 .debug_abbrev  0x0000000000000000      0x2a3 content_content_factory.o
 .debug_aranges
                0x0000000000000000       0x20 content_content_factory.o
 .debug_line    0x0000000000000000      0x3c6 content_content_factory.o
 .debug_info    0x0000000000000000      0x5c9 content_dirlist.o
 .debug_abbrev  0x0000000000000000      0x133 content_dirlist.o
 .debug_aranges
                0x0000000000000000       0x20 content_dirlist.o
 .debug_line    0x0000000000000000      0x190 content_dirlist.o
 .debug_info    0x0000000000000000     0x29a8 content_fetch.o
 .debug_abbrev  0x0000000000000000      0x2e6 content_fetch.o
 .debug_aranges
                0x0000000000000000       0x20 content_fetch.o
 .debug_line    0x0000000000000000      0x5ab content_fetch.o
 .debug_info    0x0000000000000000     0x1790 content_fetchers_about.o
 .debug_abbrev  0x0000000000000000      0x2d0 content_fetchers_about.o
 .debug_aranges
                0x0000000000000000       0x20 content_fetchers_about.o
 .debug_line    0x0000000000000000      0x457 content_fetchers_about.o
 .debug_info    0x0000000000000000     0x1008 content_fetchers_data.o
 .debug_abbrev  0x0000000000000000      0x20f content_fetchers_data.o
 .debug_aranges
                0x0000000000000000       0x20 content_fetchers_data.o
 .debug_line    0x0000000000000000      0x337 content_fetchers_data.o
 .drectve       0x0000000000000000       0x24 content_fetchers_file.o
 .debug_info    0x0000000000000000     0x2454 content_fetchers_file.o
 .debug_abbrev  0x0000000000000000      0x354 content_fetchers_file.o
 .debug_aranges
                0x0000000000000000       0x20 content_fetchers_file.o
 .debug_line    0x0000000000000000      0x4f8 content_fetchers_file.o
 .drectve       0x0000000000000000       0x64 content_fetchers_http_kolibri.o
 .debug_info    0x0000000000000000      0xe75 content_fetchers_http_kolibri.o
 .debug_abbrev  0x0000000000000000      0x208 content_fetchers_http_kolibri.o
 .debug_aranges
                0x0000000000000000       0x20 content_fetchers_http_kolibri.o
 .debug_line    0x0000000000000000      0x286 content_fetchers_http_kolibri.o
 .debug_info    0x0000000000000000     0x16fd content_fetchers_resource.o
 .debug_abbrev  0x0000000000000000      0x276 content_fetchers_resource.o
 .debug_aranges
                0x0000000000000000       0x20 content_fetchers_resource.o
 .debug_line    0x0000000000000000      0x424 content_fetchers_resource.o
 .debug_info    0x0000000000000000     0x25ac content_hlcache.o
 .debug_abbrev  0x0000000000000000      0x2bd content_hlcache.o
 .debug_aranges
                0x0000000000000000       0x20 content_hlcache.o
 .debug_line    0x0000000000000000      0x596 content_hlcache.o
 .debug_info    0x0000000000000000     0x3c35 content_llcache.o
 .debug_abbrev  0x0000000000000000      0x2b9 content_llcache.o
 .debug_aranges
                0x0000000000000000       0x20 content_llcache.o
 .debug_line    0x0000000000000000      0xe76 content_llcache.o
 .debug_info    0x0000000000000000     0x1c2f content_mimesniff.o
 .debug_abbrev  0x0000000000000000      0x22b content_mimesniff.o
 .debug_aranges
                0x0000000000000000       0x20 content_mimesniff.o
 .debug_line    0x0000000000000000      0xbaa content_mimesniff.o
 .debug_info    0x0000000000000000      0x773 content_no_backing_store.o
 .debug_abbrev  0x0000000000000000      0x12d content_no_backing_store.o
 .debug_aranges
                0x0000000000000000       0x20 content_no_backing_store.o
 .debug_line    0x0000000000000000      0x191 content_no_backing_store.o
 .debug_info    0x0000000000000000     0x5c96 content_urldb.o
 .debug_abbrev  0x0000000000000000      0x306 content_urldb.o
 .debug_aranges
                0x0000000000000000       0x20 content_urldb.o
 .debug_ranges  0x0000000000000000       0x30 content_urldb.o
 .debug_line    0x0000000000000000     0x1e77 content_urldb.o
 .drectve       0x0000000000000000       0x1c css_css.o
 .debug_info    0x0000000000000000     0x41b0 css_css.o
 .debug_abbrev  0x0000000000000000      0x3a4 css_css.o
 .debug_aranges
                0x0000000000000000       0x20 css_css.o
 .debug_line    0x0000000000000000      0x69d css_css.o
 .debug_info    0x0000000000000000     0x3794 css_dump.o
 .debug_abbrev  0x0000000000000000      0x293 css_dump.o
 .debug_aranges
                0x0000000000000000       0x20 css_dump.o
 .debug_line    0x0000000000000000      0xce5 css_dump.o
 .debug_info    0x0000000000000000      0x66f css_internal.o
 .debug_abbrev  0x0000000000000000      0x104 css_internal.o
 .debug_aranges
                0x0000000000000000       0x20 css_internal.o
 .debug_line    0x0000000000000000      0x22d css_internal.o
 .drectve       0x0000000000000000       0x1c css_select.o
 .debug_info    0x0000000000000000     0x8c0c css_select.o
 .debug_abbrev  0x0000000000000000      0x364 css_select.o
 .debug_aranges
                0x0000000000000000       0x20 css_select.o
 .debug_line    0x0000000000000000     0x12f9 css_select.o
 .debug_info    0x0000000000000000     0x1818 css_utils.o
 .debug_abbrev  0x0000000000000000      0x178 css_utils.o
 .debug_aranges
                0x0000000000000000       0x20 css_utils.o
 .debug_line    0x0000000000000000      0x202 css_utils.o
 .drectve       0x0000000000000000       0x1c desktop_browser.o
 .debug_info    0x0000000000000000     0x8466 desktop_browser.o
 .debug_abbrev  0x0000000000000000      0x416 desktop_browser.o
 .debug_aranges
                0x0000000000000000       0x20 desktop_browser.o
 .debug_ranges  0x0000000000000000       0x30 desktop_browser.o
 .debug_line    0x0000000000000000     0x14a1 desktop_browser.o
 .debug_info    0x0000000000000000     0x27e6 desktop_browser_history.o
 .debug_abbrev  0x0000000000000000      0x256 desktop_browser_history.o
 .debug_aranges
                0x0000000000000000       0x20 desktop_browser_history.o
 .debug_line    0x0000000000000000      0x6d4 desktop_browser_history.o
 .drectve       0x0000000000000000       0x18 desktop_cookie_manager.o
 .debug_info    0x0000000000000000     0x1dde desktop_cookie_manager.o
 .debug_abbrev  0x0000000000000000      0x2af desktop_cookie_manager.o
 .debug_aranges
                0x0000000000000000       0x20 desktop_cookie_manager.o
 .debug_line    0x0000000000000000      0x516 desktop_cookie_manager.o
 .debug_info    0x0000000000000000      0xedd desktop_download.o
 .debug_abbrev  0x0000000000000000      0x21c desktop_download.o
 .debug_aranges
                0x0000000000000000       0x20 desktop_download.o
 .debug_line    0x0000000000000000      0x37c desktop_download.o
 .debug_info    0x0000000000000000      0x13b desktop_font_haru.o
 .debug_abbrev  0x0000000000000000       0x1b desktop_font_haru.o
 .debug_aranges
                0x0000000000000000       0x18 desktop_font_haru.o
 .debug_line    0x0000000000000000       0x1d desktop_font_haru.o
 .drectve       0x0000000000000000       0x1c desktop_frames.o
 .debug_info    0x0000000000000000     0x284e desktop_frames.o
 .debug_abbrev  0x0000000000000000      0x2bc desktop_frames.o
 .debug_aranges
                0x0000000000000000       0x20 desktop_frames.o
 .debug_ranges  0x0000000000000000       0x18 desktop_frames.o
 .debug_line    0x0000000000000000      0x875 desktop_frames.o
 .drectve       0x0000000000000000       0x48 desktop_global_history.o
 .debug_info    0x0000000000000000     0x2e59 desktop_global_history.o
 .debug_abbrev  0x0000000000000000      0x333 desktop_global_history.o
 .debug_aranges
                0x0000000000000000       0x20 desktop_global_history.o
 .debug_line    0x0000000000000000      0x6ba desktop_global_history.o
 .drectve       0x0000000000000000       0x24 desktop_gui_factory.o
 .debug_info    0x0000000000000000     0x30ce desktop_gui_factory.o
 .debug_abbrev  0x0000000000000000      0x2ab desktop_gui_factory.o
 .debug_aranges
                0x0000000000000000       0x20 desktop_gui_factory.o
 .debug_line    0x0000000000000000      0x475 desktop_gui_factory.o
 .drectve       0x0000000000000000       0x30 desktop_hotlist.o
 .debug_info    0x0000000000000000     0x4e55 desktop_hotlist.o
 .debug_abbrev  0x0000000000000000      0x392 desktop_hotlist.o
 .debug_aranges
                0x0000000000000000       0x20 desktop_hotlist.o
 .debug_line    0x0000000000000000      0x942 desktop_hotlist.o
 .debug_info    0x0000000000000000     0x1c53 desktop_knockout.o
 .debug_abbrev  0x0000000000000000      0x225 desktop_knockout.o
 .debug_aranges
                0x0000000000000000       0x20 desktop_knockout.o
 .debug_line    0x0000000000000000      0x489 desktop_knockout.o
 .debug_info    0x0000000000000000      0x360 desktop_mouse.o
 .debug_abbrev  0x0000000000000000       0xa4 desktop_mouse.o
 .debug_aranges
                0x0000000000000000       0x20 desktop_mouse.o
 .debug_line    0x0000000000000000      0x13e desktop_mouse.o
 .drectve       0x0000000000000000       0x1c desktop_netsurf.o
 .debug_info    0x0000000000000000     0x22f7 desktop_netsurf.o
 .debug_abbrev  0x0000000000000000      0x200 desktop_netsurf.o
 .debug_aranges
                0x0000000000000000       0x20 desktop_netsurf.o
 .debug_line    0x0000000000000000      0x3f6 desktop_netsurf.o
 .debug_info    0x0000000000000000      0x9b2 desktop_plot_style.o
 .debug_abbrev  0x0000000000000000       0x8a desktop_plot_style.o
 .debug_aranges
                0x0000000000000000       0x18 desktop_plot_style.o
 .debug_line    0x0000000000000000       0xf4 desktop_plot_style.o
 .drectve       0x0000000000000000       0x1c desktop_print.o
 .debug_info    0x0000000000000000     0x259a desktop_print.o
 .debug_abbrev  0x0000000000000000      0x1f0 desktop_print.o
 .debug_aranges
                0x0000000000000000       0x20 desktop_print.o
 .debug_line    0x0000000000000000      0x3b8 desktop_print.o
 .drectve       0x0000000000000000       0x64 desktop_save_complete.o
 .debug_info    0x0000000000000000     0x53c8 desktop_save_complete.o
 .debug_abbrev  0x0000000000000000      0x3be desktop_save_complete.o
 .debug_aranges
                0x0000000000000000       0x20 desktop_save_complete.o
 .debug_ranges  0x0000000000000000       0x48 desktop_save_complete.o
 .debug_line    0x0000000000000000      0xa83 desktop_save_complete.o
 .debug_info    0x0000000000000000      0x187 desktop_save_pdf.o
 .debug_abbrev  0x0000000000000000       0x56 desktop_save_pdf.o
 .debug_aranges
                0x0000000000000000       0x20 desktop_save_pdf.o
 .debug_line    0x0000000000000000       0x44 desktop_save_pdf.o
 .drectve       0x0000000000000000       0x1c desktop_save_text.o
 .debug_info    0x0000000000000000     0x1fda desktop_save_text.o
 .debug_abbrev  0x0000000000000000      0x2f6 desktop_save_text.o
 .debug_aranges
                0x0000000000000000       0x20 desktop_save_text.o
 .debug_line    0x0000000000000000      0x488 desktop_save_text.o
 .debug_info    0x0000000000000000     0x1548 desktop_scrollbar.o
 .debug_abbrev  0x0000000000000000      0x25a desktop_scrollbar.o
 .debug_aranges
                0x0000000000000000       0x20 desktop_scrollbar.o
 .debug_line    0x0000000000000000      0x681 desktop_scrollbar.o
 .debug_info    0x0000000000000000      0xa6d desktop_search.o
 .debug_abbrev  0x0000000000000000       0xe3 desktop_search.o
 .debug_aranges
                0x0000000000000000       0x20 desktop_search.o
 .debug_line    0x0000000000000000      0x1ed desktop_search.o
 .debug_info    0x0000000000000000     0x32b2 desktop_searchweb.o
 .debug_abbrev  0x0000000000000000      0x2da desktop_searchweb.o
 .debug_aranges
                0x0000000000000000       0x20 desktop_searchweb.o
 .debug_line    0x0000000000000000      0x440 desktop_searchweb.o
 .drectve       0x0000000000000000       0x1c desktop_selection.o
 .debug_info    0x0000000000000000     0x5245 desktop_selection.o
 .debug_abbrev  0x0000000000000000      0x3b4 desktop_selection.o
 .debug_aranges
                0x0000000000000000       0x20 desktop_selection.o
 .debug_line    0x0000000000000000      0x76e desktop_selection.o
 .debug_info    0x0000000000000000     0x18e6 desktop_sslcert_viewer.o
 .debug_abbrev  0x0000000000000000      0x297 desktop_sslcert_viewer.o
 .debug_aranges
                0x0000000000000000       0x20 desktop_sslcert_viewer.o
 .debug_line    0x0000000000000000      0x41b desktop_sslcert_viewer.o
 .debug_info    0x0000000000000000     0x1b16 desktop_system_colour.o
 .debug_abbrev  0x0000000000000000      0x167 desktop_system_colour.o
 .debug_aranges
                0x0000000000000000       0x20 desktop_system_colour.o
 .debug_line    0x0000000000000000      0x2a9 desktop_system_colour.o
 .debug_info    0x0000000000000000     0x3e34 desktop_textarea.o
 .debug_abbrev  0x0000000000000000      0x309 desktop_textarea.o
 .debug_aranges
                0x0000000000000000       0x20 desktop_textarea.o
 .debug_line    0x0000000000000000     0x12d5 desktop_textarea.o
 .drectve       0x0000000000000000       0x1c desktop_textinput.o
 .debug_info    0x0000000000000000     0x206d desktop_textinput.o
 .debug_abbrev  0x0000000000000000      0x21a desktop_textinput.o
 .debug_aranges
                0x0000000000000000       0x20 desktop_textinput.o
 .debug_line    0x0000000000000000      0x32b desktop_textinput.o
 .drectve       0x0000000000000000       0x20 desktop_tree.o
 .debug_info    0x0000000000000000     0x1744 desktop_tree.o
 .debug_abbrev  0x0000000000000000      0x239 desktop_tree.o
 .debug_aranges
                0x0000000000000000       0x20 desktop_tree.o
 .debug_line    0x0000000000000000      0x2b3 desktop_tree.o
 .drectve       0x0000000000000000       0x58 desktop_treeview.o
 .debug_info    0x0000000000000000     0x673c desktop_treeview.o
 .debug_abbrev  0x0000000000000000      0x354 desktop_treeview.o
 .debug_aranges
                0x0000000000000000       0x20 desktop_treeview.o
 .debug_ranges  0x0000000000000000       0x18 desktop_treeview.o
 .debug_line    0x0000000000000000     0x173f desktop_treeview.o
 .debug_info    0x0000000000000000      0x106 desktop_version.o
 .debug_abbrev  0x0000000000000000       0x3c desktop_version.o
 .debug_aranges
                0x0000000000000000       0x18 desktop_version.o
 .debug_line    0x0000000000000000       0x32 desktop_version.o
 .debug_info    0x0000000000000000      0xebb image_image.o
 .debug_abbrev  0x0000000000000000      0x13f image_image.o
 .debug_aranges
                0x0000000000000000       0x20 image_image.o
 .debug_line    0x0000000000000000      0x1f1 image_image.o
 .debug_info    0x0000000000000000     0x37d3 image_image_cache.o
 .debug_abbrev  0x0000000000000000      0x361 image_image_cache.o
 .debug_aranges
                0x0000000000000000       0x20 image_image_cache.o
 .debug_line    0x0000000000000000      0x67d image_image_cache.o
 .debug_info    0x0000000000000000      0xdca javascript_fetcher.o
 .debug_abbrev  0x0000000000000000      0x1f1 javascript_fetcher.o
 .debug_aranges
                0x0000000000000000       0x20 javascript_fetcher.o
 .debug_line    0x0000000000000000      0x26f javascript_fetcher.o
 .debug_info    0x0000000000000000     0x1558 javascript_none_none.o
 .debug_abbrev  0x0000000000000000      0x13f javascript_none_none.o
 .debug_aranges
                0x0000000000000000       0x20 javascript_none_none.o
 .debug_line    0x0000000000000000      0x199 javascript_none_none.o
 .debug_info    0x0000000000000000     0x1534 kolibrios_fb_bitmap.o
 .debug_abbrev  0x0000000000000000      0x22b kolibrios_fb_bitmap.o
 .debug_aranges
                0x0000000000000000       0x20 kolibrios_fb_bitmap.o
 .debug_line    0x0000000000000000      0x31e kolibrios_fb_bitmap.o
 .debug_info    0x0000000000000000      0x727 kolibrios_fb_clipboard.o
 .debug_abbrev  0x0000000000000000      0x158 kolibrios_fb_clipboard.o
 .debug_aranges
                0x0000000000000000       0x20 kolibrios_fb_clipboard.o
 .debug_line    0x0000000000000000      0x1aa kolibrios_fb_clipboard.o
 .debug_info    0x0000000000000000      0xb5d kolibrios_fb_fbtk_bitmap.o
 .debug_abbrev  0x0000000000000000      0x188 kolibrios_fb_fbtk_bitmap.o
 .debug_aranges
                0x0000000000000000       0x20 kolibrios_fb_fbtk_bitmap.o
 .debug_line    0x0000000000000000      0x1d6 kolibrios_fb_fbtk_bitmap.o
 .debug_info    0x0000000000000000     0x1bae kolibrios_fb_fbtk_event.o
 .debug_abbrev  0x0000000000000000      0x1e7 kolibrios_fb_fbtk_event.o
 .debug_aranges
                0x0000000000000000       0x20 kolibrios_fb_fbtk_event.o
 .debug_line    0x0000000000000000      0x2b7 kolibrios_fb_fbtk_event.o
 .debug_info    0x0000000000000000     0x1fd5 kolibrios_fb_fbtk_fbtk.o
 .debug_abbrev  0x0000000000000000      0x2ba kolibrios_fb_fbtk_fbtk.o
 .debug_aranges
                0x0000000000000000       0x20 kolibrios_fb_fbtk_fbtk.o
 .debug_line    0x0000000000000000      0x49d kolibrios_fb_fbtk_fbtk.o
 .debug_info    0x0000000000000000      0xa26 kolibrios_fb_fbtk_fill.o
 .debug_abbrev  0x0000000000000000      0x15b kolibrios_fb_fbtk_fill.o
 .debug_aranges
                0x0000000000000000       0x20 kolibrios_fb_fbtk_fill.o
 .debug_line    0x0000000000000000      0x17e kolibrios_fb_fbtk_fill.o
 .debug_info    0x0000000000000000     0x17cc kolibrios_fb_fbtk_osk.o
 .debug_abbrev  0x0000000000000000      0x19a kolibrios_fb_fbtk_osk.o
 .debug_aranges
                0x0000000000000000       0x20 kolibrios_fb_fbtk_osk.o
 .debug_line    0x0000000000000000      0x21f kolibrios_fb_fbtk_osk.o
 .debug_info    0x0000000000000000     0x1cb2 kolibrios_fb_fbtk_scroll.o
 .debug_abbrev  0x0000000000000000      0x21d kolibrios_fb_fbtk_scroll.o
 .debug_aranges
                0x0000000000000000       0x20 kolibrios_fb_fbtk_scroll.o
 .debug_line    0x0000000000000000      0x391 kolibrios_fb_fbtk_scroll.o
 .debug_info    0x0000000000000000     0x23c1 kolibrios_fb_fbtk_text.o
 .debug_abbrev  0x0000000000000000      0x273 kolibrios_fb_fbtk_text.o
 .debug_aranges
                0x0000000000000000       0x20 kolibrios_fb_fbtk_text.o
 .debug_line    0x0000000000000000      0x3ef kolibrios_fb_fbtk_text.o
 .debug_info    0x0000000000000000      0x9a8 kolibrios_fb_fbtk_user.o
 .debug_abbrev  0x0000000000000000      0x15d kolibrios_fb_fbtk_user.o
 .debug_aranges
                0x0000000000000000       0x20 kolibrios_fb_fbtk_user.o
 .debug_line    0x0000000000000000      0x17d kolibrios_fb_fbtk_user.o
 .debug_info    0x0000000000000000      0xa2d kolibrios_fb_fbtk_window.o
 .debug_abbrev  0x0000000000000000      0x15b kolibrios_fb_fbtk_window.o
 .debug_aranges
                0x0000000000000000       0x20 kolibrios_fb_fbtk_window.o
 .debug_line    0x0000000000000000      0x182 kolibrios_fb_fbtk_window.o
 .drectve       0x0000000000000000       0x24 kolibrios_fb_fetch.o
 .debug_info    0x0000000000000000      0x79b kolibrios_fb_fetch.o
 .debug_abbrev  0x0000000000000000      0x141 kolibrios_fb_fetch.o
 .debug_aranges
                0x0000000000000000       0x20 kolibrios_fb_fetch.o
 .debug_line    0x0000000000000000      0x213 kolibrios_fb_fetch.o
 .drectve       0x0000000000000000       0x1c kolibrios_fb_findfile.o
 .debug_info    0x0000000000000000      0x1e4 kolibrios_fb_findfile.o
 .debug_abbrev  0x0000000000000000       0x7a kolibrios_fb_findfile.o
 .debug_aranges
                0x0000000000000000       0x20 kolibrios_fb_findfile.o
 .debug_line    0x0000000000000000       0x4e kolibrios_fb_findfile.o
 .drectve       0x0000000000000000       0x20 kolibrios_fb_font_freetype.o
 .debug_info    0x0000000000000000     0x31b3 kolibrios_fb_font_freetype.o
 .debug_abbrev  0x0000000000000000      0x28f kolibrios_fb_font_freetype.o
 .debug_aranges
                0x0000000000000000       0x20 kolibrios_fb_font_freetype.o
 .debug_line    0x0000000000000000      0x438 kolibrios_fb_font_freetype.o
 .debug_info    0x0000000000000000     0x14b1 kolibrios_fb_framebuffer.o
 .debug_abbrev  0x0000000000000000      0x1f6 kolibrios_fb_framebuffer.o
 .debug_aranges
                0x0000000000000000       0x20 kolibrios_fb_framebuffer.o
 .debug_line    0x0000000000000000      0x376 kolibrios_fb_framebuffer.o
 .drectve       0x0000000000000000       0x64 kolibrios_fb_gui.o
 .debug_info    0x0000000000000000     0x5fca kolibrios_fb_gui.o
 .debug_abbrev  0x0000000000000000      0x331 kolibrios_fb_gui.o
 .debug_aranges
                0x0000000000000000       0x20 kolibrios_fb_gui.o
 .debug_line    0x0000000000000000      0xc32 kolibrios_fb_gui.o
 .debug_info    0x0000000000000000     0x169f kolibrios_fb_localhistory.o
 .debug_abbrev  0x0000000000000000      0x18a kolibrios_fb_localhistory.o
 .debug_aranges
                0x0000000000000000       0x20 kolibrios_fb_localhistory.o
 .debug_line    0x0000000000000000      0x231 kolibrios_fb_localhistory.o
 .debug_info    0x0000000000000000      0x1dd kolibrios_fb_misc.o
 .debug_abbrev  0x0000000000000000       0x88 kolibrios_fb_misc.o
 .debug_aranges
                0x0000000000000000       0x20 kolibrios_fb_misc.o
 .debug_line    0x0000000000000000       0x5f kolibrios_fb_misc.o
 .debug_info    0x0000000000000000      0x74d kolibrios_fb_schedule.o
 .debug_abbrev  0x0000000000000000      0x188 kolibrios_fb_schedule.o
 .debug_aranges
                0x0000000000000000       0x20 kolibrios_fb_schedule.o
 .debug_line    0x0000000000000000      0x1c0 kolibrios_fb_schedule.o
 .debug_info    0x0000000000000000      0x10e kolibrios_kolibri_debug.o
 .debug_abbrev  0x0000000000000000       0x72 kolibrios_kolibri_debug.o
 .debug_aranges
                0x0000000000000000       0x20 kolibrios_kolibri_debug.o
 .debug_line    0x0000000000000000       0x54 kolibrios_kolibri_debug.o
 .debug_info    0x0000000000000000      0x4d1 kolibrios_kolibri_filesystem.o
 .debug_abbrev  0x0000000000000000       0x92 kolibrios_kolibri_filesystem.o
 .debug_aranges
                0x0000000000000000       0x20 kolibrios_kolibri_filesystem.o
 .debug_line    0x0000000000000000      0x114 kolibrios_kolibri_filesystem.o
 .debug_info    0x0000000000000000       0xef kolibrios_kolibri_http.o
 .debug_abbrev  0x0000000000000000       0x4a kolibrios_kolibri_http.o
 .debug_aranges
                0x0000000000000000       0x20 kolibrios_kolibri_http.o
 .debug_line    0x0000000000000000       0x4b kolibrios_kolibri_http.o
 .debug_info    0x0000000000000000      0x28c kolibrios_kolibri_iconv.o
 .debug_abbrev  0x0000000000000000       0x88 kolibrios_kolibri_iconv.o
 .debug_aranges
                0x0000000000000000       0x20 kolibrios_kolibri_iconv.o
 .debug_line    0x0000000000000000      0x125 kolibrios_kolibri_iconv.o
 .debug_info    0x0000000000000000      0x5f7 kolibrios_kolibri_misc.o
 .debug_abbrev  0x0000000000000000       0xfb kolibrios_kolibri_misc.o
 .debug_aranges
                0x0000000000000000       0x20 kolibrios_kolibri_misc.o
 .debug_line    0x0000000000000000      0x19c kolibrios_kolibri_misc.o
 .debug_info    0x0000000000000000      0x361 kolibrios_kolibri_regex.o
 .debug_abbrev  0x0000000000000000       0xa4 kolibrios_kolibri_regex.o
 .debug_aranges
                0x0000000000000000       0x20 kolibrios_kolibri_regex.o
 .debug_line    0x0000000000000000      0x132 kolibrios_kolibri_regex.o
 .drectve       0x0000000000000000       0xb0 kolibrios_main.o
 .debug_info    0x0000000000000000     0x3d0d kolibrios_main.o
 .debug_abbrev  0x0000000000000000      0x2f7 kolibrios_main.o
 .debug_aranges
                0x0000000000000000       0x20 kolibrios_main.o
 .debug_line    0x0000000000000000      0x4eb kolibrios_main.o
 .drectve       0x0000000000000000       0x1c render_box.o
 .debug_info    0x0000000000000000     0x5ee0 render_box.o
 .debug_abbrev  0x0000000000000000      0x447 render_box.o
 .debug_aranges
                0x0000000000000000       0x20 render_box.o
 .debug_line    0x0000000000000000      0xbcc render_box.o
 .drectve       0x0000000000000000       0x1c render_box_construct.o
 .debug_info    0x0000000000000000     0xa245 render_box_construct.o
 .debug_abbrev  0x0000000000000000      0x438 render_box_construct.o
 .debug_aranges
                0x0000000000000000       0x20 render_box_construct.o
 .debug_line    0x0000000000000000     0x13d3 render_box_construct.o
 .drectve       0x0000000000000000       0x1c render_box_normalise.o
 .debug_info    0x0000000000000000     0x44f1 render_box_normalise.o
 .debug_abbrev  0x0000000000000000      0x339 render_box_normalise.o
 .debug_aranges
                0x0000000000000000       0x20 render_box_normalise.o
 .debug_line    0x0000000000000000      0x8ac render_box_normalise.o
 .drectve       0x0000000000000000       0x1c render_box_textarea.o
 .debug_info    0x0000000000000000     0x4c8f render_box_textarea.o
 .debug_abbrev  0x0000000000000000      0x30e render_box_textarea.o
 .debug_aranges
                0x0000000000000000       0x20 render_box_textarea.o
 .debug_line    0x0000000000000000      0x5f8 render_box_textarea.o
 .debug_info    0x0000000000000000     0x18cd render_font.o
 .debug_abbrev  0x0000000000000000      0x13d render_font.o
 .debug_aranges
                0x0000000000000000       0x20 render_font.o
 .debug_line    0x0000000000000000      0x26c render_font.o
 .drectve       0x0000000000000000       0x1c render_form.o
 .debug_info    0x0000000000000000     0x74f3 render_form.o
 .debug_abbrev  0x0000000000000000      0x470 render_form.o
 .debug_aranges
                0x0000000000000000       0x20 render_form.o
 .debug_line    0x0000000000000000     0x1110 render_form.o
 .drectve       0x0000000000000000       0x1c render_html.o
 .debug_info    0x0000000000000000     0x9f40 render_html.o
 .debug_abbrev  0x0000000000000000      0x494 render_html.o
 .debug_aranges
                0x0000000000000000       0x20 render_html.o
 .debug_line    0x0000000000000000     0x1108 render_html.o
 .drectve       0x0000000000000000       0x1c render_html_css.o
 .debug_info    0x0000000000000000     0x6c28 render_html_css.o
 .debug_abbrev  0x0000000000000000      0x3c8 render_html_css.o
 .debug_aranges
                0x0000000000000000       0x20 render_html_css.o
 .debug_line    0x0000000000000000      0x86d render_html_css.o
 .drectve       0x0000000000000000       0x1c render_html_css_fetcher.o
 .debug_info    0x0000000000000000     0x19a4 render_html_css_fetcher.o
 .debug_abbrev  0x0000000000000000      0x265 render_html_css_fetcher.o
 .debug_aranges
                0x0000000000000000       0x20 render_html_css_fetcher.o
 .debug_line    0x0000000000000000      0x473 render_html_css_fetcher.o
 .drectve       0x0000000000000000       0x1c render_html_forms.o
 .debug_info    0x0000000000000000     0x60c6 render_html_forms.o
 .debug_abbrev  0x0000000000000000      0x385 render_html_forms.o
 .debug_aranges
                0x0000000000000000       0x20 render_html_forms.o
 .debug_line    0x0000000000000000      0x7f7 render_html_forms.o
 .drectve       0x0000000000000000       0x1c render_html_interaction.o
 .debug_info    0x0000000000000000     0x7578 render_html_interaction.o
 .debug_abbrev  0x0000000000000000      0x3c3 render_html_interaction.o
 .debug_aranges
                0x0000000000000000       0x20 render_html_interaction.o
 .debug_line    0x0000000000000000      0xb32 render_html_interaction.o
 .drectve       0x0000000000000000       0x1c render_html_object.o
 .debug_info    0x0000000000000000     0x5bdc render_html_object.o
 .debug_abbrev  0x0000000000000000      0x3b0 render_html_object.o
 .debug_aranges
                0x0000000000000000       0x20 render_html_object.o
 .debug_line    0x0000000000000000      0x7bf render_html_object.o
 .drectve       0x0000000000000000       0x1c render_html_redraw.o
 .debug_info    0x0000000000000000     0x7bb0 render_html_redraw.o
 .debug_abbrev  0x0000000000000000      0x366 render_html_redraw.o
 .debug_aranges
                0x0000000000000000       0x20 render_html_redraw.o
 .debug_line    0x0000000000000000     0x14bc render_html_redraw.o
 .drectve       0x0000000000000000       0x1c render_html_script.o
 .debug_info    0x0000000000000000     0x53e9 render_html_script.o
 .debug_abbrev  0x0000000000000000      0x3b4 render_html_script.o
 .debug_aranges
                0x0000000000000000       0x20 render_html_script.o
 .debug_line    0x0000000000000000      0x7ca render_html_script.o
 .drectve       0x0000000000000000       0x1c render_imagemap.o
 .debug_info    0x0000000000000000     0x64fa render_imagemap.o
 .debug_abbrev  0x0000000000000000      0x40f render_imagemap.o
 .debug_aranges
                0x0000000000000000       0x20 render_imagemap.o
 .debug_line    0x0000000000000000      0x8c3 render_imagemap.o
 .drectve       0x0000000000000000       0x1c render_layout.o
 .debug_info    0x0000000000000000     0x8972 render_layout.o
 .debug_abbrev  0x0000000000000000      0x40b render_layout.o
 .debug_aranges
                0x0000000000000000       0x20 render_layout.o
 .debug_line    0x0000000000000000     0x2324 render_layout.o
 .drectve       0x0000000000000000       0x1c render_search.o
 .debug_info    0x0000000000000000     0x4642 render_search.o
 .debug_abbrev  0x0000000000000000      0x3aa render_search.o
 .debug_aranges
                0x0000000000000000       0x20 render_search.o
 .debug_ranges  0x0000000000000000       0x18 render_search.o
 .debug_line    0x0000000000000000      0x736 render_search.o
 .drectve       0x0000000000000000       0x1c render_table.o
 .debug_info    0x0000000000000000     0x1812 render_table.o
 .debug_abbrev  0x0000000000000000      0x25d render_table.o
 .debug_aranges
                0x0000000000000000       0x20 render_table.o
 .debug_line    0x0000000000000000      0x732 render_table.o
 .drectve       0x0000000000000000       0x1c render_textplain.o
 .debug_info    0x0000000000000000     0x61b9 render_textplain.o
 .debug_abbrev  0x0000000000000000      0x401 render_textplain.o
 .debug_aranges
                0x0000000000000000       0x20 render_textplain.o
 .debug_line    0x0000000000000000      0xadc render_textplain.o
 .debug_info    0x0000000000000000      0x3bf utils_base64.o
 .debug_abbrev  0x0000000000000000      0x123 utils_base64.o
 .debug_aranges
                0x0000000000000000       0x20 utils_base64.o
 .debug_line    0x0000000000000000      0x18c utils_base64.o
 .debug_info    0x0000000000000000      0x458 utils_bloom.o
 .debug_abbrev  0x0000000000000000      0x137 utils_bloom.o
 .debug_aranges
                0x0000000000000000       0x20 utils_bloom.o
 .debug_line    0x0000000000000000      0x164 utils_bloom.o
 .drectve       0x0000000000000000     0x256c utils_corestrings.o
 .debug_info    0x0000000000000000     0x3746 utils_corestrings.o
 .debug_abbrev  0x0000000000000000      0x181 utils_corestrings.o
 .debug_aranges
                0x0000000000000000       0x20 utils_corestrings.o
 .debug_line    0x0000000000000000     0x2050 utils_corestrings.o
 .debug_info    0x0000000000000000      0xf93 utils_file.o
 .debug_abbrev  0x0000000000000000      0x18f utils_file.o
 .debug_aranges
                0x0000000000000000       0x20 utils_file.o
 .debug_line    0x0000000000000000      0x312 utils_file.o
 .debug_info    0x0000000000000000      0x95d utils_filename.o
 .debug_abbrev  0x0000000000000000      0x1d4 utils_filename.o
 .debug_aranges
                0x0000000000000000       0x20 utils_filename.o
 .debug_line    0x0000000000000000      0x381 utils_filename.o
 .debug_info    0x0000000000000000      0x880 utils_filepath.o
 .debug_abbrev  0x0000000000000000      0x163 utils_filepath.o
 .debug_aranges
                0x0000000000000000       0x20 utils_filepath.o
 .debug_line    0x0000000000000000      0x22d utils_filepath.o
 .debug_info    0x0000000000000000      0x426 utils_hashtable.o
 .debug_abbrev  0x0000000000000000      0x112 utils_hashtable.o
 .debug_aranges
                0x0000000000000000       0x20 utils_hashtable.o
 .debug_line    0x0000000000000000      0x100 utils_hashtable.o
 .debug_info    0x0000000000000000      0x807 utils_http_challenge.o
 .debug_abbrev  0x0000000000000000      0x17a utils_http_challenge.o
 .debug_aranges
                0x0000000000000000       0x20 utils_http_challenge.o
 .debug_line    0x0000000000000000      0x294 utils_http_challenge.o
 .debug_info    0x0000000000000000      0x6f5 utils_http_content-disposition.o
 .debug_abbrev  0x0000000000000000      0x146 utils_http_content-disposition.o
 .debug_aranges
                0x0000000000000000       0x20 utils_http_content-disposition.o
 .debug_line    0x0000000000000000      0x245 utils_http_content-disposition.o
 .debug_info    0x0000000000000000      0x833 utils_http_content-type.o
 .debug_abbrev  0x0000000000000000      0x155 utils_http_content-type.o
 .debug_aranges
                0x0000000000000000       0x20 utils_http_content-type.o
 .debug_line    0x0000000000000000      0x35c utils_http_content-type.o
 .debug_info    0x0000000000000000      0x52d utils_http_generics.o
 .debug_abbrev  0x0000000000000000       0xf3 utils_http_generics.o
 .debug_aranges
                0x0000000000000000       0x20 utils_http_generics.o
 .debug_line    0x0000000000000000       0xaa utils_http_generics.o
 .debug_info    0x0000000000000000      0x93c utils_http_parameter.o
 .debug_abbrev  0x0000000000000000      0x175 utils_http_parameter.o
 .debug_aranges
                0x0000000000000000       0x20 utils_http_parameter.o
 .debug_line    0x0000000000000000      0x2dd utils_http_parameter.o
 .debug_info    0x0000000000000000      0x675 utils_http_primitives.o
 .debug_abbrev  0x0000000000000000      0x107 utils_http_primitives.o
 .debug_aranges
                0x0000000000000000       0x20 utils_http_primitives.o
 .debug_line    0x0000000000000000      0x201 utils_http_primitives.o
 .debug_info    0x0000000000000000      0x550 utils_http_www-authenticate.o
 .debug_abbrev  0x0000000000000000       0xf3 utils_http_www-authenticate.o
 .debug_aranges
                0x0000000000000000       0x20 utils_http_www-authenticate.o
 .debug_line    0x0000000000000000       0xc4 utils_http_www-authenticate.o
 .debug_info    0x0000000000000000     0x116f utils_idna.o
 .debug_abbrev  0x0000000000000000      0x23f utils_idna.o
 .debug_aranges
                0x0000000000000000       0x20 utils_idna.o
 .debug_line    0x0000000000000000      0x486 utils_idna.o
 .drectve       0x0000000000000000       0x1c utils_libdom.o
 .debug_info    0x0000000000000000     0x31bf utils_libdom.o
 .debug_abbrev  0x0000000000000000      0x375 utils_libdom.o
 .debug_aranges
                0x0000000000000000       0x20 utils_libdom.o
 .debug_line    0x0000000000000000      0x5da utils_libdom.o
 .debug_info    0x0000000000000000      0x3e3 utils_locale.o
 .debug_abbrev  0x0000000000000000       0x83 utils_locale.o
 .debug_aranges
                0x0000000000000000       0x20 utils_locale.o
 .debug_line    0x0000000000000000       0xda utils_locale.o
 .debug_info    0x0000000000000000     0x11f4 utils_log.o
 .debug_abbrev  0x0000000000000000      0x2a1 utils_log.o
 .debug_aranges
                0x0000000000000000       0x20 utils_log.o
 .debug_ranges  0x0000000000000000       0x18 utils_log.o
 .debug_line    0x0000000000000000      0x2ab utils_log.o
 .debug_info    0x0000000000000000      0xab3 utils_messages.o
 .debug_abbrev  0x0000000000000000      0x1a6 utils_messages.o
 .debug_aranges
                0x0000000000000000       0x20 utils_messages.o
 .debug_line    0x0000000000000000      0x33b utils_messages.o
 .debug_info    0x0000000000000000     0x2607 utils_nsoption.o
 .debug_abbrev  0x0000000000000000      0x2ac utils_nsoption.o
 .debug_aranges
                0x0000000000000000       0x20 utils_nsoption.o
 .debug_line    0x0000000000000000      0x504 utils_nsoption.o
 .debug_info    0x0000000000000000     0x24a9 utils_nsurl.o
 .debug_abbrev  0x0000000000000000      0x21f utils_nsurl.o
 .debug_aranges
                0x0000000000000000       0x20 utils_nsurl.o
 .debug_line    0x0000000000000000     0x1403 utils_nsurl.o
 .debug_info    0x0000000000000000      0x5d2 utils_punycode.o
 .debug_abbrev  0x0000000000000000       0xd3 utils_punycode.o
 .debug_aranges
                0x0000000000000000       0x20 utils_punycode.o
 .debug_line    0x0000000000000000      0x32b utils_punycode.o
 .debug_info    0x0000000000000000     0x2470 utils_talloc.o
 .debug_abbrev  0x0000000000000000      0x2e7 utils_talloc.o
 .debug_aranges
                0x0000000000000000       0x20 utils_talloc.o
 .debug_line    0x0000000000000000      0x671 utils_talloc.o
 .debug_info    0x0000000000000000      0x524 utils_url.o
 .debug_abbrev  0x0000000000000000       0xce utils_url.o
 .debug_aranges
                0x0000000000000000       0x20 utils_url.o
 .debug_line    0x0000000000000000      0x119 utils_url.o
 .debug_info    0x0000000000000000      0x308 utils_useragent.o
 .debug_abbrev  0x0000000000000000       0xcd utils_useragent.o
 .debug_aranges
                0x0000000000000000       0x20 utils_useragent.o
 .debug_line    0x0000000000000000       0x94 utils_useragent.o
 .debug_info    0x0000000000000000     0x19b5 utils_utf8.o
 .debug_abbrev  0x0000000000000000      0x2e3 utils_utf8.o
 .debug_aranges
                0x0000000000000000       0x20 utils_utf8.o
 .debug_line    0x0000000000000000      0x403 utils_utf8.o
 .debug_info    0x0000000000000000     0x10dc utils_utils.o
 .debug_abbrev  0x0000000000000000      0x199 utils_utils.o
 .debug_aranges
                0x0000000000000000       0x20 utils_utils.o
 .debug_line    0x0000000000000000      0x3f3 utils_utils.o
 .drectve       0x0000000000000000       0x1c /home/bob/ofiles/libcss-parse-font_face.o
 .drectve       0x0000000000000000       0x1c /home/bob/ofiles/libcss-parse-important.o
 .drectve       0x0000000000000000       0x1c /home/bob/ofiles/libcss-parse-language.o
 .drectve       0x0000000000000000       0x1c /home/bob/ofiles/libcss-parse-properties-autogenerated_background_attachment.o
 .drectve       0x0000000000000000       0x1c /home/bob/ofiles/libcss-parse-properties-autogenerated_background_color.o
 .drectve       0x0000000000000000       0x1c /home/bob/ofiles/libcss-parse-properties-autogenerated_background_image.o
 .drectve       0x0000000000000000       0x1c /home/bob/ofiles/libcss-parse-properties-autogenerated_background_repeat.o
 .drectve       0x0000000000000000       0x1c /home/bob/ofiles/libcss-parse-properties-autogenerated_border_bottom.o
 .drectve       0x0000000000000000       0x1c /home/bob/ofiles/libcss-parse-properties-autogenerated_border_bottom_color.o
 .drectve       0x0000000000000000       0x1c /home/bob/ofiles/libcss-parse-properties-autogenerated_border_bottom_style.o
 .drectve       0x0000000000000000       0x1c /home/bob/ofiles/libcss-parse-properties-autogenerated_border_bottom_width.o
 .drectve       0x0000000000000000       0x1c /home/bob/ofiles/libcss-parse-properties-autogenerated_border_collapse.o
 .drectve       0x0000000000000000       0x1c /home/bob/ofiles/libcss-parse-properties-autogenerated_border_left.o
 .drectve       0x0000000000000000       0x1c /home/bob/ofiles/libcss-parse-properties-autogenerated_border_left_color.o
 .drectve       0x0000000000000000       0x1c /home/bob/ofiles/libcss-parse-properties-autogenerated_border_left_style.o
 .drectve       0x0000000000000000       0x1c /home/bob/ofiles/libcss-parse-properties-autogenerated_border_left_width.o
 .drectve       0x0000000000000000       0x1c /home/bob/ofiles/libcss-parse-properties-autogenerated_border_right.o
 .drectve       0x0000000000000000       0x1c /home/bob/ofiles/libcss-parse-properties-autogenerated_border_right_color.o
 .drectve       0x0000000000000000       0x1c /home/bob/ofiles/libcss-parse-properties-autogenerated_border_right_style.o
 .drectve       0x0000000000000000       0x1c /home/bob/ofiles/libcss-parse-properties-autogenerated_border_right_width.o
 .drectve       0x0000000000000000       0x1c /home/bob/ofiles/libcss-parse-properties-autogenerated_border_side_color.o
 .drectve       0x0000000000000000       0x1c /home/bob/ofiles/libcss-parse-properties-autogenerated_border_side_style.o
 .drectve       0x0000000000000000       0x1c /home/bob/ofiles/libcss-parse-properties-autogenerated_border_side_width.o
 .drectve       0x0000000000000000       0x1c /home/bob/ofiles/libcss-parse-properties-autogenerated_border_top.o
 .drectve       0x0000000000000000       0x1c /home/bob/ofiles/libcss-parse-properties-autogenerated_border_top_color.o
 .drectve       0x0000000000000000       0x1c /home/bob/ofiles/libcss-parse-properties-autogenerated_border_top_style.o
 .drectve       0x0000000000000000       0x1c /home/bob/ofiles/libcss-parse-properties-autogenerated_border_top_width.o
 .drectve       0x0000000000000000       0x1c /home/bob/ofiles/libcss-parse-properties-autogenerated_bottom.o
 .drectve       0x0000000000000000       0x1c /home/bob/ofiles/libcss-parse-properties-autogenerated_break_after.o
 .drectve       0x0000000000000000       0x1c /home/bob/ofiles/libcss-parse-properties-autogenerated_break_before.o
 .drectve       0x0000000000000000       0x1c /home/bob/ofiles/libcss-parse-properties-autogenerated_break_inside.o
 .drectve       0x0000000000000000       0x1c /home/bob/ofiles/libcss-parse-properties-autogenerated_caption_side.o
 .drectve       0x0000000000000000       0x1c /home/bob/ofiles/libcss-parse-properties-autogenerated_clear.o
 .drectve       0x0000000000000000       0x1c /home/bob/ofiles/libcss-parse-properties-autogenerated_color.o
 .drectve       0x0000000000000000       0x1c /home/bob/ofiles/libcss-parse-properties-autogenerated_column_count.o
 .drectve       0x0000000000000000       0x1c /home/bob/ofiles/libcss-parse-properties-autogenerated_column_fill.o
 .drectve       0x0000000000000000       0x1c /home/bob/ofiles/libcss-parse-properties-autogenerated_column_gap.o
 .drectve       0x0000000000000000       0x1c /home/bob/ofiles/libcss-parse-properties-autogenerated_column_rule_color.o
 .drectve       0x0000000000000000       0x1c /home/bob/ofiles/libcss-parse-properties-autogenerated_column_rule_style.o
 .drectve       0x0000000000000000       0x1c /home/bob/ofiles/libcss-parse-properties-autogenerated_column_rule_width.o
 .drectve       0x0000000000000000       0x1c /home/bob/ofiles/libcss-parse-properties-autogenerated_column_span.o
 .drectve       0x0000000000000000       0x1c /home/bob/ofiles/libcss-parse-properties-autogenerated_column_width.o
 .drectve       0x0000000000000000       0x1c /home/bob/ofiles/libcss-parse-properties-autogenerated_counter_increment.o
 .drectve       0x0000000000000000       0x1c /home/bob/ofiles/libcss-parse-properties-autogenerated_counter_reset.o
 .drectve       0x0000000000000000       0x1c /home/bob/ofiles/libcss-parse-properties-autogenerated_cue_after.o
 .drectve       0x0000000000000000       0x1c /home/bob/ofiles/libcss-parse-properties-autogenerated_cue_before.o
 .drectve       0x0000000000000000       0x1c /home/bob/ofiles/libcss-parse-properties-autogenerated_direction.o
 .drectve       0x0000000000000000       0x1c /home/bob/ofiles/libcss-parse-properties-autogenerated_display.o
 .drectve       0x0000000000000000       0x1c /home/bob/ofiles/libcss-parse-properties-autogenerated_empty_cells.o
 .drectve       0x0000000000000000       0x1c /home/bob/ofiles/libcss-parse-properties-autogenerated_float.o
 .drectve       0x0000000000000000       0x1c /home/bob/ofiles/libcss-parse-properties-autogenerated_font_size.o
 .drectve       0x0000000000000000       0x1c /home/bob/ofiles/libcss-parse-properties-autogenerated_font_style.o
 .drectve       0x0000000000000000       0x1c /home/bob/ofiles/libcss-parse-properties-autogenerated_font_variant.o
 .drectve       0x0000000000000000       0x1c /home/bob/ofiles/libcss-parse-properties-autogenerated_height.o
 .drectve       0x0000000000000000       0x1c /home/bob/ofiles/libcss-parse-properties-autogenerated_left.o
 .drectve       0x0000000000000000       0x1c /home/bob/ofiles/libcss-parse-properties-autogenerated_letter_spacing.o
 .drectve       0x0000000000000000       0x1c /home/bob/ofiles/libcss-parse-properties-autogenerated_line_height.o
 .drectve       0x0000000000000000       0x1c /home/bob/ofiles/libcss-parse-properties-autogenerated_list_style_image.o
 .drectve       0x0000000000000000       0x1c /home/bob/ofiles/libcss-parse-properties-autogenerated_list_style_position.o
 .drectve       0x0000000000000000       0x1c /home/bob/ofiles/libcss-parse-properties-autogenerated_margin_bottom.o
 .drectve       0x0000000000000000       0x1c /home/bob/ofiles/libcss-parse-properties-autogenerated_margin_left.o
 .drectve       0x0000000000000000       0x1c /home/bob/ofiles/libcss-parse-properties-autogenerated_margin_right.o
 .drectve       0x0000000000000000       0x1c /home/bob/ofiles/libcss-parse-properties-autogenerated_margin_side.o
 .drectve       0x0000000000000000       0x1c /home/bob/ofiles/libcss-parse-properties-autogenerated_margin_top.o
 .drectve       0x0000000000000000       0x1c /home/bob/ofiles/libcss-parse-properties-autogenerated_max_height.o
 .drectve       0x0000000000000000       0x1c /home/bob/ofiles/libcss-parse-properties-autogenerated_max_width.o
 .drectve       0x0000000000000000       0x1c /home/bob/ofiles/libcss-parse-properties-autogenerated_min_height.o
 .drectve       0x0000000000000000       0x1c /home/bob/ofiles/libcss-parse-properties-autogenerated_min_width.o
 .drectve       0x0000000000000000       0x1c /home/bob/ofiles/libcss-parse-properties-autogenerated_orphans.o
 .drectve       0x0000000000000000       0x1c /home/bob/ofiles/libcss-parse-properties-autogenerated_outline_color.o
 .drectve       0x0000000000000000       0x1c /home/bob/ofiles/libcss-parse-properties-autogenerated_outline_style.o
 .drectve       0x0000000000000000       0x1c /home/bob/ofiles/libcss-parse-properties-autogenerated_outline_width.o
 .drectve       0x0000000000000000       0x1c /home/bob/ofiles/libcss-parse-properties-autogenerated_overflow_x.o
 .drectve       0x0000000000000000       0x1c /home/bob/ofiles/libcss-parse-properties-autogenerated_overflow_y.o
 .drectve       0x0000000000000000       0x1c /home/bob/ofiles/libcss-parse-properties-autogenerated_padding_bottom.o
 .drectve       0x0000000000000000       0x1c /home/bob/ofiles/libcss-parse-properties-autogenerated_padding_left.o
 .drectve       0x0000000000000000       0x1c /home/bob/ofiles/libcss-parse-properties-autogenerated_padding_right.o
 .drectve       0x0000000000000000       0x1c /home/bob/ofiles/libcss-parse-properties-autogenerated_padding_side.o
 .drectve       0x0000000000000000       0x1c /home/bob/ofiles/libcss-parse-properties-autogenerated_padding_top.o
 .drectve       0x0000000000000000       0x1c /home/bob/ofiles/libcss-parse-properties-autogenerated_page_break_after.o
 .drectve       0x0000000000000000       0x1c /home/bob/ofiles/libcss-parse-properties-autogenerated_page_break_before.o
 .drectve       0x0000000000000000       0x1c /home/bob/ofiles/libcss-parse-properties-autogenerated_page_break_inside.o
 .drectve       0x0000000000000000       0x1c /home/bob/ofiles/libcss-parse-properties-autogenerated_pause_after.o
 .drectve       0x0000000000000000       0x1c /home/bob/ofiles/libcss-parse-properties-autogenerated_pause_before.o
 .drectve       0x0000000000000000       0x1c /home/bob/ofiles/libcss-parse-properties-autogenerated_pitch.o
 .drectve       0x0000000000000000       0x1c /home/bob/ofiles/libcss-parse-properties-autogenerated_pitch_range.o
 .drectve       0x0000000000000000       0x1c /home/bob/ofiles/libcss-parse-properties-autogenerated_position.o
 .drectve       0x0000000000000000       0x1c /home/bob/ofiles/libcss-parse-properties-autogenerated_richness.o
 .drectve       0x0000000000000000       0x1c /home/bob/ofiles/libcss-parse-properties-autogenerated_right.o
 .drectve       0x0000000000000000       0x1c /home/bob/ofiles/libcss-parse-properties-autogenerated_side.o
 .drectve       0x0000000000000000       0x1c /home/bob/ofiles/libcss-parse-properties-autogenerated_speak.o
 .drectve       0x0000000000000000       0x1c /home/bob/ofiles/libcss-parse-properties-autogenerated_speak_header.o
 .drectve       0x0000000000000000       0x1c /home/bob/ofiles/libcss-parse-properties-autogenerated_speak_numeral.o
 .drectve       0x0000000000000000       0x1c /home/bob/ofiles/libcss-parse-properties-autogenerated_speak_punctuation.o
 .drectve       0x0000000000000000       0x1c /home/bob/ofiles/libcss-parse-properties-autogenerated_speech_rate.o
 .drectve       0x0000000000000000       0x1c /home/bob/ofiles/libcss-parse-properties-autogenerated_stress.o
 .drectve       0x0000000000000000       0x1c /home/bob/ofiles/libcss-parse-properties-autogenerated_table_layout.o
 .drectve       0x0000000000000000       0x1c /home/bob/ofiles/libcss-parse-properties-autogenerated_text_align.o
 .drectve       0x0000000000000000       0x1c /home/bob/ofiles/libcss-parse-properties-autogenerated_text_indent.o
 .drectve       0x0000000000000000       0x1c /home/bob/ofiles/libcss-parse-properties-autogenerated_text_transform.o
 .drectve       0x0000000000000000       0x1c /home/bob/ofiles/libcss-parse-properties-autogenerated_top.o
 .drectve       0x0000000000000000       0x1c /home/bob/ofiles/libcss-parse-properties-autogenerated_unicode_bidi.o
 .drectve       0x0000000000000000       0x1c /home/bob/ofiles/libcss-parse-properties-autogenerated_vertical_align.o
 .drectve       0x0000000000000000       0x1c /home/bob/ofiles/libcss-parse-properties-autogenerated_visibility.o
 .drectve       0x0000000000000000       0x1c /home/bob/ofiles/libcss-parse-properties-autogenerated_volume.o
 .drectve       0x0000000000000000       0x1c /home/bob/ofiles/libcss-parse-properties-autogenerated_white_space.o
 .drectve       0x0000000000000000       0x1c /home/bob/ofiles/libcss-parse-properties-autogenerated_widows.o
 .drectve       0x0000000000000000       0x1c /home/bob/ofiles/libcss-parse-properties-autogenerated_width.o
 .drectve       0x0000000000000000       0x1c /home/bob/ofiles/libcss-parse-properties-autogenerated_word_spacing.o
 .drectve       0x0000000000000000       0x1c /home/bob/ofiles/libcss-parse-properties-autogenerated_writing_mode.o
 .drectve       0x0000000000000000       0x1c /home/bob/ofiles/libcss-parse-properties-autogenerated_z_index.o
 .drectve       0x0000000000000000       0x1c /home/bob/ofiles/libcss-parse-properties-azimuth.o
 .drectve       0x0000000000000000       0x1c /home/bob/ofiles/libcss-parse-properties-background.o
 .drectve       0x0000000000000000       0x1c /home/bob/ofiles/libcss-parse-properties-background_position.o
 .drectve       0x0000000000000000       0x1c /home/bob/ofiles/libcss-parse-properties-border.o
 .drectve       0x0000000000000000       0x1c /home/bob/ofiles/libcss-parse-properties-border_color.o
 .drectve       0x0000000000000000       0x1c /home/bob/ofiles/libcss-parse-properties-border_spacing.o
 .drectve       0x0000000000000000       0x1c /home/bob/ofiles/libcss-parse-properties-border_style.o
 .drectve       0x0000000000000000       0x1c /home/bob/ofiles/libcss-parse-properties-border_width.o
 .drectve       0x0000000000000000       0x1c /home/bob/ofiles/libcss-parse-properties-clip.o
 .drectve       0x0000000000000000       0x1c /home/bob/ofiles/libcss-parse-properties-column_rule.o
 .drectve       0x0000000000000000       0x1c /home/bob/ofiles/libcss-parse-properties-columns.o
 .drectve       0x0000000000000000       0x1c /home/bob/ofiles/libcss-parse-properties-content.o
 .drectve       0x0000000000000000       0x1c /home/bob/ofiles/libcss-parse-properties-cue.o
 .drectve       0x0000000000000000       0x1c /home/bob/ofiles/libcss-parse-properties-cursor.o
 .drectve       0x0000000000000000       0x1c /home/bob/ofiles/libcss-parse-properties-elevation.o
 .drectve       0x0000000000000000       0x1c /home/bob/ofiles/libcss-parse-properties-font.o
 .drectve       0x0000000000000000       0x1c /home/bob/ofiles/libcss-parse-properties-font_family.o
 .drectve       0x0000000000000000       0x1c /home/bob/ofiles/libcss-parse-properties-font_weight.o
 .drectve       0x0000000000000000       0x1c /home/bob/ofiles/libcss-parse-properties-list_style.o
 .drectve       0x0000000000000000       0x1c /home/bob/ofiles/libcss-parse-properties-list_style_type.o
 .drectve       0x0000000000000000       0x1c /home/bob/ofiles/libcss-parse-properties-margin.o
 .drectve       0x0000000000000000       0x1c /home/bob/ofiles/libcss-parse-properties-opacity.o
 .drectve       0x0000000000000000       0x1c /home/bob/ofiles/libcss-parse-properties-outline.o
 .drectve       0x0000000000000000       0x1c /home/bob/ofiles/libcss-parse-properties-overflow.o
 .drectve       0x0000000000000000       0x1c /home/bob/ofiles/libcss-parse-properties-padding.o
 .drectve       0x0000000000000000       0x1c /home/bob/ofiles/libcss-parse-properties-pause.o
 .drectve       0x0000000000000000       0x1c /home/bob/ofiles/libcss-parse-properties-play_during.o
 .drectve       0x0000000000000000       0x1c /home/bob/ofiles/libcss-parse-properties-properties.o
 .drectve       0x0000000000000000       0x1c /home/bob/ofiles/libcss-parse-properties-quotes.o
 .drectve       0x0000000000000000       0x1c /home/bob/ofiles/libcss-parse-properties-text_decoration.o
 .drectve       0x0000000000000000       0x1c /home/bob/ofiles/libcss-parse-properties-utils.o
 .drectve       0x0000000000000000       0x1c /home/bob/ofiles/libcss-parse-properties-voice_family.o
 .drectve       0x0000000000000000       0x1c /home/bob/ofiles/libcss-parse-propstrings.o
 .drectve       0x0000000000000000       0x1c /home/bob/ofiles/libcss-select-computed.o
 .drectve       0x0000000000000000       0x1c /home/bob/ofiles/libcss-select-dispatch.o
 .drectve       0x0000000000000000       0x1c /home/bob/ofiles/libcss-select-hash.o
 .drectve       0x0000000000000000       0x1c /home/bob/ofiles/libcss-select-properties-azimuth.o
 .drectve       0x0000000000000000       0x1c /home/bob/ofiles/libcss-select-properties-background_attachment.o
 .drectve       0x0000000000000000       0x1c /home/bob/ofiles/libcss-select-properties-background_color.o
 .drectve       0x0000000000000000       0x1c /home/bob/ofiles/libcss-select-properties-background_image.o
 .drectve       0x0000000000000000       0x1c /home/bob/ofiles/libcss-select-properties-background_position.o
 .drectve       0x0000000000000000       0x1c /home/bob/ofiles/libcss-select-properties-background_repeat.o
 .drectve       0x0000000000000000       0x1c /home/bob/ofiles/libcss-select-properties-border_bottom_color.o
 .drectve       0x0000000000000000       0x1c /home/bob/ofiles/libcss-select-properties-border_bottom_style.o
 .drectve       0x0000000000000000       0x1c /home/bob/ofiles/libcss-select-properties-border_bottom_width.o
 .drectve       0x0000000000000000       0x1c /home/bob/ofiles/libcss-select-properties-border_collapse.o
 .drectve       0x0000000000000000       0x1c /home/bob/ofiles/libcss-select-properties-border_left_color.o
 .drectve       0x0000000000000000       0x1c /home/bob/ofiles/libcss-select-properties-border_left_style.o
 .drectve       0x0000000000000000       0x1c /home/bob/ofiles/libcss-select-properties-border_left_width.o
 .drectve       0x0000000000000000       0x1c /home/bob/ofiles/libcss-select-properties-border_right_color.o
 .drectve       0x0000000000000000       0x1c /home/bob/ofiles/libcss-select-properties-border_right_style.o
 .drectve       0x0000000000000000       0x1c /home/bob/ofiles/libcss-select-properties-border_right_width.o
 .drectve       0x0000000000000000       0x1c /home/bob/ofiles/libcss-select-properties-border_spacing.o
 .drectve       0x0000000000000000       0x1c /home/bob/ofiles/libcss-select-properties-border_top_color.o
 .drectve       0x0000000000000000       0x1c /home/bob/ofiles/libcss-select-properties-border_top_style.o
 .drectve       0x0000000000000000       0x1c /home/bob/ofiles/libcss-select-properties-border_top_width.o
 .drectve       0x0000000000000000       0x1c /home/bob/ofiles/libcss-select-properties-bottom.o
 .drectve       0x0000000000000000       0x1c /home/bob/ofiles/libcss-select-properties-break_after.o
 .drectve       0x0000000000000000       0x1c /home/bob/ofiles/libcss-select-properties-break_before.o
 .drectve       0x0000000000000000       0x1c /home/bob/ofiles/libcss-select-properties-break_inside.o
 .drectve       0x0000000000000000       0x1c /home/bob/ofiles/libcss-select-properties-caption_side.o
 .drectve       0x0000000000000000       0x1c /home/bob/ofiles/libcss-select-properties-clear.o
 .drectve       0x0000000000000000       0x1c /home/bob/ofiles/libcss-select-properties-clip.o
 .drectve       0x0000000000000000       0x1c /home/bob/ofiles/libcss-select-properties-color.o
 .drectve       0x0000000000000000       0x1c /home/bob/ofiles/libcss-select-properties-column_count.o
 .drectve       0x0000000000000000       0x1c /home/bob/ofiles/libcss-select-properties-column_fill.o
 .drectve       0x0000000000000000       0x1c /home/bob/ofiles/libcss-select-properties-column_gap.o
 .drectve       0x0000000000000000       0x1c /home/bob/ofiles/libcss-select-properties-column_rule_color.o
 .drectve       0x0000000000000000       0x1c /home/bob/ofiles/libcss-select-properties-column_rule_style.o
 .drectve       0x0000000000000000       0x1c /home/bob/ofiles/libcss-select-properties-column_rule_width.o
 .drectve       0x0000000000000000       0x1c /home/bob/ofiles/libcss-select-properties-column_span.o
 .drectve       0x0000000000000000       0x1c /home/bob/ofiles/libcss-select-properties-column_width.o
 .drectve       0x0000000000000000       0x1c /home/bob/ofiles/libcss-select-properties-content.o
 .drectve       0x0000000000000000       0x1c /home/bob/ofiles/libcss-select-properties-counter_increment.o
 .drectve       0x0000000000000000       0x1c /home/bob/ofiles/libcss-select-properties-counter_reset.o
 .drectve       0x0000000000000000       0x1c /home/bob/ofiles/libcss-select-properties-cue_after.o
 .drectve       0x0000000000000000       0x1c /home/bob/ofiles/libcss-select-properties-cue_before.o
 .drectve       0x0000000000000000       0x1c /home/bob/ofiles/libcss-select-properties-cursor.o
 .drectve       0x0000000000000000       0x1c /home/bob/ofiles/libcss-select-properties-direction.o
 .drectve       0x0000000000000000       0x1c /home/bob/ofiles/libcss-select-properties-display.o
 .drectve       0x0000000000000000       0x1c /home/bob/ofiles/libcss-select-properties-elevation.o
 .drectve       0x0000000000000000       0x1c /home/bob/ofiles/libcss-select-properties-empty_cells.o
 .drectve       0x0000000000000000       0x1c /home/bob/ofiles/libcss-select-properties-float.o
 .drectve       0x0000000000000000       0x1c /home/bob/ofiles/libcss-select-properties-font_family.o
 .drectve       0x0000000000000000       0x1c /home/bob/ofiles/libcss-select-properties-font_size.o
 .drectve       0x0000000000000000       0x1c /home/bob/ofiles/libcss-select-properties-font_style.o
 .drectve       0x0000000000000000       0x1c /home/bob/ofiles/libcss-select-properties-font_variant.o
 .drectve       0x0000000000000000       0x1c /home/bob/ofiles/libcss-select-properties-font_weight.o
 .drectve       0x0000000000000000       0x1c /home/bob/ofiles/libcss-select-properties-height.o
 .drectve       0x0000000000000000       0x1c /home/bob/ofiles/libcss-select-properties-helpers.o
 .drectve       0x0000000000000000       0x1c /home/bob/ofiles/libcss-select-properties-left.o
 .drectve       0x0000000000000000       0x1c /home/bob/ofiles/libcss-select-properties-letter_spacing.o
 .drectve       0x0000000000000000       0x1c /home/bob/ofiles/libcss-select-properties-line_height.o
 .drectve       0x0000000000000000       0x1c /home/bob/ofiles/libcss-select-properties-list_style_image.o
 .drectve       0x0000000000000000       0x1c /home/bob/ofiles/libcss-select-properties-list_style_position.o
 .drectve       0x0000000000000000       0x1c /home/bob/ofiles/libcss-select-properties-list_style_type.o
 .drectve       0x0000000000000000       0x1c /home/bob/ofiles/libcss-select-properties-margin_bottom.o
 .drectve       0x0000000000000000       0x1c /home/bob/ofiles/libcss-select-properties-margin_left.o
 .drectve       0x0000000000000000       0x1c /home/bob/ofiles/libcss-select-properties-margin_right.o
 .drectve       0x0000000000000000       0x1c /home/bob/ofiles/libcss-select-properties-margin_top.o
 .drectve       0x0000000000000000       0x1c /home/bob/ofiles/libcss-select-properties-max_height.o
 .drectve       0x0000000000000000       0x1c /home/bob/ofiles/libcss-select-properties-max_width.o
 .drectve       0x0000000000000000       0x1c /home/bob/ofiles/libcss-select-properties-min_height.o
 .drectve       0x0000000000000000       0x1c /home/bob/ofiles/libcss-select-properties-min_width.o
 .drectve       0x0000000000000000       0x1c /home/bob/ofiles/libcss-select-properties-opacity.o
 .drectve       0x0000000000000000       0x1c /home/bob/ofiles/libcss-select-properties-orphans.o
 .drectve       0x0000000000000000       0x1c /home/bob/ofiles/libcss-select-properties-outline_color.o
 .drectve       0x0000000000000000       0x1c /home/bob/ofiles/libcss-select-properties-outline_style.o
 .drectve       0x0000000000000000       0x1c /home/bob/ofiles/libcss-select-properties-outline_width.o
 .drectve       0x0000000000000000       0x1c /home/bob/ofiles/libcss-select-properties-overflow_x.o
 .drectve       0x0000000000000000       0x1c /home/bob/ofiles/libcss-select-properties-overflow_y.o
 .drectve       0x0000000000000000       0x1c /home/bob/ofiles/libcss-select-properties-padding_bottom.o
 .drectve       0x0000000000000000       0x1c /home/bob/ofiles/libcss-select-properties-padding_left.o
 .drectve       0x0000000000000000       0x1c /home/bob/ofiles/libcss-select-properties-padding_right.o
 .drectve       0x0000000000000000       0x1c /home/bob/ofiles/libcss-select-properties-padding_top.o
 .drectve       0x0000000000000000       0x1c /home/bob/ofiles/libcss-select-properties-page_break_after.o
 .drectve       0x0000000000000000       0x1c /home/bob/ofiles/libcss-select-properties-page_break_before.o
 .drectve       0x0000000000000000       0x1c /home/bob/ofiles/libcss-select-properties-page_break_inside.o
 .drectve       0x0000000000000000       0x1c /home/bob/ofiles/libcss-select-properties-pause_after.o
 .drectve       0x0000000000000000       0x1c /home/bob/ofiles/libcss-select-properties-pause_before.o
 .drectve       0x0000000000000000       0x1c /home/bob/ofiles/libcss-select-properties-pitch.o
 .drectve       0x0000000000000000       0x1c /home/bob/ofiles/libcss-select-properties-pitch_range.o
 .drectve       0x0000000000000000       0x1c /home/bob/ofiles/libcss-select-properties-play_during.o
 .drectve       0x0000000000000000       0x1c /home/bob/ofiles/libcss-select-properties-position.o
 .drectve       0x0000000000000000       0x1c /home/bob/ofiles/libcss-select-properties-quotes.o
 .drectve       0x0000000000000000       0x1c /home/bob/ofiles/libcss-select-properties-richness.o
 .drectve       0x0000000000000000       0x1c /home/bob/ofiles/libcss-select-properties-right.o
 .drectve       0x0000000000000000       0x1c /home/bob/ofiles/libcss-select-properties-speak.o
 .drectve       0x0000000000000000       0x1c /home/bob/ofiles/libcss-select-properties-speak_header.o
 .drectve       0x0000000000000000       0x1c /home/bob/ofiles/libcss-select-properties-speak_numeral.o
 .drectve       0x0000000000000000       0x1c /home/bob/ofiles/libcss-select-properties-speak_punctuation.o
 .drectve       0x0000000000000000       0x1c /home/bob/ofiles/libcss-select-properties-speech_rate.o
 .drectve       0x0000000000000000       0x1c /home/bob/ofiles/libcss-select-properties-stress.o
 .drectve       0x0000000000000000       0x1c /home/bob/ofiles/libcss-select-properties-table_layout.o
 .drectve       0x0000000000000000       0x1c /home/bob/ofiles/libcss-select-properties-text_align.o
 .drectve       0x0000000000000000       0x1c /home/bob/ofiles/libcss-select-properties-text_decoration.o
 .drectve       0x0000000000000000       0x1c /home/bob/ofiles/libcss-select-properties-text_indent.o
 .drectve       0x0000000000000000       0x1c /home/bob/ofiles/libcss-select-properties-text_transform.o
 .drectve       0x0000000000000000       0x1c /home/bob/ofiles/libcss-select-properties-top.o
 .drectve       0x0000000000000000       0x1c /home/bob/ofiles/libcss-select-properties-unicode_bidi.o
 .drectve       0x0000000000000000       0x1c /home/bob/ofiles/libcss-select-properties-vertical_align.o
 .drectve       0x0000000000000000       0x1c /home/bob/ofiles/libcss-select-properties-visibility.o
 .drectve       0x0000000000000000       0x1c /home/bob/ofiles/libcss-select-properties-voice_family.o
 .drectve       0x0000000000000000       0x1c /home/bob/ofiles/libcss-select-properties-volume.o
 .drectve       0x0000000000000000       0x1c /home/bob/ofiles/libcss-select-properties-white_space.o
 .drectve       0x0000000000000000       0x1c /home/bob/ofiles/libcss-select-properties-widows.o
 .drectve       0x0000000000000000       0x1c /home/bob/ofiles/libcss-select-properties-width.o
 .drectve       0x0000000000000000       0x1c /home/bob/ofiles/libcss-select-properties-word_spacing.o
 .drectve       0x0000000000000000       0x1c /home/bob/ofiles/libcss-select-properties-writing_mode.o
 .drectve       0x0000000000000000       0x1c /home/bob/ofiles/libcss-select-properties-z_index.o
 .drectve       0x0000000000000000       0x1c /home/bob/ofiles/libcss-select-select.o
 .drectve       0x0000000000000000       0x1c /home/bob/ofiles/libcss-stylesheet.o
 .drectve       0x0000000000000000       0x1c /home/bob/ofiles/libdom-bindings-parser.o
 .drectve       0x0000000000000000       0x1c /home/bob/ofiles/libdom-core-attr.o
 .drectve       0x0000000000000000       0x1c /home/bob/ofiles/libdom-core-cdatasection.o
 .drectve       0x0000000000000000       0x1c /home/bob/ofiles/libdom-core-characterdata.o
 .drectve       0x0000000000000000       0x1c /home/bob/ofiles/libdom-core-comment.o
 .drectve       0x0000000000000000       0x1c /home/bob/ofiles/libdom-core-doc_fragment.o
 .drectve       0x0000000000000000       0x1c /home/bob/ofiles/libdom-core-document.o
 .drectve       0x0000000000000000       0x1c /home/bob/ofiles/libdom-core-document_type.o
 .drectve       0x0000000000000000       0x1c /home/bob/ofiles/libdom-core-element.o
 .drectve       0x0000000000000000       0x1c /home/bob/ofiles/libdom-core-entity_ref.o
 .drectve       0x0000000000000000       0x1c /home/bob/ofiles/libdom-core-implementation.o
 .drectve       0x0000000000000000       0x1c /home/bob/ofiles/libdom-core-namednodemap.o
 .drectve       0x0000000000000000       0x1c /home/bob/ofiles/libdom-core-node.o
 .drectve       0x0000000000000000       0x1c /home/bob/ofiles/libdom-core-nodelist.o
 .drectve       0x0000000000000000       0x1c /home/bob/ofiles/libdom-core-pi.o
 .drectve       0x0000000000000000       0x1c /home/bob/ofiles/libdom-core-string.o
 .drectve       0x0000000000000000       0x1c /home/bob/ofiles/libdom-core-text.o
 .drectve       0x0000000000000000       0x1c /home/bob/ofiles/libdom-core-typeinfo.o
 .drectve       0x0000000000000000       0x1c /home/bob/ofiles/libdom-events-custom_event.o
 .drectve       0x0000000000000000       0x1c /home/bob/ofiles/libdom-events-dispatch.o
 .drectve       0x0000000000000000       0x1c /home/bob/ofiles/libdom-events-document_event.o
 .drectve       0x0000000000000000       0x1c /home/bob/ofiles/libdom-events-event.o
 .drectve       0x0000000000000000       0x1c /home/bob/ofiles/libdom-events-event_listener.o
 .drectve       0x0000000000000000       0x1c /home/bob/ofiles/libdom-events-event_target.o
 .drectve       0x0000000000000000       0x1c /home/bob/ofiles/libdom-events-keyboard_event.o
 .drectve       0x0000000000000000       0x1c /home/bob/ofiles/libdom-events-mouse_event.o
 .drectve       0x0000000000000000       0x1c /home/bob/ofiles/libdom-events-mouse_multi_wheel_event.o
 .drectve       0x0000000000000000       0x1c /home/bob/ofiles/libdom-events-mouse_wheel_event.o
 .drectve       0x0000000000000000       0x1c /home/bob/ofiles/libdom-events-mutation_event.o
 .drectve       0x0000000000000000       0x1c /home/bob/ofiles/libdom-events-mutation_name_event.o
 .drectve       0x0000000000000000       0x1c /home/bob/ofiles/libdom-events-text_event.o
 .drectve       0x0000000000000000       0x1c /home/bob/ofiles/libdom-events-ui_event.o
 .drectve       0x0000000000000000       0x1c /home/bob/ofiles/libdom-html-html_anchor_element.o
 .drectve       0x0000000000000000       0x1c /home/bob/ofiles/libdom-html-html_applet_element.o
 .drectve       0x0000000000000000       0x1c /home/bob/ofiles/libdom-html-html_area_element.o
 .drectve       0x0000000000000000       0x1c /home/bob/ofiles/libdom-html-html_base_element.o
 .drectve       0x0000000000000000       0x1c /home/bob/ofiles/libdom-html-html_basefont_element.o
 .drectve       0x0000000000000000       0x1c /home/bob/ofiles/libdom-html-html_body_element.o
 .drectve       0x0000000000000000       0x1c /home/bob/ofiles/libdom-html-html_br_element.o
 .drectve       0x0000000000000000       0x1c /home/bob/ofiles/libdom-html-html_button_element.o
 .drectve       0x0000000000000000       0x1c /home/bob/ofiles/libdom-html-html_collection.o
 .drectve       0x0000000000000000       0x1c /home/bob/ofiles/libdom-html-html_directory_element.o
 .drectve       0x0000000000000000       0x1c /home/bob/ofiles/libdom-html-html_div_element.o
 .drectve       0x0000000000000000       0x1c /home/bob/ofiles/libdom-html-html_dlist_element.o
 .drectve       0x0000000000000000       0x1c /home/bob/ofiles/libdom-html-html_document.o
 .drectve       0x0000000000000000       0x1c /home/bob/ofiles/libdom-html-html_element.o
 .drectve       0x0000000000000000       0x1c /home/bob/ofiles/libdom-html-html_fieldset_element.o
 .drectve       0x0000000000000000       0x1c /home/bob/ofiles/libdom-html-html_font_element.o
 .drectve       0x0000000000000000       0x1c /home/bob/ofiles/libdom-html-html_form_element.o
 .drectve       0x0000000000000000       0x1c /home/bob/ofiles/libdom-html-html_frame_element.o
 .drectve       0x0000000000000000       0x1c /home/bob/ofiles/libdom-html-html_frameset_element.o
 .drectve       0x0000000000000000       0x1c /home/bob/ofiles/libdom-html-html_head_element.o
 .drectve       0x0000000000000000       0x1c /home/bob/ofiles/libdom-html-html_heading_element.o
 .drectve       0x0000000000000000       0x1c /home/bob/ofiles/libdom-html-html_hr_element.o
 .drectve       0x0000000000000000       0x1c /home/bob/ofiles/libdom-html-html_html_element.o
 .drectve       0x0000000000000000       0x1c /home/bob/ofiles/libdom-html-html_iframe_element.o
 .drectve       0x0000000000000000       0x1c /home/bob/ofiles/libdom-html-html_image_element.o
 .drectve       0x0000000000000000       0x1c /home/bob/ofiles/libdom-html-html_input_element.o
 .drectve       0x0000000000000000       0x1c /home/bob/ofiles/libdom-html-html_isindex_element.o
 .drectve       0x0000000000000000       0x1c /home/bob/ofiles/libdom-html-html_label_element.o
 .drectve       0x0000000000000000       0x1c /home/bob/ofiles/libdom-html-html_legend_element.o
 .drectve       0x0000000000000000       0x1c /home/bob/ofiles/libdom-html-html_li_element.o
 .drectve       0x0000000000000000       0x1c /home/bob/ofiles/libdom-html-html_link_element.o
 .drectve       0x0000000000000000       0x1c /home/bob/ofiles/libdom-html-html_map_element.o
 .drectve       0x0000000000000000       0x1c /home/bob/ofiles/libdom-html-html_menu_element.o
 .drectve       0x0000000000000000       0x1c /home/bob/ofiles/libdom-html-html_meta_element.o
 .drectve       0x0000000000000000       0x1c /home/bob/ofiles/libdom-html-html_mod_element.o
 .drectve       0x0000000000000000       0x1c /home/bob/ofiles/libdom-html-html_object_element.o
 .drectve       0x0000000000000000       0x1c /home/bob/ofiles/libdom-html-html_olist_element.o
 .drectve       0x0000000000000000       0x1c /home/bob/ofiles/libdom-html-html_opt_group_element.o
 .drectve       0x0000000000000000       0x1c /home/bob/ofiles/libdom-html-html_option_element.o
 .drectve       0x0000000000000000       0x1c /home/bob/ofiles/libdom-html-html_options_collection.o
 .drectve       0x0000000000000000       0x1c /home/bob/ofiles/libdom-html-html_paragraph_element.o
 .drectve       0x0000000000000000       0x1c /home/bob/ofiles/libdom-html-html_param_element.o
 .drectve       0x0000000000000000       0x1c /home/bob/ofiles/libdom-html-html_pre_element.o
 .drectve       0x0000000000000000       0x1c /home/bob/ofiles/libdom-html-html_quote_element.o
 .drectve       0x0000000000000000       0x1c /home/bob/ofiles/libdom-html-html_script_element.o
 .drectve       0x0000000000000000       0x1c /home/bob/ofiles/libdom-html-html_select_element.o
 .drectve       0x0000000000000000       0x1c /home/bob/ofiles/libdom-html-html_style_element.o
 .drectve       0x0000000000000000       0x1c /home/bob/ofiles/libdom-html-html_table_element.o
 .drectve       0x0000000000000000       0x1c /home/bob/ofiles/libdom-html-html_tablecaption_element.o
 .drectve       0x0000000000000000       0x1c /home/bob/ofiles/libdom-html-html_tablecell_element.o
 .drectve       0x0000000000000000       0x1c /home/bob/ofiles/libdom-html-html_tablecol_element.o
 .drectve       0x0000000000000000       0x1c /home/bob/ofiles/libdom-html-html_tablerow_element.o
 .drectve       0x0000000000000000       0x1c /home/bob/ofiles/libdom-html-html_tablesection_element.o
 .drectve       0x0000000000000000       0x1c /home/bob/ofiles/libdom-html-html_text_area_element.o
 .drectve       0x0000000000000000       0x1c /home/bob/ofiles/libdom-html-html_title_element.o
 .drectve       0x0000000000000000       0x1c /home/bob/ofiles/libdom-html-html_ulist_element.o
 .drectve       0x0000000000000000       0x1c /home/bob/ofiles/libdom-utils-namespace.o
 .drectve       0x0000000000000000       0x1c /home/bob/ofiles/libdom-utils-validate.o
 .debug_info    0x0000000000000000      0x53e /home/autobuild/tools/win32/mingw32/lib/libgcc.a(_udivdi3.o)
 .debug_abbrev  0x0000000000000000      0x15c /home/autobuild/tools/win32/mingw32/lib/libgcc.a(_udivdi3.o)
 .debug_loc     0x0000000000000000      0x586 /home/autobuild/tools/win32/mingw32/lib/libgcc.a(_udivdi3.o)
 .debug_aranges
                0x0000000000000000       0x20 /home/autobuild/tools/win32/mingw32/lib/libgcc.a(_udivdi3.o)
 .debug_ranges  0x0000000000000000       0x48 /home/autobuild/tools/win32/mingw32/lib/libgcc.a(_udivdi3.o)
 .debug_line    0x0000000000000000       0xee /home/autobuild/tools/win32/mingw32/lib/libgcc.a(_udivdi3.o)
 .debug_line    0x0000000000000000       0x6d /home/autobuild/tools/win32/mingw32/lib/libgcc.a(_chkstk_ms.o)
 .debug_info    0x0000000000000000       0x80 /home/autobuild/tools/win32/mingw32/lib/libgcc.a(_chkstk_ms.o)
 .debug_abbrev  0x0000000000000000       0x14 /home/autobuild/tools/win32/mingw32/lib/libgcc.a(_chkstk_ms.o)
 .debug_aranges
                0x0000000000000000       0x20 /home/autobuild/tools/win32/mingw32/lib/libgcc.a(_chkstk_ms.o)
 .debug_frame   0x0000000000000000       0x38 /home/autobuild/tools/win32/mingw32/lib/libgcc.a(_chkstk_ms.o)
 .debug_info    0x0000000000000000      0x573 /home/autobuild/tools/win32/mingw32/lib/libgcc.a(_divdi3.o)
 .debug_abbrev  0x0000000000000000      0x169 /home/autobuild/tools/win32/mingw32/lib/libgcc.a(_divdi3.o)
 .debug_loc     0x0000000000000000      0x302 /home/autobuild/tools/win32/mingw32/lib/libgcc.a(_divdi3.o)
 .debug_aranges
                0x0000000000000000       0x20 /home/autobuild/tools/win32/mingw32/lib/libgcc.a(_divdi3.o)
 .debug_ranges  0x0000000000000000       0x28 /home/autobuild/tools/win32/mingw32/lib/libgcc.a(_divdi3.o)
 .debug_line    0x0000000000000000       0xee /home/autobuild/tools/win32/mingw32/lib/libgcc.a(_divdi3.o)
 .debug_info    0x0000000000000000      0x3ea /home/autobuild/tools/win32/mingw32/lib/libgcc.a(__main.o)
 .debug_abbrev  0x0000000000000000      0x113 /home/autobuild/tools/win32/mingw32/lib/libgcc.a(__main.o)
 .debug_loc     0x0000000000000000       0x54 /home/autobuild/tools/win32/mingw32/lib/libgcc.a(__main.o)
 .debug_aranges
                0x0000000000000000       0x20 /home/autobuild/tools/win32/mingw32/lib/libgcc.a(__main.o)
 .debug_ranges  0x0000000000000000       0x18 /home/autobuild/tools/win32/mingw32/lib/libgcc.a(__main.o)
 .debug_line    0x0000000000000000       0xcb /home/autobuild/tools/win32/mingw32/lib/libgcc.a(__main.o)
 .drectve       0x0000000000000000       0x3c /home/autobuild/tools/win32/mingw32/lib/libgcc.a(_ctors.o)
 .debug_info    0x0000000000000000      0xb70 /home/autobuild/tools/win32/mingw32/lib/libgcc.a(_ctors.o)
 .debug_abbrev  0x0000000000000000       0xa7 /home/autobuild/tools/win32/mingw32/lib/libgcc.a(_ctors.o)
 .debug_aranges
                0x0000000000000000       0x18 /home/autobuild/tools/win32/mingw32/lib/libgcc.a(_ctors.o)
 .debug_line    0x0000000000000000       0xbf /home/autobuild/tools/win32/mingw32/lib/libgcc.a(_ctors.o)
 .debug_info    0x0000000000000000     0x199e ../../inst/lib/libnsfb.a(src_libnsfb.o)
 .debug_abbrev  0x0000000000000000      0x1ec ../../inst/lib/libnsfb.a(src_libnsfb.o)
 .debug_loc     0x0000000000000000      0x167 ../../inst/lib/libnsfb.a(src_libnsfb.o)
 .debug_aranges
                0x0000000000000000       0x20 ../../inst/lib/libnsfb.a(src_libnsfb.o)
 .debug_line    0x0000000000000000      0x271 ../../inst/lib/libnsfb.a(src_libnsfb.o)
 .debug_info    0x0000000000000000     0x194e ../../inst/lib/libnsfb.a(src_plot_api.o)
 .debug_abbrev  0x0000000000000000      0x14f ../../inst/lib/libnsfb.a(src_plot_api.o)
 .debug_loc     0x0000000000000000      0x179 ../../inst/lib/libnsfb.a(src_plot_api.o)
 .debug_aranges
                0x0000000000000000       0x20 ../../inst/lib/libnsfb.a(src_plot_api.o)
 .debug_line    0x0000000000000000      0x1e7 ../../inst/lib/libnsfb.a(src_plot_api.o)
 .debug_info    0x0000000000000000     0x1466 ../../inst/lib/libnsfb.a(src_cursor.o)
 .debug_abbrev  0x0000000000000000      0x157 ../../inst/lib/libnsfb.a(src_cursor.o)
 .debug_loc     0x0000000000000000       0x1e ../../inst/lib/libnsfb.a(src_cursor.o)
 .debug_aranges
                0x0000000000000000       0x20 ../../inst/lib/libnsfb.a(src_cursor.o)
 .debug_line    0x0000000000000000      0x280 ../../inst/lib/libnsfb.a(src_cursor.o)
 .debug_info    0x0000000000000000     0x13fc ../../inst/lib/libnsfb.a(src_surface_surface.o)
 .debug_abbrev  0x0000000000000000      0x18f ../../inst/lib/libnsfb.a(src_surface_surface.o)
 .debug_loc     0x0000000000000000       0x7f ../../inst/lib/libnsfb.a(src_surface_surface.o)
 .debug_aranges
                0x0000000000000000       0x20 ../../inst/lib/libnsfb.a(src_surface_surface.o)
 .debug_line    0x0000000000000000      0x283 ../../inst/lib/libnsfb.a(src_surface_surface.o)
 .debug_info    0x0000000000000000      0x54f ../../inst/lib/libnsfb.a(src_palette.o)
 .debug_abbrev  0x0000000000000000      0x1a5 ../../inst/lib/libnsfb.a(src_palette.o)
 .debug_loc     0x0000000000000000      0x189 ../../inst/lib/libnsfb.a(src_palette.o)
 .debug_aranges
                0x0000000000000000       0x20 ../../inst/lib/libnsfb.a(src_palette.o)
 .debug_line    0x0000000000000000      0x229 ../../inst/lib/libnsfb.a(src_palette.o)
 .debug_info    0x0000000000000000     0x2a9c ../../inst/lib/libnsfb.a(src_plot_generic.o)
 .debug_abbrev  0x0000000000000000      0x3e5 ../../inst/lib/libnsfb.a(src_plot_generic.o)
 .debug_loc     0x0000000000000000     0x17a1 ../../inst/lib/libnsfb.a(src_plot_generic.o)
 .debug_aranges
                0x0000000000000000       0x20 ../../inst/lib/libnsfb.a(src_plot_generic.o)
 .debug_ranges  0x0000000000000000       0x70 ../../inst/lib/libnsfb.a(src_plot_generic.o)
 .debug_line    0x0000000000000000      0x6a5 ../../inst/lib/libnsfb.a(src_plot_generic.o)
 .debug_info    0x0000000000000000     0x2702 ../../inst/lib/libnsfb.a(src_plot_16bpp.o)
 .debug_abbrev  0x0000000000000000      0x3e4 ../../inst/lib/libnsfb.a(src_plot_16bpp.o)
 .debug_loc     0x0000000000000000     0x2adc ../../inst/lib/libnsfb.a(src_plot_16bpp.o)
 .debug_aranges
                0x0000000000000000       0x20 ../../inst/lib/libnsfb.a(src_plot_16bpp.o)
 .debug_ranges  0x0000000000000000      0x288 ../../inst/lib/libnsfb.a(src_plot_16bpp.o)
 .debug_line    0x0000000000000000      0x96f ../../inst/lib/libnsfb.a(src_plot_16bpp.o)
 .debug_info    0x0000000000000000     0x26a9 ../../inst/lib/libnsfb.a(src_plot_32bpp-xrgb8888.o)
 .debug_abbrev  0x0000000000000000      0x3ea ../../inst/lib/libnsfb.a(src_plot_32bpp-xrgb8888.o)
 .debug_loc     0x0000000000000000     0x2e2d ../../inst/lib/libnsfb.a(src_plot_32bpp-xrgb8888.o)
 .debug_aranges
                0x0000000000000000       0x20 ../../inst/lib/libnsfb.a(src_plot_32bpp-xrgb8888.o)
 .debug_ranges  0x0000000000000000      0x308 ../../inst/lib/libnsfb.a(src_plot_32bpp-xrgb8888.o)
 .debug_line    0x0000000000000000      0x930 ../../inst/lib/libnsfb.a(src_plot_32bpp-xrgb8888.o)
 .debug_info    0x0000000000000000     0x26a9 ../../inst/lib/libnsfb.a(src_plot_32bpp-xbgr8888.o)
 .debug_abbrev  0x0000000000000000      0x3ea ../../inst/lib/libnsfb.a(src_plot_32bpp-xbgr8888.o)
 .debug_loc     0x0000000000000000     0x2e2d ../../inst/lib/libnsfb.a(src_plot_32bpp-xbgr8888.o)
 .debug_aranges
                0x0000000000000000       0x20 ../../inst/lib/libnsfb.a(src_plot_32bpp-xbgr8888.o)
 .debug_ranges  0x0000000000000000      0x308 ../../inst/lib/libnsfb.a(src_plot_32bpp-xbgr8888.o)
 .debug_line    0x0000000000000000      0x930 ../../inst/lib/libnsfb.a(src_plot_32bpp-xbgr8888.o)
 .debug_info    0x0000000000000000     0x41d0 ../../inst/lib/libnsfb.a(src_plot_8bpp.o)
 .debug_abbrev  0x0000000000000000      0x3db ../../inst/lib/libnsfb.a(src_plot_8bpp.o)
 .debug_loc     0x0000000000000000    0x13412 ../../inst/lib/libnsfb.a(src_plot_8bpp.o)
 .debug_aranges
                0x0000000000000000       0x20 ../../inst/lib/libnsfb.a(src_plot_8bpp.o)
 .debug_ranges  0x0000000000000000      0xb38 ../../inst/lib/libnsfb.a(src_plot_8bpp.o)
 .debug_line    0x0000000000000000     0x1cbf ../../inst/lib/libnsfb.a(src_plot_8bpp.o)
 .debug_info    0x0000000000000000      0x6be ../../inst/lib/libnsfb.a(src_plot_util.o)
 .debug_abbrev  0x0000000000000000      0x12f ../../inst/lib/libnsfb.a(src_plot_util.o)
 .debug_loc     0x0000000000000000      0x13b ../../inst/lib/libnsfb.a(src_plot_util.o)
 .debug_aranges
                0x0000000000000000       0x20 ../../inst/lib/libnsfb.a(src_plot_util.o)
 .debug_line    0x0000000000000000      0x260 ../../inst/lib/libnsfb.a(src_plot_util.o)

Memory Configuration

Name             Origin             Length             Attributes
*default*        0x0000000000000000 0xffffffffffffffff

Linker script and memory map

                0x0000000000000000                __image_base__ = 0x0
                0x0000000000000000                __dll__ = 0x0
                0x0000000000000000                ___ImageBase = 0x0
                0x0000000000001000                __section_alignment__ = 0x1000
                0x0000000000000200                __file_alignment__ = 0x200
                0x0000000000000004                __major_os_version__ = 0x4
                0x0000000000000000                __minor_os_version__ = 0x0
                0x0000000000000001                __major_image_version__ = 0x1
                0x0000000000000000                __minor_image_version__ = 0x0
                0x0000000000000004                __major_subsystem_version__ = 0x4
                0x0000000000000000                __minor_subsystem_version__ = 0x0
                0x0000000000000003                __subsystem__ = 0x3
                0x0000000000200000                __size_of_stack_reserve__ = 0x200000
                0x0000000000001000                __size_of_stack_commit__ = 0x1000
                0x0000000000100000                __size_of_heap_reserve__ = 0x100000
                0x0000000000001000                __size_of_heap_commit__ = 0x1000
                0x0000000000000000                __loader_flags__ = 0x0
                0x0000000000000000                __dll_characteristics__ = 0x0
LOAD content_content.o
LOAD content_content_factory.o
LOAD content_dirlist.o
LOAD content_fetch.o
LOAD content_fetchers_about.o
LOAD content_fetchers_data.o
LOAD content_fetchers_file.o
LOAD content_fetchers_http_kolibri.o
LOAD content_fetchers_resource.o
LOAD content_hlcache.o
LOAD content_llcache.o
LOAD content_mimesniff.o
LOAD content_no_backing_store.o
LOAD content_urldb.o
LOAD css_css.o
LOAD css_dump.o
LOAD css_internal.o
LOAD css_select.o
LOAD css_utils.o
LOAD desktop_browser.o
LOAD desktop_browser_history.o
LOAD desktop_cookie_manager.o
LOAD desktop_download.o
LOAD desktop_font_haru.o
LOAD desktop_frames.o
LOAD desktop_global_history.o
LOAD desktop_gui_factory.o
LOAD desktop_hotlist.o
LOAD desktop_knockout.o
LOAD desktop_mouse.o
LOAD desktop_netsurf.o
LOAD desktop_plot_style.o
LOAD desktop_print.o
LOAD desktop_save_complete.o
LOAD desktop_save_pdf.o
LOAD desktop_save_text.o
LOAD desktop_scrollbar.o
LOAD desktop_search.o
LOAD desktop_searchweb.o
LOAD desktop_selection.o
LOAD desktop_sslcert_viewer.o
LOAD desktop_system_colour.o
LOAD desktop_textarea.o
LOAD desktop_textinput.o
LOAD desktop_tree.o
LOAD desktop_treeview.o
LOAD desktop_version.o
LOAD image_image.o
LOAD image_image_cache.o
LOAD javascript_fetcher.o
LOAD javascript_none_none.o
LOAD kolibrios_fb_bitmap.o
LOAD kolibrios_fb_clipboard.o
LOAD kolibrios_fb_fbtk_bitmap.o
LOAD kolibrios_fb_fbtk_event.o
LOAD kolibrios_fb_fbtk_fbtk.o
LOAD kolibrios_fb_fbtk_fill.o
LOAD kolibrios_fb_fbtk_osk.o
LOAD kolibrios_fb_fbtk_scroll.o
LOAD kolibrios_fb_fbtk_text.o
LOAD kolibrios_fb_fbtk_user.o
LOAD kolibrios_fb_fbtk_window.o
LOAD kolibrios_fb_fetch.o
LOAD kolibrios_fb_findfile.o
LOAD kolibrios_fb_font_freetype.o
LOAD kolibrios_fb_framebuffer.o
LOAD kolibrios_fb_gui.o
LOAD kolibrios_fb_localhistory.o
LOAD kolibrios_fb_misc.o
LOAD kolibrios_fb_schedule.o
LOAD kolibrios_kolibri_debug.o
LOAD kolibrios_kolibri_filesystem.o
LOAD kolibrios_kolibri_http.o
LOAD kolibrios_kolibri_iconv.o
LOAD kolibrios_kolibri_misc.o
LOAD kolibrios_kolibri_regex.o
LOAD kolibrios_main.o
LOAD render_box.o
LOAD render_box_construct.o
LOAD render_box_normalise.o
LOAD render_box_textarea.o
LOAD render_font.o
LOAD render_form.o
LOAD render_html.o
LOAD render_html_css.o
LOAD render_html_css_fetcher.o
LOAD render_html_forms.o
LOAD render_html_interaction.o
LOAD render_html_object.o
LOAD render_html_redraw.o
LOAD render_html_script.o
LOAD render_imagemap.o
LOAD render_layout.o
LOAD render_search.o
LOAD render_table.o
LOAD render_textplain.o
LOAD utils_base64.o
LOAD utils_bloom.o
LOAD utils_corestrings.o
LOAD utils_file.o
LOAD utils_filename.o
LOAD utils_filepath.o
LOAD utils_hashtable.o
LOAD utils_http_challenge.o
LOAD utils_http_content-disposition.o
LOAD utils_http_content-type.o
LOAD utils_http_generics.o
LOAD utils_http_parameter.o
LOAD utils_http_primitives.o
LOAD utils_http_www-authenticate.o
LOAD utils_idna.o
LOAD utils_libdom.o
LOAD utils_locale.o
LOAD utils_log.o
LOAD utils_messages.o
LOAD utils_nsoption.o
LOAD utils_nsurl.o
LOAD utils_punycode.o
LOAD utils_talloc.o
LOAD utils_url.o
LOAD utils_useragent.o
LOAD utils_utf8.o
LOAD utils_utils.o
LOAD /home/bob/ofiles/libcss-charset-detect.o
LOAD /home/bob/ofiles/libcss-lex-lex.o
LOAD /home/bob/ofiles/libcss-parse-font_face.o
LOAD /home/bob/ofiles/libcss-parse-important.o
LOAD /home/bob/ofiles/libcss-parse-language.o
LOAD /home/bob/ofiles/libcss-parse-parse.o
LOAD /home/bob/ofiles/libcss-parse-properties-autogenerated_background_attachment.o
LOAD /home/bob/ofiles/libcss-parse-properties-autogenerated_background_color.o
LOAD /home/bob/ofiles/libcss-parse-properties-autogenerated_background_image.o
LOAD /home/bob/ofiles/libcss-parse-properties-autogenerated_background_repeat.o
LOAD /home/bob/ofiles/libcss-parse-properties-autogenerated_border_bottom.o
LOAD /home/bob/ofiles/libcss-parse-properties-autogenerated_border_bottom_color.o
LOAD /home/bob/ofiles/libcss-parse-properties-autogenerated_border_bottom_style.o
LOAD /home/bob/ofiles/libcss-parse-properties-autogenerated_border_bottom_width.o
LOAD /home/bob/ofiles/libcss-parse-properties-autogenerated_border_collapse.o
LOAD /home/bob/ofiles/libcss-parse-properties-autogenerated_border_left.o
LOAD /home/bob/ofiles/libcss-parse-properties-autogenerated_border_left_color.o
LOAD /home/bob/ofiles/libcss-parse-properties-autogenerated_border_left_style.o
LOAD /home/bob/ofiles/libcss-parse-properties-autogenerated_border_left_width.o
LOAD /home/bob/ofiles/libcss-parse-properties-autogenerated_border_right.o
LOAD /home/bob/ofiles/libcss-parse-properties-autogenerated_border_right_color.o
LOAD /home/bob/ofiles/libcss-parse-properties-autogenerated_border_right_style.o
LOAD /home/bob/ofiles/libcss-parse-properties-autogenerated_border_right_width.o
LOAD /home/bob/ofiles/libcss-parse-properties-autogenerated_border_side_color.o
LOAD /home/bob/ofiles/libcss-parse-properties-autogenerated_border_side_style.o
LOAD /home/bob/ofiles/libcss-parse-properties-autogenerated_border_side_width.o
LOAD /home/bob/ofiles/libcss-parse-properties-autogenerated_border_top.o
LOAD /home/bob/ofiles/libcss-parse-properties-autogenerated_border_top_color.o
LOAD /home/bob/ofiles/libcss-parse-properties-autogenerated_border_top_style.o
LOAD /home/bob/ofiles/libcss-parse-properties-autogenerated_border_top_width.o
LOAD /home/bob/ofiles/libcss-parse-properties-autogenerated_bottom.o
LOAD /home/bob/ofiles/libcss-parse-properties-autogenerated_break_after.o
LOAD /home/bob/ofiles/libcss-parse-properties-autogenerated_break_before.o
LOAD /home/bob/ofiles/libcss-parse-properties-autogenerated_break_inside.o
LOAD /home/bob/ofiles/libcss-parse-properties-autogenerated_caption_side.o
LOAD /home/bob/ofiles/libcss-parse-properties-autogenerated_clear.o
LOAD /home/bob/ofiles/libcss-parse-properties-autogenerated_color.o
LOAD /home/bob/ofiles/libcss-parse-properties-autogenerated_column_count.o
LOAD /home/bob/ofiles/libcss-parse-properties-autogenerated_column_fill.o
LOAD /home/bob/ofiles/libcss-parse-properties-autogenerated_column_gap.o
LOAD /home/bob/ofiles/libcss-parse-properties-autogenerated_column_rule_color.o
LOAD /home/bob/ofiles/libcss-parse-properties-autogenerated_column_rule_style.o
LOAD /home/bob/ofiles/libcss-parse-properties-autogenerated_column_rule_width.o
LOAD /home/bob/ofiles/libcss-parse-properties-autogenerated_column_span.o
LOAD /home/bob/ofiles/libcss-parse-properties-autogenerated_column_width.o
LOAD /home/bob/ofiles/libcss-parse-properties-autogenerated_counter_increment.o
LOAD /home/bob/ofiles/libcss-parse-properties-autogenerated_counter_reset.o
LOAD /home/bob/ofiles/libcss-parse-properties-autogenerated_cue_after.o
LOAD /home/bob/ofiles/libcss-parse-properties-autogenerated_cue_before.o
LOAD /home/bob/ofiles/libcss-parse-properties-autogenerated_direction.o
LOAD /home/bob/ofiles/libcss-parse-properties-autogenerated_display.o
LOAD /home/bob/ofiles/libcss-parse-properties-autogenerated_empty_cells.o
LOAD /home/bob/ofiles/libcss-parse-properties-autogenerated_float.o
LOAD /home/bob/ofiles/libcss-parse-properties-autogenerated_font_size.o
LOAD /home/bob/ofiles/libcss-parse-properties-autogenerated_font_style.o
LOAD /home/bob/ofiles/libcss-parse-properties-autogenerated_font_variant.o
LOAD /home/bob/ofiles/libcss-parse-properties-autogenerated_height.o
LOAD /home/bob/ofiles/libcss-parse-properties-autogenerated_left.o
LOAD /home/bob/ofiles/libcss-parse-properties-autogenerated_letter_spacing.o
LOAD /home/bob/ofiles/libcss-parse-properties-autogenerated_line_height.o
LOAD /home/bob/ofiles/libcss-parse-properties-autogenerated_list_style_image.o
LOAD /home/bob/ofiles/libcss-parse-properties-autogenerated_list_style_position.o
LOAD /home/bob/ofiles/libcss-parse-properties-autogenerated_margin_bottom.o
LOAD /home/bob/ofiles/libcss-parse-properties-autogenerated_margin_left.o
LOAD /home/bob/ofiles/libcss-parse-properties-autogenerated_margin_right.o
LOAD /home/bob/ofiles/libcss-parse-properties-autogenerated_margin_side.o
LOAD /home/bob/ofiles/libcss-parse-properties-autogenerated_margin_top.o
LOAD /home/bob/ofiles/libcss-parse-properties-autogenerated_max_height.o
LOAD /home/bob/ofiles/libcss-parse-properties-autogenerated_max_width.o
LOAD /home/bob/ofiles/libcss-parse-properties-autogenerated_min_height.o
LOAD /home/bob/ofiles/libcss-parse-properties-autogenerated_min_width.o
LOAD /home/bob/ofiles/libcss-parse-properties-autogenerated_orphans.o
LOAD /home/bob/ofiles/libcss-parse-properties-autogenerated_outline_color.o
LOAD /home/bob/ofiles/libcss-parse-properties-autogenerated_outline_style.o
LOAD /home/bob/ofiles/libcss-parse-properties-autogenerated_outline_width.o
LOAD /home/bob/ofiles/libcss-parse-properties-autogenerated_overflow_x.o
LOAD /home/bob/ofiles/libcss-parse-properties-autogenerated_overflow_y.o
LOAD /home/bob/ofiles/libcss-parse-properties-autogenerated_padding_bottom.o
LOAD /home/bob/ofiles/libcss-parse-properties-autogenerated_padding_left.o
LOAD /home/bob/ofiles/libcss-parse-properties-autogenerated_padding_right.o
LOAD /home/bob/ofiles/libcss-parse-properties-autogenerated_padding_side.o
LOAD /home/bob/ofiles/libcss-parse-properties-autogenerated_padding_top.o
LOAD /home/bob/ofiles/libcss-parse-properties-autogenerated_page_break_after.o
LOAD /home/bob/ofiles/libcss-parse-properties-autogenerated_page_break_before.o
LOAD /home/bob/ofiles/libcss-parse-properties-autogenerated_page_break_inside.o
LOAD /home/bob/ofiles/libcss-parse-properties-autogenerated_pause_after.o
LOAD /home/bob/ofiles/libcss-parse-properties-autogenerated_pause_before.o
LOAD /home/bob/ofiles/libcss-parse-properties-autogenerated_pitch.o
LOAD /home/bob/ofiles/libcss-parse-properties-autogenerated_pitch_range.o
LOAD /home/bob/ofiles/libcss-parse-properties-autogenerated_position.o
LOAD /home/bob/ofiles/libcss-parse-properties-autogenerated_richness.o
LOAD /home/bob/ofiles/libcss-parse-properties-autogenerated_right.o
LOAD /home/bob/ofiles/libcss-parse-properties-autogenerated_side.o
LOAD /home/bob/ofiles/libcss-parse-properties-autogenerated_speak.o
LOAD /home/bob/ofiles/libcss-parse-properties-autogenerated_speak_header.o
LOAD /home/bob/ofiles/libcss-parse-properties-autogenerated_speak_numeral.o
LOAD /home/bob/ofiles/libcss-parse-properties-autogenerated_speak_punctuation.o
LOAD /home/bob/ofiles/libcss-parse-properties-autogenerated_speech_rate.o
LOAD /home/bob/ofiles/libcss-parse-properties-autogenerated_stress.o
LOAD /home/bob/ofiles/libcss-parse-properties-autogenerated_table_layout.o
LOAD /home/bob/ofiles/libcss-parse-properties-autogenerated_text_align.o
LOAD /home/bob/ofiles/libcss-parse-properties-autogenerated_text_indent.o
LOAD /home/bob/ofiles/libcss-parse-properties-autogenerated_text_transform.o
LOAD /home/bob/ofiles/libcss-parse-properties-autogenerated_top.o
LOAD /home/bob/ofiles/libcss-parse-properties-autogenerated_unicode_bidi.o
LOAD /home/bob/ofiles/libcss-parse-properties-autogenerated_vertical_align.o
LOAD /home/bob/ofiles/libcss-parse-properties-autogenerated_visibility.o
LOAD /home/bob/ofiles/libcss-parse-properties-autogenerated_volume.o
LOAD /home/bob/ofiles/libcss-parse-properties-autogenerated_white_space.o
LOAD /home/bob/ofiles/libcss-parse-properties-autogenerated_widows.o
LOAD /home/bob/ofiles/libcss-parse-properties-autogenerated_width.o
LOAD /home/bob/ofiles/libcss-parse-properties-autogenerated_word_spacing.o
LOAD /home/bob/ofiles/libcss-parse-properties-autogenerated_writing_mode.o
LOAD /home/bob/ofiles/libcss-parse-properties-autogenerated_z_index.o
LOAD /home/bob/ofiles/libcss-parse-properties-azimuth.o
LOAD /home/bob/ofiles/libcss-parse-properties-background.o
LOAD /home/bob/ofiles/libcss-parse-properties-background_position.o
LOAD /home/bob/ofiles/libcss-parse-properties-border.o
LOAD /home/bob/ofiles/libcss-parse-properties-border_color.o
LOAD /home/bob/ofiles/libcss-parse-properties-border_spacing.o
LOAD /home/bob/ofiles/libcss-parse-properties-border_style.o
LOAD /home/bob/ofiles/libcss-parse-properties-border_width.o
LOAD /home/bob/ofiles/libcss-parse-properties-clip.o
LOAD /home/bob/ofiles/libcss-parse-properties-column_rule.o
LOAD /home/bob/ofiles/libcss-parse-properties-columns.o
LOAD /home/bob/ofiles/libcss-parse-properties-content.o
LOAD /home/bob/ofiles/libcss-parse-properties-cue.o
LOAD /home/bob/ofiles/libcss-parse-properties-cursor.o
LOAD /home/bob/ofiles/libcss-parse-properties-elevation.o
LOAD /home/bob/ofiles/libcss-parse-properties-font.o
LOAD /home/bob/ofiles/libcss-parse-properties-font_family.o
LOAD /home/bob/ofiles/libcss-parse-properties-font_weight.o
LOAD /home/bob/ofiles/libcss-parse-properties-list_style.o
LOAD /home/bob/ofiles/libcss-parse-properties-list_style_type.o
LOAD /home/bob/ofiles/libcss-parse-properties-margin.o
LOAD /home/bob/ofiles/libcss-parse-properties-opacity.o
LOAD /home/bob/ofiles/libcss-parse-properties-outline.o
LOAD /home/bob/ofiles/libcss-parse-properties-overflow.o
LOAD /home/bob/ofiles/libcss-parse-properties-padding.o
LOAD /home/bob/ofiles/libcss-parse-properties-pause.o
LOAD /home/bob/ofiles/libcss-parse-properties-play_during.o
LOAD /home/bob/ofiles/libcss-parse-properties-properties.o
LOAD /home/bob/ofiles/libcss-parse-properties-quotes.o
LOAD /home/bob/ofiles/libcss-parse-properties-text_decoration.o
LOAD /home/bob/ofiles/libcss-parse-properties-utils.o
LOAD /home/bob/ofiles/libcss-parse-properties-voice_family.o
LOAD /home/bob/ofiles/libcss-parse-propstrings.o
LOAD /home/bob/ofiles/libcss-select-computed.o
LOAD /home/bob/ofiles/libcss-select-dispatch.o
LOAD /home/bob/ofiles/libcss-select-font_face.o
LOAD /home/bob/ofiles/libcss-select-hash.o
LOAD /home/bob/ofiles/libcss-select-properties-azimuth.o
LOAD /home/bob/ofiles/libcss-select-properties-background_attachment.o
LOAD /home/bob/ofiles/libcss-select-properties-background_color.o
LOAD /home/bob/ofiles/libcss-select-properties-background_image.o
LOAD /home/bob/ofiles/libcss-select-properties-background_position.o
LOAD /home/bob/ofiles/libcss-select-properties-background_repeat.o
LOAD /home/bob/ofiles/libcss-select-properties-border_bottom_color.o
LOAD /home/bob/ofiles/libcss-select-properties-border_bottom_style.o
LOAD /home/bob/ofiles/libcss-select-properties-border_bottom_width.o
LOAD /home/bob/ofiles/libcss-select-properties-border_collapse.o
LOAD /home/bob/ofiles/libcss-select-properties-border_left_color.o
LOAD /home/bob/ofiles/libcss-select-properties-border_left_style.o
LOAD /home/bob/ofiles/libcss-select-properties-border_left_width.o
LOAD /home/bob/ofiles/libcss-select-properties-border_right_color.o
LOAD /home/bob/ofiles/libcss-select-properties-border_right_style.o
LOAD /home/bob/ofiles/libcss-select-properties-border_right_width.o
LOAD /home/bob/ofiles/libcss-select-properties-border_spacing.o
LOAD /home/bob/ofiles/libcss-select-properties-border_top_color.o
LOAD /home/bob/ofiles/libcss-select-properties-border_top_style.o
LOAD /home/bob/ofiles/libcss-select-properties-border_top_width.o
LOAD /home/bob/ofiles/libcss-select-properties-bottom.o
LOAD /home/bob/ofiles/libcss-select-properties-break_after.o
LOAD /home/bob/ofiles/libcss-select-properties-break_before.o
LOAD /home/bob/ofiles/libcss-select-properties-break_inside.o
LOAD /home/bob/ofiles/libcss-select-properties-caption_side.o
LOAD /home/bob/ofiles/libcss-select-properties-clear.o
LOAD /home/bob/ofiles/libcss-select-properties-clip.o
LOAD /home/bob/ofiles/libcss-select-properties-color.o
LOAD /home/bob/ofiles/libcss-select-properties-column_count.o
LOAD /home/bob/ofiles/libcss-select-properties-column_fill.o
LOAD /home/bob/ofiles/libcss-select-properties-column_gap.o
LOAD /home/bob/ofiles/libcss-select-properties-column_rule_color.o
LOAD /home/bob/ofiles/libcss-select-properties-column_rule_style.o
LOAD /home/bob/ofiles/libcss-select-properties-column_rule_width.o
LOAD /home/bob/ofiles/libcss-select-properties-column_span.o
LOAD /home/bob/ofiles/libcss-select-properties-column_width.o
LOAD /home/bob/ofiles/libcss-select-properties-content.o
LOAD /home/bob/ofiles/libcss-select-properties-counter_increment.o
LOAD /home/bob/ofiles/libcss-select-properties-counter_reset.o
LOAD /home/bob/ofiles/libcss-select-properties-cue_after.o
LOAD /home/bob/ofiles/libcss-select-properties-cue_before.o
LOAD /home/bob/ofiles/libcss-select-properties-cursor.o
LOAD /home/bob/ofiles/libcss-select-properties-direction.o
LOAD /home/bob/ofiles/libcss-select-properties-display.o
LOAD /home/bob/ofiles/libcss-select-properties-elevation.o
LOAD /home/bob/ofiles/libcss-select-properties-empty_cells.o
LOAD /home/bob/ofiles/libcss-select-properties-float.o
LOAD /home/bob/ofiles/libcss-select-properties-font_family.o
LOAD /home/bob/ofiles/libcss-select-properties-font_size.o
LOAD /home/bob/ofiles/libcss-select-properties-font_style.o
LOAD /home/bob/ofiles/libcss-select-properties-font_variant.o
LOAD /home/bob/ofiles/libcss-select-properties-font_weight.o
LOAD /home/bob/ofiles/libcss-select-properties-height.o
LOAD /home/bob/ofiles/libcss-select-properties-helpers.o
LOAD /home/bob/ofiles/libcss-select-properties-left.o
LOAD /home/bob/ofiles/libcss-select-properties-letter_spacing.o
LOAD /home/bob/ofiles/libcss-select-properties-line_height.o
LOAD /home/bob/ofiles/libcss-select-properties-list_style_image.o
LOAD /home/bob/ofiles/libcss-select-properties-list_style_position.o
LOAD /home/bob/ofiles/libcss-select-properties-list_style_type.o
LOAD /home/bob/ofiles/libcss-select-properties-margin_bottom.o
LOAD /home/bob/ofiles/libcss-select-properties-margin_left.o
LOAD /home/bob/ofiles/libcss-select-properties-margin_right.o
LOAD /home/bob/ofiles/libcss-select-properties-margin_top.o
LOAD /home/bob/ofiles/libcss-select-properties-max_height.o
LOAD /home/bob/ofiles/libcss-select-properties-max_width.o
LOAD /home/bob/ofiles/libcss-select-properties-min_height.o
LOAD /home/bob/ofiles/libcss-select-properties-min_width.o
LOAD /home/bob/ofiles/libcss-select-properties-opacity.o
LOAD /home/bob/ofiles/libcss-select-properties-orphans.o
LOAD /home/bob/ofiles/libcss-select-properties-outline_color.o
LOAD /home/bob/ofiles/libcss-select-properties-outline_style.o
LOAD /home/bob/ofiles/libcss-select-properties-outline_width.o
LOAD /home/bob/ofiles/libcss-select-properties-overflow_x.o
LOAD /home/bob/ofiles/libcss-select-properties-overflow_y.o
LOAD /home/bob/ofiles/libcss-select-properties-padding_bottom.o
LOAD /home/bob/ofiles/libcss-select-properties-padding_left.o
LOAD /home/bob/ofiles/libcss-select-properties-padding_right.o
LOAD /home/bob/ofiles/libcss-select-properties-padding_top.o
LOAD /home/bob/ofiles/libcss-select-properties-page_break_after.o
LOAD /home/bob/ofiles/libcss-select-properties-page_break_before.o
LOAD /home/bob/ofiles/libcss-select-properties-page_break_inside.o
LOAD /home/bob/ofiles/libcss-select-properties-pause_after.o
LOAD /home/bob/ofiles/libcss-select-properties-pause_before.o
LOAD /home/bob/ofiles/libcss-select-properties-pitch.o
LOAD /home/bob/ofiles/libcss-select-properties-pitch_range.o
LOAD /home/bob/ofiles/libcss-select-properties-play_during.o
LOAD /home/bob/ofiles/libcss-select-properties-position.o
LOAD /home/bob/ofiles/libcss-select-properties-quotes.o
LOAD /home/bob/ofiles/libcss-select-properties-richness.o
LOAD /home/bob/ofiles/libcss-select-properties-right.o
LOAD /home/bob/ofiles/libcss-select-properties-speak.o
LOAD /home/bob/ofiles/libcss-select-properties-speak_header.o
LOAD /home/bob/ofiles/libcss-select-properties-speak_numeral.o
LOAD /home/bob/ofiles/libcss-select-properties-speak_punctuation.o
LOAD /home/bob/ofiles/libcss-select-properties-speech_rate.o
LOAD /home/bob/ofiles/libcss-select-properties-stress.o
LOAD /home/bob/ofiles/libcss-select-properties-table_layout.o
LOAD /home/bob/ofiles/libcss-select-properties-text_align.o
LOAD /home/bob/ofiles/libcss-select-properties-text_decoration.o
LOAD /home/bob/ofiles/libcss-select-properties-text_indent.o
LOAD /home/bob/ofiles/libcss-select-properties-text_transform.o
LOAD /home/bob/ofiles/libcss-select-properties-top.o
LOAD /home/bob/ofiles/libcss-select-properties-unicode_bidi.o
LOAD /home/bob/ofiles/libcss-select-properties-vertical_align.o
LOAD /home/bob/ofiles/libcss-select-properties-visibility.o
LOAD /home/bob/ofiles/libcss-select-properties-voice_family.o
LOAD /home/bob/ofiles/libcss-select-properties-volume.o
LOAD /home/bob/ofiles/libcss-select-properties-white_space.o
LOAD /home/bob/ofiles/libcss-select-properties-widows.o
LOAD /home/bob/ofiles/libcss-select-properties-width.o
LOAD /home/bob/ofiles/libcss-select-properties-word_spacing.o
LOAD /home/bob/ofiles/libcss-select-properties-writing_mode.o
LOAD /home/bob/ofiles/libcss-select-properties-z_index.o
LOAD /home/bob/ofiles/libcss-select-select.o
LOAD /home/bob/ofiles/libcss-stylesheet.o
LOAD /home/bob/ofiles/libcss-utils-errors.o
LOAD /home/bob/ofiles/libcss-utils-utils.o
LOAD /home/bob/ofiles/libdom-bindings-parser.o
LOAD /home/bob/ofiles/libdom-core-attr.o
LOAD /home/bob/ofiles/libdom-core-cdatasection.o
LOAD /home/bob/ofiles/libdom-core-characterdata.o
LOAD /home/bob/ofiles/libdom-core-comment.o
LOAD /home/bob/ofiles/libdom-core-doc_fragment.o
LOAD /home/bob/ofiles/libdom-core-document.o
LOAD /home/bob/ofiles/libdom-core-document_type.o
LOAD /home/bob/ofiles/libdom-core-element.o
LOAD /home/bob/ofiles/libdom-core-entity_ref.o
LOAD /home/bob/ofiles/libdom-core-implementation.o
LOAD /home/bob/ofiles/libdom-core-namednodemap.o
LOAD /home/bob/ofiles/libdom-core-node.o
LOAD /home/bob/ofiles/libdom-core-nodelist.o
LOAD /home/bob/ofiles/libdom-core-pi.o
LOAD /home/bob/ofiles/libdom-core-string.o
LOAD /home/bob/ofiles/libdom-core-text.o
LOAD /home/bob/ofiles/libdom-core-typeinfo.o
LOAD /home/bob/ofiles/libdom-events-custom_event.o
LOAD /home/bob/ofiles/libdom-events-dispatch.o
LOAD /home/bob/ofiles/libdom-events-document_event.o
LOAD /home/bob/ofiles/libdom-events-event.o
LOAD /home/bob/ofiles/libdom-events-event_listener.o
LOAD /home/bob/ofiles/libdom-events-event_target.o
LOAD /home/bob/ofiles/libdom-events-keyboard_event.o
LOAD /home/bob/ofiles/libdom-events-mouse_event.o
LOAD /home/bob/ofiles/libdom-events-mouse_multi_wheel_event.o
LOAD /home/bob/ofiles/libdom-events-mouse_wheel_event.o
LOAD /home/bob/ofiles/libdom-events-mutation_event.o
LOAD /home/bob/ofiles/libdom-events-mutation_name_event.o
LOAD /home/bob/ofiles/libdom-events-text_event.o
LOAD /home/bob/ofiles/libdom-events-ui_event.o
LOAD /home/bob/ofiles/libdom-html-html_anchor_element.o
LOAD /home/bob/ofiles/libdom-html-html_applet_element.o
LOAD /home/bob/ofiles/libdom-html-html_area_element.o
LOAD /home/bob/ofiles/libdom-html-html_base_element.o
LOAD /home/bob/ofiles/libdom-html-html_basefont_element.o
LOAD /home/bob/ofiles/libdom-html-html_body_element.o
LOAD /home/bob/ofiles/libdom-html-html_br_element.o
LOAD /home/bob/ofiles/libdom-html-html_button_element.o
LOAD /home/bob/ofiles/libdom-html-html_collection.o
LOAD /home/bob/ofiles/libdom-html-html_directory_element.o
LOAD /home/bob/ofiles/libdom-html-html_div_element.o
LOAD /home/bob/ofiles/libdom-html-html_dlist_element.o
LOAD /home/bob/ofiles/libdom-html-html_document.o
LOAD /home/bob/ofiles/libdom-html-html_element.o
LOAD /home/bob/ofiles/libdom-html-html_fieldset_element.o
LOAD /home/bob/ofiles/libdom-html-html_font_element.o
LOAD /home/bob/ofiles/libdom-html-html_form_element.o
LOAD /home/bob/ofiles/libdom-html-html_frame_element.o
LOAD /home/bob/ofiles/libdom-html-html_frameset_element.o
LOAD /home/bob/ofiles/libdom-html-html_head_element.o
LOAD /home/bob/ofiles/libdom-html-html_heading_element.o
LOAD /home/bob/ofiles/libdom-html-html_hr_element.o
LOAD /home/bob/ofiles/libdom-html-html_html_element.o
LOAD /home/bob/ofiles/libdom-html-html_iframe_element.o
LOAD /home/bob/ofiles/libdom-html-html_image_element.o
LOAD /home/bob/ofiles/libdom-html-html_input_element.o
LOAD /home/bob/ofiles/libdom-html-html_isindex_element.o
LOAD /home/bob/ofiles/libdom-html-html_label_element.o
LOAD /home/bob/ofiles/libdom-html-html_legend_element.o
LOAD /home/bob/ofiles/libdom-html-html_li_element.o
LOAD /home/bob/ofiles/libdom-html-html_link_element.o
LOAD /home/bob/ofiles/libdom-html-html_map_element.o
LOAD /home/bob/ofiles/libdom-html-html_menu_element.o
LOAD /home/bob/ofiles/libdom-html-html_meta_element.o
LOAD /home/bob/ofiles/libdom-html-html_mod_element.o
LOAD /home/bob/ofiles/libdom-html-html_object_element.o
LOAD /home/bob/ofiles/libdom-html-html_olist_element.o
LOAD /home/bob/ofiles/libdom-html-html_opt_group_element.o
LOAD /home/bob/ofiles/libdom-html-html_option_element.o
LOAD /home/bob/ofiles/libdom-html-html_options_collection.o
LOAD /home/bob/ofiles/libdom-html-html_paragraph_element.o
LOAD /home/bob/ofiles/libdom-html-html_param_element.o
LOAD /home/bob/ofiles/libdom-html-html_pre_element.o
LOAD /home/bob/ofiles/libdom-html-html_quote_element.o
LOAD /home/bob/ofiles/libdom-html-html_script_element.o
LOAD /home/bob/ofiles/libdom-html-html_select_element.o
LOAD /home/bob/ofiles/libdom-html-html_style_element.o
LOAD /home/bob/ofiles/libdom-html-html_table_element.o
LOAD /home/bob/ofiles/libdom-html-html_tablecaption_element.o
LOAD /home/bob/ofiles/libdom-html-html_tablecell_element.o
LOAD /home/bob/ofiles/libdom-html-html_tablecol_element.o
LOAD /home/bob/ofiles/libdom-html-html_tablerow_element.o
LOAD /home/bob/ofiles/libdom-html-html_tablesection_element.o
LOAD /home/bob/ofiles/libdom-html-html_text_area_element.o
LOAD /home/bob/ofiles/libdom-html-html_title_element.o
LOAD /home/bob/ofiles/libdom-html-html_ulist_element.o
LOAD /home/bob/ofiles/libdom-utils-character_valid.o
LOAD /home/bob/ofiles/libdom-utils-hashtable.o
LOAD /home/bob/ofiles/libdom-utils-namespace.o
LOAD /home/bob/ofiles/libdom-utils-validate.o
LOAD /home/bob/ofiles/libhubbub-charset-detect.o
LOAD /home/bob/ofiles/libhubbub-parser.o
LOAD /home/bob/ofiles/libhubbub-tokeniser-entities.o
LOAD /home/bob/ofiles/libhubbub-tokeniser-tokeniser.o
LOAD /home/bob/ofiles/libhubbub-treebuilder-after_after_body.o
LOAD /home/bob/ofiles/libhubbub-treebuilder-after_after_frameset.o
LOAD /home/bob/ofiles/libhubbub-treebuilder-after_body.o
LOAD /home/bob/ofiles/libhubbub-treebuilder-after_frameset.o
LOAD /home/bob/ofiles/libhubbub-treebuilder-after_head.o
LOAD /home/bob/ofiles/libhubbub-treebuilder-before_head.o
LOAD /home/bob/ofiles/libhubbub-treebuilder-before_html.o
LOAD /home/bob/ofiles/libhubbub-treebuilder-generic_rcdata.o
LOAD /home/bob/ofiles/libhubbub-treebuilder-in_body.o
LOAD /home/bob/ofiles/libhubbub-treebuilder-in_caption.o
LOAD /home/bob/ofiles/libhubbub-treebuilder-in_cell.o
LOAD /home/bob/ofiles/libhubbub-treebuilder-in_column_group.o
LOAD /home/bob/ofiles/libhubbub-treebuilder-in_foreign_content.o
LOAD /home/bob/ofiles/libhubbub-treebuilder-in_frameset.o
LOAD /home/bob/ofiles/libhubbub-treebuilder-in_head.o
LOAD /home/bob/ofiles/libhubbub-treebuilder-in_head_noscript.o
LOAD /home/bob/ofiles/libhubbub-treebuilder-in_row.o
LOAD /home/bob/ofiles/libhubbub-treebuilder-in_select.o
LOAD /home/bob/ofiles/libhubbub-treebuilder-in_select_in_table.o
LOAD /home/bob/ofiles/libhubbub-treebuilder-in_table.o
LOAD /home/bob/ofiles/libhubbub-treebuilder-in_table_body.o
LOAD /home/bob/ofiles/libhubbub-treebuilder-initial.o
LOAD /home/bob/ofiles/libhubbub-treebuilder-treebuilder.o
LOAD /home/bob/ofiles/libhubbub-utils-errors.o
LOAD /home/bob/ofiles/libhubbub-utils-string.o
LOAD /home/bob/ofiles/libnsbmp-libnsbmp.o
LOAD /home/bob/ofiles/libnsgif-libnsgif.o
LOAD /home/bob/ofiles/libnsutils-base64.o
LOAD /home/bob/ofiles/libnsutils-time.o
LOAD /home/bob/ofiles/libnsutils-unistd.o
LOAD /home/bob/ofiles/libparserutils-charset-aliases.o
LOAD /home/bob/ofiles/libparserutils-charset-codec.o
LOAD /home/bob/ofiles/libparserutils-charset-codecs-codec_8859.o
LOAD /home/bob/ofiles/libparserutils-charset-codecs-codec_ascii.o
LOAD /home/bob/ofiles/libparserutils-charset-codecs-codec_ext8.o
LOAD /home/bob/ofiles/libparserutils-charset-codecs-codec_utf16.o
LOAD /home/bob/ofiles/libparserutils-charset-codecs-codec_utf8.o
LOAD /home/bob/ofiles/libparserutils-charset-encodings-utf16.o
LOAD /home/bob/ofiles/libparserutils-charset-encodings-utf8.o
LOAD /home/bob/ofiles/libparserutils-input-filter.o
LOAD /home/bob/ofiles/libparserutils-input-inputstream.o
LOAD /home/bob/ofiles/libparserutils-utils-buffer.o
LOAD /home/bob/ofiles/libparserutils-utils-errors.o
LOAD /home/bob/ofiles/libparserutils-utils-stack.o
LOAD /home/bob/ofiles/libparserutils-utils-vector.o
LOAD /home/bob/ofiles/libutf8proc-utf8proc.o
LOAD /home/bob/ofiles/libwapcaplet-libwapcaplet.o
LOAD loadboxlib.obj
LOAD loadhttp.obj

.text           0x0000000000000000   0x15e200
                0x0000000000000000        0x4 LONG 0x554e454d
                0x0000000000000004        0x4 LONG 0x32305445
                0x0000000000000008        0x4 LONG 0x1
                0x000000000000000c        0x4 LONG 0x280 __start
                0x0000000000000010        0x4 LONG 0x27920c ___iend
                0x0000000000000014        0x4 LONG 0x2b1fd0 ___memsize
                0x0000000000000018        0x4 LONG 0x2b1fd0 ___stacktop
                0x000000000000001c        0x4 LONG 0x2b1ac0 ___cmdline
                0x0000000000000020        0x4 LONG 0x2b1bc0 ___pgmname
                0x0000000000000024        0x4 LONG 0x0
                0x0000000000000028        0x4 LONG 0x279210 __idata_start
                0x000000000000002c        0x4 LONG 0x27996c __idata_end
                0x0000000000000030        0x4 LONG 0x5bb65 _main
 *(.init)
 .init          0x0000000000000034      0x249 loadboxlib.obj
                0x00000000000001ba                init_boxlib_asm
                0x00000000000001e0                editbox_key@4
                0x0000000000000218                edit_box_draw
                0x000000000000021c                edit_box_key
                0x0000000000000220                edit_box_mouse
                0x0000000000000224                check_box_draw2
                0x0000000000000228                check_box_mouse2
 *fill*         0x000000000000027d        0x3 
 .init          0x0000000000000280       0x84 /home/autobuild/tools/win32/lib/libapp.a(start.o)
                0x0000000000000280                _start
 *(.text)
 .text          0x0000000000000304     0x2978 content_content.o
                0x0000000000000304                content__init
                0x0000000000000813                content_can_reformat
                0x0000000000000923                content_set_status
                0x0000000000000aaf                content_set_ready
                0x0000000000000b61                content_set_done
                0x0000000000000bec                content_set_error
                0x0000000000000c05                content_reformat
                0x0000000000000c41                content__reformat
                0x0000000000000de4                content_destroy
                0x0000000000000fad                content_mouse_track
                0x000000000000108a                content_mouse_action
                0x0000000000001105                content_keypress
                0x0000000000001171                content_request_redraw
                0x00000000000011a8                content__request_redraw
                0x0000000000001255                content_redraw
                0x00000000000012e4                content_scaled_redraw
                0x00000000000014f3                content_add_user
                0x00000000000015a5                content_remove_user
                0x00000000000016c0                content_count_users
                0x0000000000001747                content_matches_quirks
                0x0000000000001782                content_is_shareable
                0x00000000000017a2                content_broadcast
                0x0000000000001868                content_broadcast_errorcode
                0x0000000000001935                content_open
                0x00000000000019f7                content_close
                0x0000000000001aa4                content_clear_selection
                0x0000000000001b02                content_get_selection
                0x0000000000001b67                content_get_contextual_content
                0x0000000000001bea                content_scroll_at_point
                0x0000000000001c6b                content_drop_file_at_point
                0x0000000000001ce5                content_search
                0x0000000000001d58                content_search_clear
                0x0000000000001db6                content_debug_dump
                0x0000000000001e29                content_debug
                0x0000000000001e78                content_add_error
                0x0000000000001e7d                content_find_rfc5988_link
                0x0000000000001f39                content__free_rfc5988_link
                0x00000000000021ae                content__add_rfc5988_link
                0x0000000000002430                content_get_url
                0x0000000000002452                content_get_type
                0x0000000000002480                content_get_mime_type
                0x000000000000249b                content__get_mime_type
                0x00000000000024f6                content__set_title
                0x000000000000253f                content_get_title
                0x000000000000255a                content__get_title
                0x0000000000002596                content_get_status
                0x00000000000025b1                content__get_status
                0x00000000000025c9                content_get_status_message
                0x00000000000025e4                content__get_status_message
                0x00000000000025fc                content_get_width
                0x0000000000002617                content__get_width
                0x000000000000262f                content_get_height
                0x000000000000264a                content__get_height
                0x0000000000002662                content_get_available_width
                0x000000000000267d                content__get_available_width
                0x0000000000002695                content_get_source_data
                0x00000000000026b7                content__get_source_data
                0x0000000000002718                content_invalidate_reuse_data
                0x0000000000002733                content__invalidate_reuse_data
                0x0000000000002759                content_get_refresh_url
                0x0000000000002774                content__get_refresh_url
                0x000000000000278c                content_get_bitmap
                0x00000000000027a7                content__get_bitmap
                0x000000000000280f                content_get_opaque
                0x000000000000282a                content__get_opaque
                0x00000000000028b3                content_get_quirks
                0x00000000000028dd                content_get_encoding
                0x00000000000028ff                content__get_encoding
                0x0000000000002949                content_is_locked
                0x0000000000002964                content__is_locked
                0x0000000000002973                content_get_llcache_handle
                0x000000000000298a                content_clone
                0x00000000000029bd                content__clone
                0x0000000000002c11                content_abort
 .text          0x0000000000002c7c      0x440 content_content_factory.o
                0x0000000000002c7c                content_factory_fini
                0x0000000000002d38                content_factory_register_handler
                0x0000000000002f86                content_factory_type_from_mime_type
                0x0000000000002fb7                content_factory_create_content
 .text          0x00000000000030bc      0x464 content_dirlist.o
                0x00000000000030bc                dirlist_generate_top
                0x00000000000030fb                dirlist_generate_hide_columns
                0x00000000000031c5                dirlist_generate_title
                0x000000000000321f                dirlist_generate_parent_link
                0x0000000000003275                dirlist_generate_headings
                0x0000000000003319                dirlist_generate_row
                0x000000000000345b                dirlist_generate_bottom
 .text          0x0000000000003520     0x1398 content_fetch.o
                0x0000000000003a36                fetcher_init
                0x0000000000003aa8                fetcher_quit
                0x0000000000003bc9                fetcher_add
                0x0000000000003c97                FD_ZERO
                0x0000000000003c9c                fetcher_fdset
                0x0000000000003dca                fetch_start
                0x0000000000004290                fetch_abort
                0x00000000000042e5                fetch_free
                0x00000000000043c6                fetch_can_fetch
                0x0000000000004486                fetch_change_callback
                0x00000000000044c9                fetch_http_code
                0x00000000000044d4                fetch_get_verifiable
                0x000000000000450d                fetch_multipart_data_clone
                0x00000000000046a7                fetch_multipart_data_destroy
                0x0000000000004705                fetch_send_callback
                0x0000000000004724                fetch_remove_from_queues
                0x00000000000047f6                fetch_set_http_code
                0x0000000000004804                fetch_get_referer_to_send
                0x000000000000482c                fetch_set_cookie
 .text          0x00000000000048b8     0x11f0 content_fetchers_about.o
                0x0000000000005a0f                fetch_about_register
 .text          0x0000000000005aa8      0x88c content_fetchers_data.o
                0x000000000000629a                fetch_data_register
 .text          0x0000000000006334     0x10fc content_fetchers_file.o
                0x0000000000007394                fetch_file_register
 .text          0x0000000000007430      0x22c content_fetchers_http_kolibri.o
                0x0000000000007430                http_kolibri_handle_init
                0x000000000000743a                http_kolibri_multi_fdset
                0x000000000000743f                fetch_http_kolibri_initialise
                0x000000000000748b                fetch_http_kolibri_can_fetch
                0x00000000000074a6                fetch_http_kolibri_setup
                0x0000000000007504                fetch_http_kolibri_start
                0x0000000000007563                fetch_http_kolibri_abort
                0x0000000000007568                fetch_http_kolibri_free
                0x0000000000007584                fetch_http_kolibri_poll
                0x00000000000075bf                fetch_http_kolibri_finalise
                0x00000000000075c4                fetch_http_kolibri_register
                0x0000000000007657                kolibri_getdate
 .text          0x000000000000765c      0xb50 content_fetchers_resource.o
                0x0000000000008112                fetch_resource_register
 .text          0x00000000000081ac     0x1634 content_hlcache.o
                0x0000000000008d53                hlcache_initialise
                0x0000000000008e48                hlcache_stop
                0x0000000000008e72                hlcache_finalise
                0x000000000000915d                hlcache_handle_retrieve
                0x000000000000936c                hlcache_handle_release
                0x00000000000094b4                hlcache_handle_get_content
                0x00000000000094d6                hlcache_handle_abort
                0x000000000000970c                hlcache_handle_replace_callback
                0x0000000000009728                hlcache_handle_clone
                0x000000000000973b                hlcache_handle_get_url
 .text          0x00000000000097e0     0x48ac content_llcache.o
                0x000000000000d4cc                llcache_clean
                0x000000000000d81f                llcache_initialise
                0x000000000000d91a                llcache_finalise
                0x000000000000dba8                llcache_handle_retrieve
                0x000000000000dc7c                llcache_handle_change_callback
                0x000000000000dc98                llcache_handle_release
                0x000000000000dd27                llcache_handle_clone
                0x000000000000dd86                llcache_handle_abort
                0x000000000000dedf                llcache_handle_force_stream
                0x000000000000df77                llcache_handle_invalidate_cache_data
                0x000000000000dfae                llcache_handle_get_url
                0x000000000000dfcb                llcache_handle_get_source_data
                0x000000000000e005                llcache_handle_get_header
                0x000000000000e075                llcache_handle_references_same_object
 .text          0x000000000000e08c     0x2a9c content_mimesniff.o
                0x000000000000e08c                mimesniff_init
                0x000000000000e556                mimesniff_fini
                0x000000000001016e                mimesniff_compute_effective_type
 .text          0x0000000000010b28       0x3c content_no_backing_store.o
 .text          0x0000000000010b64     0x8250 content_urldb.o
                0x000000000001491d                urldb_destroy
                0x000000000001499b                urldb_load
                0x000000000001534c                urldb_save
                0x000000000001542e                urldb_set_url_persistence
                0x0000000000015486                urldb_add_url
                0x0000000000015907                urldb_set_url_title
                0x0000000000015982                urldb_set_url_content_type
                0x00000000000159d3                urldb_update_url_visit_data
                0x0000000000015a3c                urldb_reset_url_visit_data
                0x0000000000015a98                urldb_get_url_data
                0x0000000000015af1                urldb_get_url
                0x0000000000015b43                urldb_set_auth_details
                0x0000000000015d3f                urldb_get_auth_details
                0x0000000000015e52                urldb_set_cert_permissions
                0x0000000000015f00                urldb_get_cert_permissions
                0x0000000000015f9f                urldb_set_thumbnail
                0x0000000000016057                urldb_get_thumbnail
                0x00000000000160aa                urldb_iterate_partial
                0x00000000000162e4                urldb_iterate_entries
                0x0000000000016353                urldb_iterate_cookies
                0x00000000000163c2                urldb_set_cookie
                0x0000000000016ecf                urldb_get_cookie
                0x00000000000176f8                urldb_delete_cookie
                0x0000000000017721                urldb_load_cookies
                0x0000000000018872                urldb_save_cookies
                0x0000000000018941                urldb_dump
                0x0000000000018982                urldb_add_host
                0x0000000000018bb3                urldb_add_path
 .text          0x0000000000018db4     0x1118 css_css.o
                0x000000000001968e                nscss_get_stylesheet
                0x00000000000196d7                nscss_get_imports
                0x0000000000019e95                nscss_init
 .text          0x0000000000019ecc     0x4c6c css_dump.o
                0x0000000000019f2e                nscss_dump_computed_style
 .text          0x000000000001eb38      0x124 css_internal.o
                0x000000000001eb38                nscss_resolve_url
 .text          0x000000000001ec5c     0x573c css_select.o
                0x000000000001f03f                nscss_create_inline_style
                0x000000000001f3ca                nscss_get_style
                0x000000000001f56f                nscss_get_blank_style
                0x000000000001f5d9                nscss_compute_font_size
                0x000000000001f8a8                nscss_parse_colour
 .text          0x0000000000024398      0x454 css_utils.o
                0x0000000000024505                nscss_len2pt
                0x000000000002460c                nscss_len2px
 .text          0x00000000000247ec     0x62f0 desktop_browser.o
                0x00000000000248ce                browser_window_get_name
                0x0000000000024913                browser_window_set_name
                0x000000000002499c                browser_window_redraw
                0x00000000000251db                browser_window_redraw_ready
                0x000000000002524d                browser_window_update_extent
                0x0000000000025282                browser_window_get_position
                0x0000000000025458                browser_window_set_position
                0x00000000000254fb                browser_window_set_drag_type
                0x0000000000025582                browser_window_get_drag_type
                0x000000000002558d                browser_window_get_root
                0x00000000000255b6                browser_window_get_editor_flags
                0x000000000002565f                browser_window_can_select
                0x00000000000256ad                browser_window_get_selection
                0x000000000002574a                browser_window_can_search
                0x0000000000025798                browser_window_is_frameset
                0x00000000000257ab                browser_window_get_scrollbar_type
                0x00000000000258b2                browser_window_scroll_visible
                0x0000000000025989                browser_window_set_scroll
                0x0000000000025b46                browser_window_get_features
                0x0000000000025b95                browser_window_scroll_at_point
                0x0000000000025d59                browser_window_drop_file_at_point
                0x0000000000025ea7                browser_window_set_gadget_filename
                0x0000000000025eca                browser_window_debug_dump
                0x0000000000025efd                browser_window_debug
                0x0000000000025f96                browser_window_create
                0x00000000000261b7                browser_window_initialise_common
                0x0000000000027f1f                browser_window_destroy
                0x0000000000027f6e                browser_window_refresh_url_bar
                0x000000000002805b                browser_window_navigate
                0x0000000000028617                browser_window_up_available
                0x00000000000286a4                browser_window_navigate_up
                0x00000000000287a6                browser_window_get_url
                0x000000000002880f                browser_window_get_title
                0x0000000000028866                browser_window_get_history
                0x000000000002889e                browser_window_has_content
                0x00000000000288e5                browser_window_get_content
                0x00000000000288ef                browser_window_get_extents
                0x00000000000289e8                browser_window_get_dimensions
                0x0000000000028a6e                browser_window_set_dimensions
                0x0000000000028b11                browser_window_update
                0x0000000000028dd7                browser_window_update_box
                0x0000000000028f68                browser_window_stop
                0x0000000000029109                browser_window_reload
                0x0000000000029248                browser_window_set_status
                0x0000000000029366                browser_window_set_pointer
                0x0000000000029471                browser_window_schedule_reformat
                0x00000000000294f2                browser_window_reformat
                0x00000000000296df                browser_window_set_scale
                0x0000000000029744                browser_window_get_scale
                0x0000000000029967                browser_window_find_target
                0x0000000000029ea4                browser_window_mouse_track
                0x000000000002a45f                browser_window_mouse_click
                0x000000000002a8cd                browser_window_redraw_rect
                0x000000000002a8fe                browser_window_page_drag_start
                0x000000000002a9d6                browser_window_back_available
                0x000000000002aa0c                browser_window_forward_available
                0x000000000002aa42                browser_window_reload_available
                0x000000000002aa6f                browser_window_stop_available
                0x000000000002aab1                browser_set_dpi
                0x000000000002aace                browser_get_dpi
 .text          0x000000000002aadc     0x1898 desktop_browser_history.o
                0x000000000002b5fd                browser_window_history_create
                0x000000000002b655                browser_window_history_clone
                0x000000000002b74a                browser_window_history_add
                0x000000000002ba82                browser_window_history_update
                0x000000000002bbaa                browser_window_history_destroy
                0x000000000002bc10                browser_window_history_back
                0x000000000002bc75                browser_window_history_forward
                0x000000000002bcda                browser_window_history_back_available
                0x000000000002bd1b                browser_window_history_forward_available
                0x000000000002bd5c                browser_window_history_go
                0x000000000002be8a                browser_window_history_size
                0x000000000002bf06                browser_window_history_redraw
                0x000000000002bfe0                browser_window_history_redraw_rectangle
                0x000000000002c078                browser_window_history_click
                0x000000000002c115                browser_window_history_position_url
                0x000000000002c188                browser_window_history_enumerate_forward
                0x000000000002c226                browser_window_history_enumerate_back
                0x000000000002c2c4                browser_window_history_enumerate
                0x000000000002c303                browser_window_history_entry_get_url
                0x000000000002c318                browser_window_history_entry_get_fragment_id
                0x000000000002c368                browser_window_history_entry_get_title
 .text          0x000000000002c374     0x142c desktop_cookie_manager.o
                0x000000000002cb6d                cookie_manager_add
                0x000000000002ccbd                cookie_manager_remove
                0x000000000002d44e                cookie_manager_init
                0x000000000002d56b                cookie_manager_fini
                0x000000000002d6cb                cookie_manager_redraw
                0x000000000002d6fc                cookie_manager_mouse_action
                0x000000000002d726                cookie_manager_keypress
                0x000000000002d742                cookie_manager_has_selection
                0x000000000002d757                cookie_manager_expand
                0x000000000002d77a                cookie_manager_contract
 .text          0x000000000002d7a0      0x6fc desktop_download.o
                0x000000000002dcfa                download_context_create
                0x000000000002dd76                download_context_destroy
                0x000000000002de1b                download_context_abort
                0x000000000002de30                download_context_get_url
                0x000000000002de45                download_context_get_mime_type
                0x000000000002de84                download_context_get_total_length
                0x000000000002de8f                download_context_get_filename
 .text          0x000000000002de9c        0x0 desktop_font_haru.o
 .text          0x000000000002de9c     0x25d0 desktop_frames.o
                0x000000000002de9c                browser_window_scroll_callback
                0x000000000002dfed                browser_window_handle_scrollbars
                0x000000000002e2b1                browser_window_create_iframes
                0x000000000002e58b                browser_window_recalculate_iframes
                0x000000000002e5d6                browser_window_create_frameset
                0x000000000002ea96                browser_window_recalculate_frameset
                0x000000000002f798                browser_window_resize_frame
                0x0000000000030400                browser_window_frame_resize_start
 .text          0x000000000003046c     0x1430 desktop_global_history.o
                0x000000000003117a                global_history_init
                0x00000000000312ef                global_history_fini
                0x0000000000031408                global_history_add
                0x0000000000031606                global_history_export
                0x0000000000031762                global_history_redraw
                0x0000000000031793                global_history_mouse_action
                0x00000000000317bd                global_history_keypress
                0x00000000000317d9                global_history_has_selection
                0x00000000000317ee                global_history_get_selection
                0x0000000000031854                global_history_expand
                0x0000000000031877                global_history_contract
 .text          0x000000000003189c      0xb94 desktop_gui_factory.o
                0x000000000003217d                netsurf_register
 .text          0x0000000000032430     0x2458 desktop_hotlist.o
                0x0000000000033a2e                hotlist_export
                0x0000000000033c41                hotlist_iterate
                0x0000000000033f35                hotlist_init
                0x000000000003405a                hotlist_fini
                0x00000000000341b6                hotlist_add_url
                0x00000000000342f6                hotlist_has_url
                0x00000000000343c5                hotlist_remove_url
                0x0000000000034544                hotlist_update_url
                0x00000000000345a9                hotlist_add_entry
                0x00000000000346b8                hotlist_add_folder
                0x0000000000034739                hotlist_redraw
                0x000000000003476a                hotlist_mouse_action
                0x0000000000034794                hotlist_keypress
                0x00000000000347b0                hotlist_has_selection
                0x00000000000347c5                hotlist_get_selection
                0x000000000003482a                hotlist_edit_selection
                0x000000000003483f                hotlist_expand
                0x0000000000034862                hotlist_contract
 .text          0x0000000000034888     0x1d44 desktop_knockout.o
                0x0000000000034888                knockout_plot_start
                0x0000000000034998                knockout_plot_end
 .text          0x00000000000365cc      0x200 desktop_mouse.o
                0x00000000000365cc                browser_mouse_state_dump
 .text          0x00000000000367cc      0x678 desktop_netsurf.o
                0x000000000003690e                netsurf_init
                0x0000000000036c09                netsurf_exit
 .text          0x0000000000036e44        0x0 desktop_plot_style.o
 .text          0x0000000000036e44      0x7f4 desktop_print.o
                0x0000000000036ef6                print_basic_run
                0x0000000000036fc5                print_set_up
                0x0000000000037043                print_draw_next_page
                0x000000000003731b                print_cleanup
                0x0000000000037366                print_make_settings
 .text          0x0000000000037638     0x2654 desktop_save_complete.o
                0x0000000000039c05                save_complete_init
                0x0000000000039c29                save_complete
 .text          0x0000000000039c8c        0x8 desktop_save_pdf.o
                0x0000000000039c8c                save_pdf
 .text          0x0000000000039c94      0x6c8 desktop_save_text.o
                0x0000000000039c94                save_as_text
                0x0000000000039e4f                save_text_solve_whitespace
 .text          0x000000000003a35c     0x1d20 desktop_scrollbar.o
                0x000000000003a35c                scrollbar_create
                0x000000000003a472                scrollbar_destroy
                0x000000000003a767                scrollbar_redraw
                0x000000000003b31e                scrollbar_set
                0x000000000003b47e                scrollbar_scroll
                0x000000000003b5e1                scrollbar_get_offset
                0x000000000003b5f9                scrollbar_set_extents
                0x000000000003b747                scrollbar_is_horizontal
                0x000000000003b8b4                scrollbar_mouse_action
                0x000000000003bd10                scrollbar_mouse_status_to_message
                0x000000000003be64                scrollbar_mouse_drag_end
                0x000000000003bfea                scrollbar_start_content_drag
                0x000000000003c01b                scrollbar_make_pair
                0x000000000003c070                scrollbar_get_data
 .text          0x000000000003c07c       0x60 desktop_search.o
                0x000000000003c07c                browser_window_search
                0x000000000003c0b5                browser_window_search_clear
 .text          0x000000000003c0dc      0xc1c desktop_searchweb.o
                0x000000000003c6e7                search_web_omni
                0x000000000003c818                search_web_select_provider
                0x000000000003caae                search_web_iterate_providers
                0x000000000003caf5                search_web_init
                0x000000000003cc46                search_web_finalise
 .text          0x000000000003ccf8     0x1470 desktop_selection.o
                0x000000000003cd27                selection_create
                0x000000000003cd6f                selection_prepare
                0x000000000003cdc6                selection_destroy
                0x000000000003cddf                selection_reinit
                0x000000000003cec8                selection_init
                0x000000000003cfc7                selection_click
                0x000000000003d209                selection_track
                0x000000000003dcf4                selection_get_copy
                0x000000000003dd86                selection_copy_to_clipboard
                0x000000000003de57                selection_clear
                0x000000000003deeb                selection_select_all
                0x000000000003df4c                selection_set_start
                0x000000000003dffb                selection_set_end
                0x000000000003e0aa                selection_highlighted
 .text          0x000000000003e168      0xcd8 desktop_sslcert_viewer.o
                0x000000000003e8d6                sslcert_viewer_init
                0x000000000003ea9d                sslcert_viewer_fini
                0x000000000003ebc1                sslcert_viewer_create_session_data
                0x000000000003ece5                sslcert_viewer_reject
                0x000000000003ed35                sslcert_viewer_accept
                0x000000000003ed9b                sslcert_viewer_redraw
                0x000000000003edf7                sslcert_viewer_mouse_action
                0x000000000003ee22                sslcert_viewer_keypress
 .text          0x000000000003ee40      0x2a0 desktop_system_colour.o
                0x000000000003ee40                ns_system_colour_init
                0x000000000003eec5                ns_system_colour_finalize
                0x000000000003ef51                ns_system_colour_char
                0x000000000003efb6                ns_system_colour
 .text          0x000000000003f0e0     0x759c desktop_textarea.o
                0x00000000000426de                textarea_create
                0x0000000000042c4a                textarea_destroy
                0x0000000000042cec                textarea_set_text
                0x0000000000042e7a                textarea_drop_text
                0x0000000000043005                textarea_get_text
                0x0000000000043094                textarea_set_caret
                0x0000000000043119                textarea_redraw
                0x0000000000044573                textarea_keypress
                0x0000000000045b76                textarea_mouse_action
                0x0000000000046078                textarea_clear_selection
                0x000000000004633c                textarea_get_selection
                0x00000000000463e0                textarea_get_dimensions
                0x0000000000046407                textarea_set_dimensions
                0x000000000004649e                textarea_set_layout
                0x0000000000046589                textarea_scroll
 .text          0x000000000004667c      0x25c desktop_textinput.o
                0x000000000004667c                browser_window_place_caret
                0x00000000000467e4                browser_window_remove_caret
                0x0000000000046866                browser_window_key_press
 .text          0x00000000000468d8      0x8a0 desktop_tree.o
                0x0000000000046f2b                tree_create
                0x0000000000046fd4                tree_delete
                0x0000000000046ff2                tree_draw
                0x0000000000047060                tree_mouse_action
                0x00000000000470c2                tree_drag_end
                0x0000000000047115                tree_keypress
                0x000000000004713f                tree_drag_status
 .text          0x0000000000047178     0x761c desktop_treeview.o
                0x00000000000479ea                treeview_create_node_folder
                0x0000000000047bf8                treeview_update_node_folder
                0x0000000000047e30                treeview_update_node_entry
                0x0000000000048242                treeview_create_node_entry
                0x00000000000486ea                treeview_walk
                0x0000000000048f7f                treeview_delete_node
                0x000000000004913d                treeview_create
                0x00000000000495f2                treeview_destroy
                0x0000000000049a27                treeview_node_expand
                0x0000000000049cc9                treeview_node_contract
                0x0000000000049d6f                treeview_contract
                0x0000000000049fa4                treeview_expand
                0x000000000004a098                treeview_redraw
                0x000000000004ad69                treeview_has_selection
                0x000000000004adf3                treeview_get_selection
                0x000000000004b75e                treeview_get_relation
                0x000000000004bb4e                treeview_keypress
                0x000000000004c620                treeview_edit_selection
                0x000000000004d069                treeview_mouse_action
                0x000000000004d4fa                treeview_get_height
                0x000000000004e518                treeview_init
                0x000000000004e648                treeview_fini
 .text          0x000000000004e794        0x0 desktop_version.o
 .text          0x000000000004e794      0x214 image_image.o
                0x000000000004e794                image_init
                0x000000000004e7a6                image_bitmap_plot
 .text          0x000000000004e9a8     0x1cf8 image_image_cache.o
                0x000000000004ed4f                image_cache_get_bitmap
                0x000000000004ee66                image_cache_speculate
                0x000000000004eea0                image_cache_find_bitmap
                0x000000000004eec9                image_cache_init
                0x000000000004ef8f                image_cache_fini
                0x000000000004f460                image_cache_add
                0x000000000004f5c4                image_cache_remove
                0x000000000004f62d                image_cache_snsummaryf
                0x0000000000050033                image_cache_snentryf
                0x0000000000050495                image_cache_redraw
                0x0000000000050621                image_cache_destroy
                0x0000000000050680                image_cache_get_internal
                0x0000000000050693                image_cache_content_type
 .text          0x00000000000506a0      0x304 javascript_fetcher.o
                0x000000000005090a                fetch_javascript_register
 .text          0x00000000000509a4       0x58 javascript_none_none.o
                0x00000000000509a4                js_initialise
                0x00000000000509b7                js_finalise
                0x00000000000509bc                js_newcontext
                0x00000000000509cf                js_destroycontext
                0x00000000000509d4                js_newcompartment
                0x00000000000509de                js_exec
                0x00000000000509e8                js_fire_event
                0x00000000000509f2                js_handle_new_element
                0x00000000000509f7                js_event_cleanup
 .text          0x00000000000509fc      0x69c kolibrios_fb_bitmap.o
                0x0000000000050db3                framebuffer_bitmap_get_opaque
 .text          0x0000000000051098      0x168 kolibrios_fb_clipboard.o
 .text          0x0000000000051200      0x284 kolibrios_fb_fbtk_bitmap.o
                0x0000000000051310                fbtk_set_bitmap
                0x0000000000051345                fbtk_create_bitmap
                0x00000000000513c1                fbtk_create_button
 .text          0x0000000000051484      0x6cc kolibrios_fb_fbtk_event.o
                0x0000000000051484                fbtk_input
                0x00000000000514f9                fbtk_click
                0x00000000000515ff                fbtk_tgrab_pointer
                0x000000000005165c                fbtk_warp_pointer
                0x00000000000518b3                fbtk_event
                0x0000000000051a7e                fbtk_keycode_to_ucs4
 .text          0x0000000000051b50      0xff0 kolibrios_fb_fbtk_fbtk.o
                0x0000000000051b50                fbtk_request_redraw
                0x0000000000051c32                fbtk_set_mapping
                0x0000000000051d91                fbtk_set_zorder
                0x0000000000051de4                fbtk_set_pos_and_size
                0x0000000000051ef1                fbtk_set_caret
                0x0000000000051fea                fbtk_destroy_widget
                0x000000000005208f                fbtk_clip_rect
                0x00000000000522d7                fbtk_clip_to_widget
                0x0000000000052311                fbtk_set_ptr
                0x0000000000052391                fbtk_get_root_widget
                0x00000000000523f4                fbtk_get_absx
                0x0000000000052426                fbtk_get_absy
                0x0000000000052458                fbtk_get_height
                0x0000000000052463                fbtk_get_width
                0x000000000005246e                fbtk_get_bbox
                0x000000000005251f                fbtk_get_caret
                0x0000000000052594                fbtk_get_widget_at
                0x000000000005262e                fbtk_widget_new
                0x000000000005276f                fbtk_get_redraw_pending
                0x0000000000052890                fbtk_redraw
                0x00000000000528be                fbtk_get_handler
                0x00000000000528e2                fbtk_set_handler
                0x000000000005292d                fbtk_post_callback
                0x0000000000052a46                fbtk_set_focus
                0x0000000000052a9c                fbtk_get_nsfb
                0x0000000000052abb                fbtk_init
 .text          0x0000000000052b40       0xec kolibrios_fb_fbtk_fill.o
                0x0000000000052bbc                fbtk_create_fill
 .text          0x0000000000052c2c      0x370 kolibrios_fb_fbtk_osk.o
                0x0000000000052c9e                fbtk_enable_oskb
                0x0000000000052f6a                map_osk
 .text          0x0000000000052f9c     0x1348 kolibrios_fb_fbtk_scroll.o
                0x0000000000053670                fbtk_create_vscroll
                0x00000000000537f1                fbtk_reposition_vscroll
                0x0000000000053f4f                fbtk_create_hscroll
                0x00000000000540d0                fbtk_reposition_hscroll
                0x00000000000541bc                fbtk_set_scroll_parameters
                0x000000000005426b                fbtk_set_scroll_position
 .text          0x00000000000542e4     0x1254 kolibrios_fb_fbtk_text.o
                0x0000000000055086                fbtk_writable_text
                0x00000000000550c8                fbtk_set_text
                0x000000000005526e                fbtk_create_text
                0x000000000005531d                fbtk_create_writable_text
                0x000000000005544b                fbtk_create_text_button
 .text          0x0000000000055538       0x7c kolibrios_fb_fbtk_user.o
                0x0000000000055538                fbtk_get_userpw
                0x0000000000055561                fbtk_create_user
 .text          0x00000000000555b4       0xfc kolibrios_fb_fbtk_window.o
                0x0000000000055637                fbtk_create_window
 .text          0x00000000000556b0      0x260 kolibrios_fb_fetch.o
 .text          0x0000000000055910       0x40 kolibrios_fb_findfile.o
                0x0000000000055910                fb_init_resource
 .text          0x0000000000055950      0xb98 kolibrios_fb_font_freetype.o
                0x0000000000055b93                fb_font_init
                0x0000000000055fe3                fb_font_finalise
                0x00000000000561dd                fb_getglyph
 .text          0x00000000000564e8      0x9b4 kolibrios_fb_framebuffer.o
                0x0000000000056bdb                framebuffer_initialise
                0x0000000000056d84                framebuffer_resize
                0x0000000000056e0c                framebuffer_finalise
                0x0000000000056e21                framebuffer_set_cursor
                0x0000000000056e81                framebuffer_set_surface
 .text          0x0000000000056e9c     0x3bc8 kolibrios_fb_gui.o
                0x000000000005a988                gui_resize
 .text          0x000000000005aa64      0x404 kolibrios_fb_localhistory.o
                0x000000000005abfb                fb_create_localhistory
                0x000000000005ae32                fb_localhistory_map
 .text          0x000000000005ae68       0x48 kolibrios_fb_misc.o
                0x000000000005ae68                warn_user
 .text          0x000000000005aeb0      0x48c kolibrios_fb_schedule.o
                0x000000000005aeb0                timeradd
                0x000000000005af06                timersub
                0x000000000005af59                timerisset
                0x000000000005af7d                timercmp
                0x000000000005b027                framebuffer_schedule
                0x000000000005b114                schedule_run
                0x000000000005b280                list_schedule
 .text          0x000000000005b33c       0x50 kolibrios_kolibri_debug.o
                0x000000000005b33c                debug_board_write_byte
                0x000000000005b361                debug_board_write_str
 .text          0x000000000005b38c       0x34 kolibrios_kolibri_filesystem.o
                0x000000000005b38c                mkdir
                0x000000000005b391                opendir
                0x000000000005b396                stat
                0x000000000005b39b                closedir
                0x000000000005b3a0                readdir
                0x000000000005b3a5                scandir
                0x000000000005b3aa                realpath
                0x000000000005b3af                access
                0x000000000005b3b4                pread
                0x000000000005b3b9                pwrite
 .text          0x000000000005b3c0       0x24 kolibrios_kolibri_http.o
                0x000000000005b3c0                kolibri_http_init
 .text          0x000000000005b3e4       0x10 kolibrios_kolibri_iconv.o
                0x000000000005b3e4                iconv_open
                0x000000000005b3e9                iconv
                0x000000000005b3ee                iconv_close
 .text          0x000000000005b3f4       0x20 kolibrios_kolibri_misc.o
                0x000000000005b403                inet_aton
                0x000000000005b408                strptime
                0x000000000005b40d                atexit
 .text          0x000000000005b414       0x14 kolibrios_kolibri_regex.o
                0x000000000005b414                regcomp
                0x000000000005b419                regerror
                0x000000000005b41e                regexec
                0x000000000005b423                regfree
 .text          0x000000000005b428      0xb38 kolibrios_main.o
                0x000000000005b4af                kolibri_boxlib_init
                0x000000000005b4d1                kolibri_get_system_colors
                0x000000000005b4ec                kolibri_new_edit_box
                0x000000000005b5e8                kolibri_new_check_box
                0x000000000005b666                kolibri_new_button
                0x000000000005b6be                draw_button
                0x000000000005b6f6                kolibri_button_get_identifier
                0x000000000005b719                kolibri_init_gui_op_table
                0x000000000005b778                kolibri_new_window
                0x000000000005b7d2                kolibri_window_add_element
                0x000000000005b863                kolibri_handle_event_redraw
                0x000000000005b93e                kolibri_handle_event_key
                0x000000000005b9a8                kolibri_handle_event_mouse
                0x000000000005ba12                kolibri_exit
                0x000000000005ba1e                kolibri_gui_init
                0x000000000005bb65                main
 .text          0x000000000005bf60     0x27a4 render_box.o
                0x000000000005c13b                box_create
                0x000000000005c455                box_add_child
                0x000000000005c515                box_insert_sibling
                0x000000000005c596                box_unlink_and_free
                0x000000000005c636                box_free
                0x000000000005c67a                box_free_box
                0x000000000005c70c                box_coords
                0x000000000005c7d2                box_bounds
                0x000000000005d14a                box_at_point
                0x000000000005d70b                box_pick_text_box
                0x000000000005d88b                box_find_by_id
                0x000000000005d904                box_visible
                0x000000000005d934                box_dump
                0x000000000005e2e9                box_handle_scrollbars
                0x000000000005e6a8                box_vscrollbar_present
                0x000000000005e6d6                box_hscrollbar_present
 .text          0x000000000005e704     0x5efc render_box_construct.o
                0x000000000005e9ad                dom_to_box
                0x00000000000641c5                box_extract_link
 .text          0x0000000000064600     0x1c24 render_box_normalise.o
                0x0000000000064614                box_normalise_block
 .text          0x0000000000066224      0x7f4 render_box_textarea.o
                0x0000000000066224                box_textarea_keypress
                0x0000000000066747                box_textarea_create_textarea
 .text          0x0000000000066a18      0x364 render_font.o
                0x0000000000066bfb                font_plot_style_from_css
 .text          0x0000000000066d7c     0x3aa8 render_form.o
                0x0000000000066fc5                form_new
                0x000000000006715c                form_free
                0x00000000000671d2                form_new_control
                0x0000000000067212                form_add_control
                0x00000000000672a8                form_free_control
                0x0000000000067519                form_add_option
                0x0000000000067646                form_successful_controls_dom
                0x0000000000069356                form_open_select_menu
                0x0000000000069574                form_free_select_menu
                0x00000000000695b2                form_redraw_select_menu
                0x0000000000069aa8                form_clip_inside_select_menu
                0x0000000000069df8                form_select_process_selection
                0x0000000000069e46                form_select_get_option
                0x0000000000069e75                form_control_get_name
                0x0000000000069e80                form_control_bounding_rect
                0x0000000000069f92                form_select_mouse_action
                0x000000000006a0d3                form_select_mouse_drag_end
                0x000000000006a2d6                form_select_get_dimensions
                0x000000000006a2f7                form_select_menu_callback
                0x000000000006a395                form_radio_set
                0x000000000006a4af                form_submit
                0x000000000006a764                form_gadget_update_value
 .text          0x000000000006a824     0x453c render_html.o
                0x000000000006a9e4                fire_dom_event
                0x000000000006ba6e                html_finish_conversion
                0x000000000006cd65                html_can_begin_conversion
                0x000000000006cdc4                html_begin_conversion
                0x000000000006d494                html_redraw_a_box
                0x000000000006d509                html__redraw_a_box
                0x000000000006da9c                html_set_status
                0x000000000006e3d2                html_set_file_gadget_filename
                0x000000000006e9ee                html_get_document
                0x000000000006ea37                html_get_box_tree
                0x000000000006eae6                html_get_frameset
                0x000000000006eb2f                html_get_iframe
                0x000000000006eb78                html_get_base_url
                0x000000000006ebc1                html_get_base_target
                0x000000000006ec0a                html_get_id_offset
                0x000000000006ec8e                html_init
                0x000000000006eced                html_get_browser_window
 .text          0x000000000006ed60     0x16ec render_html_css.o
                0x000000000006f78e                html_css_update_style
                0x000000000006f860                html_css_process_link
                0x000000000006fc7f                html_get_stylesheets
                0x000000000006fd00                html_css_free_stylesheets
                0x000000000006fddf                html_css_quirks_stylesheets
                0x000000000006ff03                html_css_new_stylesheets
                0x0000000000070201                html_css_new_selection_context
                0x0000000000070325                html_css_init
                0x00000000000703c3                html_css_fini
 .text          0x000000000007044c      0x96c render_html_css_fetcher.o
                0x0000000000070c4a                html_css_fetcher_register
                0x0000000000070cf1                html_css_fetcher_add_item
 .text          0x0000000000070db8     0x1048 render_html_forms.o
                0x00000000000710ee                html_forms_get_forms
                0x0000000000071c93                html_forms_get_control_for_node
 .text          0x0000000000071e00     0x2fc0 render_html_interaction.o
                0x000000000007218d                html_mouse_track
                0x00000000000722d1                html_mouse_action
                0x00000000000742d8                html_keypress
                0x00000000000743e9                html_search
                0x0000000000074569                html_search_clear
                0x00000000000745ea                html_overflow_scroll_callback
                0x000000000007473b                html_overflow_scroll_drag_end
                0x0000000000074836                html_set_drag_type
                0x000000000007496a                html_set_focus
                0x0000000000074b7f                html_set_selection
 .text          0x0000000000074dc0     0x1640 render_html_object.o
                0x0000000000074e22                html_get_objects
                0x0000000000075f8f                html_object_open_objects
                0x0000000000076015                html_object_abort_objects
                0x00000000000760f6                html_object_close_objects
                0x0000000000076196                html_object_free_objects
                0x0000000000076264                html_fetch_object
 .text          0x0000000000076400     0x7a9c render_html_redraw.o
                0x000000000007650e                text_redraw
                0x000000000007b35d                html_redraw_box
                0x000000000007dc22                html_redraw
 .text          0x000000000007de9c     0x12e4 render_html_script.o
                0x000000000007df71                html_script_exec
                0x000000000007ee45                html_process_script
                0x000000000007f02c                html_script_free
                0x000000000007f169                html_script_invalidate_ctx
 .text          0x000000000007f180     0x16f8 render_imagemap.o
                0x000000000007f58e                imagemap_destroy
                0x000000000007f646                imagemap_dump
                0x000000000008016a                imagemap_extract
                0x00000000000805f9                imagemap_get
 .text          0x0000000000080878     0xbc70 render_layout.o
                0x0000000000080971                layout_document
                0x00000000000848f6                layout_inline_container
                0x0000000000089556                layout_minmax_table
                0x000000000008c10d                layout_calculate_descendant_bboxes
 .text          0x000000000008c4e8     0x1088 render_search.o
                0x000000000008c4e8                search_create_context
                0x000000000008d13e                search_step
                0x000000000008d2c9                search_term_highlighted
                0x000000000008d34b                search_show_all
                0x000000000008d4b4                search_destroy_context
 .text          0x000000000008d570     0x2378 render_table.o
                0x000000000008d570                table_calculate_column_types
                0x000000000008dda8                table_used_border_for_cell
 .text          0x000000000008f8e8     0x27e8 render_textplain.o
                0x000000000008fba0                textplain_init
                0x0000000000091836                textplain_close
                0x000000000009186f                textplain_get_selection
                0x000000000009188d                textplain_line_count
                0x00000000000918ce                textplain_size
                0x000000000009190f                textplain_offset_from_coords
                0x0000000000091b1b                textplain_find_line
                0x0000000000091c86                textplain_coords_from_range
                0x0000000000091ee1                textplain_get_line
                0x0000000000091f67                textplain_get_raw_data
                0x000000000009205e                textplain_get_browser_window
 .text          0x00000000000920d0      0x534 utils_base64.o
                0x00000000000920e2                base64_encode
                0x0000000000092289                base64_encode_alloc
                0x000000000009230b                isbase64
                0x0000000000092334                base64_decode
                0x000000000009256b                base64_decode_alloc
 .text          0x0000000000092604      0x1c4 utils_bloom.o
                0x0000000000092650                bloom_create
                0x0000000000092689                bloom_destroy
                0x000000000009269c                bloom_insert_str
                0x00000000000926cb                bloom_insert_hash
                0x000000000009273b                bloom_search_str
                0x000000000009276a                bloom_search_hash
                0x00000000000927bd                bloom_items
 .text          0x00000000000927c8     0x8240 utils_corestrings.o
                0x00000000000927f7                corestrings_fini
                0x0000000000097256                corestrings_init
 .text          0x000000000009aa08      0x5c4 utils_file.o
                0x000000000009af30                netsurf_mkpath
                0x000000000009af6b                netsurf_nsurl_to_path
                0x000000000009af8d                netsurf_path_to_nsurl
                0x000000000009afaf                netsurf_mkdir_all
 .text          0x000000000009afcc      0xf50 utils_filename.o
                0x000000000009afcc                filename_request
                0x000000000009b136                filename_claim
                0x000000000009b237                filename_release
                0x000000000009b35e                filename_initialise
                0x000000000009b4ce                filename_flush
 .text          0x000000000009bf1c      0x7e4 utils_filepath.o
                0x000000000009bf1c                filepath_vsfindfile
                0x000000000009bfcf                filepath_sfindfile
                0x000000000009bffc                filepath_findfile
                0x000000000009c02a                filepath_sfind
                0x000000000009c0ad                filepath_find
                0x000000000009c117                filepath_sfinddef
                0x000000000009c22d                filepath_generate
                0x000000000009c5c9                filepath_path_to_strvec
                0x000000000009c6b0                filepath_free_strvec
 .text          0x000000000009c700      0x400 utils_hashtable.o
                0x000000000009c769                hash_create
                0x000000000009c834                hash_destroy
                0x000000000009c8cd                hash_add
                0x000000000009ca56                hash_get
 .text          0x000000000009cb00      0x400 utils_http_challenge.o
                0x000000000009cb8e                http__parse_challenge
                0x000000000009ce7b                http_challenge_list_iterate
                0x000000000009ceea                http_challenge_list_destroy
 .text          0x000000000009cf00      0x23c utils_http_content-disposition.o
                0x000000000009cf00                http_parse_content_disposition
                0x000000000009d0ae                http_content_disposition_destroy
 .text          0x000000000009d13c      0x758 utils_http_content-type.o
                0x000000000009d13c                http_parse_content_type
                0x000000000009d805                http_content_type_destroy
 .text          0x000000000009d894       0xfc utils_http_generics.o
                0x000000000009d894                http___item_list_destroy
                0x000000000009d8c0                http___item_list_parse
 .text          0x000000000009d990      0x558 utils_http_parameter.o
                0x000000000009da7d                http__parse_parameter
                0x000000000009dd29                http_parameter_list_find_item
                0x000000000009de23                http_parameter_list_iterate
                0x000000000009ded4                http_parameter_list_destroy
 .text          0x000000000009dee8      0x1b8 utils_http_primitives.o
                0x000000000009dee8                http__skip_LWS
                0x000000000009df54                http__parse_token
                0x000000000009dfd4                http__parse_quoted_string
 .text          0x000000000009e0a0       0xf8 utils_http_www-authenticate.o
                0x000000000009e0a0                http_parse_www_authenticate
                0x000000000009e176                http_www_authenticate_destroy
 .text          0x000000000009e198      0xf64 utils_idna.o
                0x000000000009ece8                idna_encode
                0x000000000009ef3f                idna_decode
 .text          0x000000000009f0fc      0xdf0 utils_libdom.o
                0x000000000009f297                libdom_treewalk
                0x000000000009f48b                libdom_find_element
                0x000000000009f4f4                libdom_find_first_element
                0x000000000009f5e5                libdom_iterate_child_elements
                0x000000000009f710                libdom_hubbub_error_to_nserror
                0x000000000009fc30                libdom_dump_structure
                0x000000000009fd5e                libdom_parse_file
 .text          0x000000000009feec      0x438 utils_locale.o
                0x000000000009feec                ls_isalpha
                0x000000000009ff3a                ls_isalnum
                0x000000000009ff88                ls_iscntrl
                0x000000000009ffd6                ls_isdigit
                0x00000000000a0024                ls_isgraph
                0x00000000000a0072                ls_islower
                0x00000000000a00c9                ls_isprint
                0x00000000000a0119                ls_ispunct
                0x00000000000a0167                ls_isspace
                0x00000000000a01b5                ls_isupper
                0x00000000000a020c                ls_isxdigit
                0x00000000000a025a                ls_tolower
                0x00000000000a02be                ls_toupper
 .text          0x00000000000a0324      0x4f0 utils_log.o
                0x00000000000a0338                nslog_init
                0x00000000000a07a1                nslog_log
 .text          0x00000000000a0814      0x9a4 utils_messages.o
                0x00000000000a0b9e                messages_add_from_file
                0x00000000000a0c02                messages_add_from_inline
                0x00000000000a0ea6                messages_get_buff
                0x00000000000a0f84                messages_get
                0x00000000000a0fa0                messages_get_errorcode
 .text          0x00000000000a11b8     0x13dc utils_nsoption.o
                0x00000000000a1c92                nsoption_init
                0x00000000000a1d60                nsoption_finalise
                0x00000000000a1d9f                nsoption_read
                0x00000000000a1f6a                nsoption_write
                0x00000000000a2029                nsoption_dump
                0x00000000000a206e                nsoption_commandline
                0x00000000000a2247                nsoption_snoptionf
                0x00000000000a2514                nsoption_set_tbl_charp
 .text          0x00000000000a2594     0x5ba0 utils_nsurl.o
                0x00000000000a4f27                nsurl_create
                0x00000000000a526a                nsurl_ref
                0x00000000000a52ae                nsurl_unref
                0x00000000000a534a                nsurl_compare
                0x00000000000a56ad                nsurl_get
                0x00000000000a5793                nsurl_get_component
                0x00000000000a5b4d                nsurl_has_component
                0x00000000000a5d1e                nsurl_access
                0x00000000000a5d56                nsurl_get_utf8
                0x00000000000a5f59                nsurl_access_leaf
                0x00000000000a6069                nsurl_length
                0x00000000000a60a1                nsurl_hash
                0x00000000000a60d9                nsurl_join
                0x00000000000a6ae9                nsurl_defragment
                0x00000000000a6ec9                nsurl_refragment
                0x00000000000a737e                nsurl_replace_query
                0x00000000000a78c0                nsurl_nice
                0x00000000000a7c5c                nsurl_parent
 .text          0x00000000000a8134      0x82c utils_punycode.o
                0x00000000000a827d                punycode_encode
                0x00000000000a85f7                punycode_decode
 .text          0x00000000000a8960     0x1da8 utils_talloc.o
                0x00000000000a8a03                talloc_parent
                0x00000000000a8a2c                talloc_parent_name
                0x00000000000a8b8b                _talloc_set_destructor
                0x00000000000a8baa                talloc_increase_ref_count
                0x00000000000a8ce5                _talloc_reference
                0x00000000000a909d                _talloc_steal
                0x00000000000a942f                talloc_unlink
                0x00000000000a95a7                talloc_set_name
                0x00000000000a95d4                talloc_named
                0x00000000000a964b                talloc_get_name
                0x00000000000a969a                talloc_check_name
                0x00000000000a96fd                talloc_init
                0x00000000000a977b                talloc_free_children
                0x00000000000a9857                _talloc
                0x00000000000a9871                talloc_set_name_const
                0x00000000000a988b                talloc_named_const
                0x00000000000a98ac                talloc_free
                0x00000000000a98bf                _talloc_realloc
                0x00000000000a9a35                _talloc_move
                0x00000000000a9a66                talloc_total_size
                0x00000000000a9b0a                talloc_total_blocks
                0x00000000000a9b8e                talloc_reference_count
                0x00000000000a9bcb                talloc_report_depth_cb
                0x00000000000a9e13                talloc_report_depth_file
                0x00000000000a9e4e                talloc_report_full
                0x00000000000a9e78                talloc_report
                0x00000000000a9f06                talloc_enable_null_tracking
                0x00000000000a9f38                talloc_disable_null_tracking
                0x00000000000a9f57                talloc_enable_leak_report
                0x00000000000a9f70                talloc_enable_leak_report_full
                0x00000000000a9f89                _talloc_zero
                0x00000000000a9fd0                _talloc_memdup
                0x00000000000aa01e                talloc_strdup
                0x00000000000aa085                talloc_append_string
                0x00000000000aa12b                talloc_strndup
                0x00000000000aa1b5                talloc_vasprintf
                0x00000000000aa250                talloc_asprintf
                0x00000000000aa27d                talloc_vasprintf_append
                0x00000000000aa386                talloc_asprintf_append
                0x00000000000aa3b3                _talloc_array
                0x00000000000aa3f1                _talloc_zero_array
                0x00000000000aa42f                _talloc_realloc_array
                0x00000000000aa474                talloc_realloc_fn
                0x00000000000aa4c6                talloc_autofree_context
                0x00000000000aa524                talloc_get_size
                0x00000000000aa54d                talloc_find_parent_byname
                0x00000000000aa5d2                talloc_show_parents
                0x00000000000aa69a                talloc_is_parent
 .text          0x00000000000aa708      0x28c utils_url.o
                0x00000000000aa708                url_unescape
                0x00000000000aa777                url_escape
 .text          0x00000000000aa994      0x118 utils_useragent.o
                0x00000000000aaa91                user_agent_string
 .text          0x00000000000aaaac      0xbe4 utils_utf8.o
                0x00000000000aaaac                utf8_to_ucs4
                0x00000000000aaae7                utf8_from_ucs4
                0x00000000000aab49                utf8_length
                0x00000000000aab6b                utf8_bounded_length
                0x00000000000aab9f                utf8_bounded_byte_length
                0x00000000000aabe4                utf8_char_byte_length
                0x00000000000aac2e                utf8_prev
                0x00000000000aac7f                utf8_next
                0x00000000000aacf4                utf8_finalise
                0x00000000000ab033                utf8_to_enc
                0x00000000000ab06b                utf8_from_enc
                0x00000000000ab1b8                utf8_to_html
                0x00000000000ab564                utf8_save_text
 .text          0x00000000000ab690      0xb94 utils_utils.o
                0x00000000000ab690                remove_underscores
                0x00000000000ab737                squash_whitespace
                0x00000000000ab840                cnv_space2nbsp
                0x00000000000ab90d                is_dir
                0x00000000000ab942                vsnstrjoin
                0x00000000000abaf8                snstrjoin
                0x00000000000abb3a                regcomp_wrapper
                0x00000000000abbd7                human_friendly_bytesize
                0x00000000000abcf1                rfc1123_date
                0x00000000000abe14                wallclock
                0x00000000000abe60                strcasestr
                0x00000000000abec3                dir_sort_alpha
                0x00000000000ac0cf                strchrnul
                0x00000000000ac0fe                uname
                0x00000000000ac188                nsc_sntimet
                0x00000000000ac1cc                nsc_snptimet
 .text          0x00000000000ac224      0xba8 /home/bob/ofiles/libcss-charset-detect.o
                0x00000000000ac224                css__charset_extract
 .text          0x00000000000acdcc     0x3de4 /home/bob/ofiles/libcss-lex-lex.o
                0x00000000000acfb7                css__lexer_create
                0x00000000000ad077                css__lexer_destroy
                0x00000000000ad0b4                css__lexer_setopt
                0x00000000000ad0ec                css__lexer_get_token
 .text          0x00000000000b0bb0     0x15b0 /home/bob/ofiles/libcss-parse-font_face.o
                0x00000000000b1e74                css__parse_font_descriptor
 .text          0x00000000000b2160      0x7a8 /home/bob/ofiles/libcss-parse-important.o
                0x00000000000b22e9                css__parse_important
                0x00000000000b2452                css__make_style_important
 .text          0x00000000000b2908     0x4418 /home/bob/ofiles/libcss-parse-language.o
                0x00000000000b2a89                css__language_create
                0x00000000000b2ba5                css__language_destroy
 .text          0x00000000000b6d20     0x426c /home/bob/ofiles/libcss-parse-parse.o
                0x00000000000b6d5a                css__parser_create
                0x00000000000b6d8e                css__parser_create_for_inline_style
                0x00000000000b6dc2                css__parser_destroy
                0x00000000000b6e2c                css__parser_setopt
                0x00000000000b6e7d                css__parser_parse_chunk
                0x00000000000b6f0d                css__parser_completed
                0x00000000000b6f99                css__parser_read_charset
                0x00000000000b6fd6                css__parser_quirks_permitted
 .text          0x00000000000baf8c      0x300 /home/bob/ofiles/libcss-parse-properties-autogenerated_background_attachment.o
                0x00000000000bb02e                css__parse_background_attachment
 .text          0x00000000000bb28c      0x24c /home/bob/ofiles/libcss-parse-properties-autogenerated_background_color.o
                0x00000000000bb32e                css__parse_background_color
 .text          0x00000000000bb4d8      0x360 /home/bob/ofiles/libcss-parse-properties-autogenerated_background_image.o
                0x00000000000bb57a                css__parse_background_image
 .text          0x00000000000bb838      0x464 /home/bob/ofiles/libcss-parse-properties-autogenerated_background_repeat.o
                0x00000000000bb8da                css__parse_background_repeat
 .text          0x00000000000bbc9c       0x30 /home/bob/ofiles/libcss-parse-properties-autogenerated_border_bottom.o
                0x00000000000bbc9c                css__parse_border_bottom
 .text          0x00000000000bbccc       0x30 /home/bob/ofiles/libcss-parse-properties-autogenerated_border_bottom_color.o
                0x00000000000bbccc                css__parse_border_bottom_color
 .text          0x00000000000bbcfc       0x30 /home/bob/ofiles/libcss-parse-properties-autogenerated_border_bottom_style.o
                0x00000000000bbcfc                css__parse_border_bottom_style
 .text          0x00000000000bbd2c       0x30 /home/bob/ofiles/libcss-parse-properties-autogenerated_border_bottom_width.o
                0x00000000000bbd2c                css__parse_border_bottom_width
 .text          0x00000000000bbd5c      0x300 /home/bob/ofiles/libcss-parse-properties-autogenerated_border_collapse.o
                0x00000000000bbdfe                css__parse_border_collapse
 .text          0x00000000000bc05c       0x30 /home/bob/ofiles/libcss-parse-properties-autogenerated_border_left.o
                0x00000000000bc05c                css__parse_border_left
 .text          0x00000000000bc08c       0x30 /home/bob/ofiles/libcss-parse-properties-autogenerated_border_left_color.o
                0x00000000000bc08c                css__parse_border_left_color
 .text          0x00000000000bc0bc       0x30 /home/bob/ofiles/libcss-parse-properties-autogenerated_border_left_style.o
                0x00000000000bc0bc                css__parse_border_left_style
 .text          0x00000000000bc0ec       0x30 /home/bob/ofiles/libcss-parse-properties-autogenerated_border_left_width.o
                0x00000000000bc0ec                css__parse_border_left_width
 .text          0x00000000000bc11c       0x30 /home/bob/ofiles/libcss-parse-properties-autogenerated_border_right.o
                0x00000000000bc11c                css__parse_border_right
 .text          0x00000000000bc14c       0x30 /home/bob/ofiles/libcss-parse-properties-autogenerated_border_right_color.o
                0x00000000000bc14c                css__parse_border_right_color
 .text          0x00000000000bc17c       0x30 /home/bob/ofiles/libcss-parse-properties-autogenerated_border_right_style.o
                0x00000000000bc17c                css__parse_border_right_style
 .text          0x00000000000bc1ac       0x30 /home/bob/ofiles/libcss-parse-properties-autogenerated_border_right_width.o
                0x00000000000bc1ac                css__parse_border_right_width
 .text          0x00000000000bc1dc      0x24c /home/bob/ofiles/libcss-parse-properties-autogenerated_border_side_color.o
                0x00000000000bc27e                css__parse_border_side_color
 .text          0x00000000000bc428      0x96c /home/bob/ofiles/libcss-parse-properties-autogenerated_border_side_style.o
                0x00000000000bc4ca                css__parse_border_side_style
 .text          0x00000000000bcd94      0x4e8 /home/bob/ofiles/libcss-parse-properties-autogenerated_border_side_width.o
                0x00000000000bce36                css__parse_border_side_width
 .text          0x00000000000bd27c       0x30 /home/bob/ofiles/libcss-parse-properties-autogenerated_border_top.o
                0x00000000000bd27c                css__parse_border_top
 .text          0x00000000000bd2ac       0x30 /home/bob/ofiles/libcss-parse-properties-autogenerated_border_top_color.o
                0x00000000000bd2ac                css__parse_border_top_color
 .text          0x00000000000bd2dc       0x30 /home/bob/ofiles/libcss-parse-properties-autogenerated_border_top_style.o
                0x00000000000bd2dc                css__parse_border_top_style
 .text          0x00000000000bd30c       0x30 /home/bob/ofiles/libcss-parse-properties-autogenerated_border_top_width.o
                0x00000000000bd30c                css__parse_border_top_width
 .text          0x00000000000bd33c       0x30 /home/bob/ofiles/libcss-parse-properties-autogenerated_bottom.o
                0x00000000000bd33c                css__parse_bottom
 .text          0x00000000000bd36c      0x894 /home/bob/ofiles/libcss-parse-properties-autogenerated_break_after.o
                0x00000000000bd40e                css__parse_break_after
 .text          0x00000000000bdc00      0x894 /home/bob/ofiles/libcss-parse-properties-autogenerated_break_before.o
                0x00000000000bdca2                css__parse_break_before
 .text          0x00000000000be494      0x464 /home/bob/ofiles/libcss-parse-properties-autogenerated_break_inside.o
                0x00000000000be536                css__parse_break_inside
 .text          0x00000000000be8f8      0x300 /home/bob/ofiles/libcss-parse-properties-autogenerated_caption_side.o
                0x00000000000be99a                css__parse_caption_side
 .text          0x00000000000bebf8      0x464 /home/bob/ofiles/libcss-parse-properties-autogenerated_clear.o
                0x00000000000bec9a                css__parse_clear
 .text          0x00000000000bf05c      0x24c /home/bob/ofiles/libcss-parse-properties-autogenerated_color.o
                0x00000000000bf0fe                css__parse_color
 .text          0x00000000000bf2a8      0x364 /home/bob/ofiles/libcss-parse-properties-autogenerated_column_count.o
                0x00000000000bf34a                css__parse_column_count
 .text          0x00000000000bf60c      0x300 /home/bob/ofiles/libcss-parse-properties-autogenerated_column_fill.o
                0x00000000000bf6ae                css__parse_column_fill
 .text          0x00000000000bf90c      0x370 /home/bob/ofiles/libcss-parse-properties-autogenerated_column_gap.o
                0x00000000000bf9ae                css__parse_column_gap
 .text          0x00000000000bfc7c      0x24c /home/bob/ofiles/libcss-parse-properties-autogenerated_column_rule_color.o
                0x00000000000bfd1e                css__parse_column_rule_color
 .text          0x00000000000bfec8      0x978 /home/bob/ofiles/libcss-parse-properties-autogenerated_column_rule_style.o
                0x00000000000bff6a                css__parse_column_rule_style
 .text          0x00000000000c0840       0x30 /home/bob/ofiles/libcss-parse-properties-autogenerated_column_rule_width.o
                0x00000000000c0840                css__parse_column_rule_width
 .text          0x00000000000c0870      0x300 /home/bob/ofiles/libcss-parse-properties-autogenerated_column_span.o
                0x00000000000c0912                css__parse_column_span
 .text          0x00000000000c0b70      0x358 /home/bob/ofiles/libcss-parse-properties-autogenerated_column_width.o
                0x00000000000c0c12                css__parse_column_width
 .text          0x00000000000c0ec8      0x568 /home/bob/ofiles/libcss-parse-properties-autogenerated_counter_increment.o
                0x00000000000c1016                css__parse_counter_increment
 .text          0x00000000000c1430      0x568 /home/bob/ofiles/libcss-parse-properties-autogenerated_counter_reset.o
                0x00000000000c157e                css__parse_counter_reset
 .text          0x00000000000c1998      0x360 /home/bob/ofiles/libcss-parse-properties-autogenerated_cue_after.o
                0x00000000000c1a3a                css__parse_cue_after
 .text          0x00000000000c1cf8      0x360 /home/bob/ofiles/libcss-parse-properties-autogenerated_cue_before.o
                0x00000000000c1d9a                css__parse_cue_before
 .text          0x00000000000c2058      0x300 /home/bob/ofiles/libcss-parse-properties-autogenerated_direction.o
                0x00000000000c20fa                css__parse_direction
 .text          0x00000000000c2358      0xeb0 /home/bob/ofiles/libcss-parse-properties-autogenerated_display.o
                0x00000000000c23fa                css__parse_display
 .text          0x00000000000c3208      0x300 /home/bob/ofiles/libcss-parse-properties-autogenerated_empty_cells.o
                0x00000000000c32aa                css__parse_empty_cells
 .text          0x00000000000c3508      0x3b4 /home/bob/ofiles/libcss-parse-properties-autogenerated_float.o
                0x00000000000c35aa                css__parse_float
 .text          0x00000000000c38bc      0xa30 /home/bob/ofiles/libcss-parse-properties-autogenerated_font_size.o
                0x00000000000c395e                css__parse_font_size
 .text          0x00000000000c42ec      0x3b4 /home/bob/ofiles/libcss-parse-properties-autogenerated_font_style.o
                0x00000000000c438e                css__parse_font_style
 .text          0x00000000000c46a0      0x300 /home/bob/ofiles/libcss-parse-properties-autogenerated_font_variant.o
                0x00000000000c4742                css__parse_font_variant
 .text          0x00000000000c49a0      0x364 /home/bob/ofiles/libcss-parse-properties-autogenerated_height.o
                0x00000000000c4a42                css__parse_height
 .text          0x00000000000c4d04       0x30 /home/bob/ofiles/libcss-parse-properties-autogenerated_left.o
                0x00000000000c4d04                css__parse_left
 .text          0x00000000000c4d34      0x358 /home/bob/ofiles/libcss-parse-properties-autogenerated_letter_spacing.o
                0x00000000000c4dd6                css__parse_letter_spacing
 .text          0x00000000000c508c      0x460 /home/bob/ofiles/libcss-parse-properties-autogenerated_line_height.o
                0x00000000000c512e                css__parse_line_height
 .text          0x00000000000c54ec      0x360 /home/bob/ofiles/libcss-parse-properties-autogenerated_list_style_image.o
                0x00000000000c558e                css__parse_list_style_image
 .text          0x00000000000c584c      0x300 /home/bob/ofiles/libcss-parse-properties-autogenerated_list_style_position.o
                0x00000000000c58ee                css__parse_list_style_position
 .text          0x00000000000c5b4c       0x30 /home/bob/ofiles/libcss-parse-properties-autogenerated_margin_bottom.o
                0x00000000000c5b4c                css__parse_margin_bottom
 .text          0x00000000000c5b7c       0x30 /home/bob/ofiles/libcss-parse-properties-autogenerated_margin_left.o
                0x00000000000c5b7c                css__parse_margin_left
 .text          0x00000000000c5bac       0x30 /home/bob/ofiles/libcss-parse-properties-autogenerated_margin_right.o
                0x00000000000c5bac                css__parse_margin_right
 .text          0x00000000000c5bdc      0x348 /home/bob/ofiles/libcss-parse-properties-autogenerated_margin_side.o
                0x00000000000c5c7e                css__parse_margin_side
 .text          0x00000000000c5f24       0x30 /home/bob/ofiles/libcss-parse-properties-autogenerated_margin_top.o
                0x00000000000c5f24                css__parse_margin_top
 .text          0x00000000000c5f54      0x364 /home/bob/ofiles/libcss-parse-properties-autogenerated_max_height.o
                0x00000000000c5ff6                css__parse_max_height
 .text          0x00000000000c62b8      0x364 /home/bob/ofiles/libcss-parse-properties-autogenerated_max_width.o
                0x00000000000c635a                css__parse_max_width
 .text          0x00000000000c661c      0x2a8 /home/bob/ofiles/libcss-parse-properties-autogenerated_min_height.o
                0x00000000000c66be                css__parse_min_height
 .text          0x00000000000c68c4      0x2a8 /home/bob/ofiles/libcss-parse-properties-autogenerated_min_width.o
                0x00000000000c6966                css__parse_min_width
 .text          0x00000000000c6b6c      0x2a8 /home/bob/ofiles/libcss-parse-properties-autogenerated_orphans.o
                0x00000000000c6c0e                css__parse_orphans
 .text          0x00000000000c6e14      0x30c /home/bob/ofiles/libcss-parse-properties-autogenerated_outline_color.o
                0x00000000000c6eb6                css__parse_outline_color
 .text          0x00000000000c7120      0x894 /home/bob/ofiles/libcss-parse-properties-autogenerated_outline_style.o
                0x00000000000c71c2                css__parse_outline_style
 .text          0x00000000000c79b4       0x30 /home/bob/ofiles/libcss-parse-properties-autogenerated_outline_width.o
                0x00000000000c79b4                css__parse_outline_width
 .text          0x00000000000c79e4      0x464 /home/bob/ofiles/libcss-parse-properties-autogenerated_overflow_x.o
                0x00000000000c7a86                css__parse_overflow_x
 .text          0x00000000000c7e48      0x464 /home/bob/ofiles/libcss-parse-properties-autogenerated_overflow_y.o
                0x00000000000c7eea                css__parse_overflow_y
 .text          0x00000000000c82ac       0x30 /home/bob/ofiles/libcss-parse-properties-autogenerated_padding_bottom.o
                0x00000000000c82ac                css__parse_padding_bottom
 .text          0x00000000000c82dc       0x30 /home/bob/ofiles/libcss-parse-properties-autogenerated_padding_left.o
                0x00000000000c82dc                css__parse_padding_left
 .text          0x00000000000c830c       0x30 /home/bob/ofiles/libcss-parse-properties-autogenerated_padding_right.o
                0x00000000000c830c                css__parse_padding_right
 .text          0x00000000000c833c      0x2a4 /home/bob/ofiles/libcss-parse-properties-autogenerated_padding_side.o
                0x00000000000c83de                css__parse_padding_side
 .text          0x00000000000c85e0       0x30 /home/bob/ofiles/libcss-parse-properties-autogenerated_padding_top.o
                0x00000000000c85e0                css__parse_padding_top
 .text          0x00000000000c8610      0x518 /home/bob/ofiles/libcss-parse-properties-autogenerated_page_break_after.o
                0x00000000000c86b2                css__parse_page_break_after
 .text          0x00000000000c8b28      0x518 /home/bob/ofiles/libcss-parse-properties-autogenerated_page_break_before.o
                0x00000000000c8bca                css__parse_page_break_before
 .text          0x00000000000c9040      0x300 /home/bob/ofiles/libcss-parse-properties-autogenerated_page_break_inside.o
                0x00000000000c90e2                css__parse_page_break_inside
 .text          0x00000000000c9340      0x29c /home/bob/ofiles/libcss-parse-properties-autogenerated_pause_after.o
                0x00000000000c93e2                css__parse_pause_after
 .text          0x00000000000c95dc      0x29c /home/bob/ofiles/libcss-parse-properties-autogenerated_pause_before.o
                0x00000000000c967e                css__parse_pause_before
 .text          0x00000000000c9878      0x648 /home/bob/ofiles/libcss-parse-properties-autogenerated_pitch.o
                0x00000000000c991a                css__parse_pitch
 .text          0x00000000000c9ec0      0x2b4 /home/bob/ofiles/libcss-parse-properties-autogenerated_pitch_range.o
                0x00000000000c9f62                css__parse_pitch_range
 .text          0x00000000000ca174      0x464 /home/bob/ofiles/libcss-parse-properties-autogenerated_position.o
                0x00000000000ca216                css__parse_position
 .text          0x00000000000ca5d8      0x2b4 /home/bob/ofiles/libcss-parse-properties-autogenerated_richness.o
                0x00000000000ca67a                css__parse_richness
 .text          0x00000000000ca88c       0x30 /home/bob/ofiles/libcss-parse-properties-autogenerated_right.o
                0x00000000000ca88c                css__parse_right
 .text          0x00000000000ca8bc      0x348 /home/bob/ofiles/libcss-parse-properties-autogenerated_side.o
                0x00000000000ca95e                css__parse_side
 .text          0x00000000000cac04      0x3b4 /home/bob/ofiles/libcss-parse-properties-autogenerated_speak.o
                0x00000000000caca6                css__parse_speak
 .text          0x00000000000cafb8      0x300 /home/bob/ofiles/libcss-parse-properties-autogenerated_speak_header.o
                0x00000000000cb05a                css__parse_speak_header
 .text          0x00000000000cb2b8      0x300 /home/bob/ofiles/libcss-parse-properties-autogenerated_speak_numeral.o
                0x00000000000cb35a                css__parse_speak_numeral
 .text          0x00000000000cb5b8      0x300 /home/bob/ofiles/libcss-parse-properties-autogenerated_speak_punctuation.o
                0x00000000000cb65a                css__parse_speak_punctuation
 .text          0x00000000000cb8b8      0x854 /home/bob/ofiles/libcss-parse-properties-autogenerated_speech_rate.o
                0x00000000000cb95a                css__parse_speech_rate
 .text          0x00000000000cc10c      0x31c /home/bob/ofiles/libcss-parse-properties-autogenerated_stress.o
                0x00000000000cc210                css__parse_stress
 .text          0x00000000000cc428      0x300 /home/bob/ofiles/libcss-parse-properties-autogenerated_table_layout.o
                0x00000000000cc4ca                css__parse_table_layout
 .text          0x00000000000cc728      0x6d8 /home/bob/ofiles/libcss-parse-properties-autogenerated_text_align.o
                0x00000000000cc7ca                css__parse_text_align
 .text          0x00000000000cce00      0x28c /home/bob/ofiles/libcss-parse-properties-autogenerated_text_indent.o
                0x00000000000ccea2                css__parse_text_indent
 .text          0x00000000000cd08c      0x464 /home/bob/ofiles/libcss-parse-properties-autogenerated_text_transform.o
                0x00000000000cd12e                css__parse_text_transform
 .text          0x00000000000cd4f0       0x30 /home/bob/ofiles/libcss-parse-properties-autogenerated_top.o
                0x00000000000cd4f0                css__parse_top
 .text          0x00000000000cd520      0x3b4 /home/bob/ofiles/libcss-parse-properties-autogenerated_unicode_bidi.o
                0x00000000000cd5c2                css__parse_unicode_bidi
 .text          0x00000000000cd8d4      0x92c /home/bob/ofiles/libcss-parse-properties-autogenerated_vertical_align.o
                0x00000000000cd976                css__parse_vertical_align
 .text          0x00000000000ce200      0x3b4 /home/bob/ofiles/libcss-parse-properties-autogenerated_visibility.o
                0x00000000000ce2a2                css__parse_visibility
 .text          0x00000000000ce5b4      0x868 /home/bob/ofiles/libcss-parse-properties-autogenerated_volume.o
                0x00000000000ce656                css__parse_volume
 .text          0x00000000000cee1c      0x518 /home/bob/ofiles/libcss-parse-properties-autogenerated_white_space.o
                0x00000000000ceebe                css__parse_white_space
 .text          0x00000000000cf334      0x2a8 /home/bob/ofiles/libcss-parse-properties-autogenerated_widows.o
                0x00000000000cf3d6                css__parse_widows
 .text          0x00000000000cf5dc      0x364 /home/bob/ofiles/libcss-parse-properties-autogenerated_width.o
                0x00000000000cf67e                css__parse_width
 .text          0x00000000000cf940      0x358 /home/bob/ofiles/libcss-parse-properties-autogenerated_word_spacing.o
                0x00000000000cf9e2                css__parse_word_spacing
 .text          0x00000000000cfc98      0x3b4 /home/bob/ofiles/libcss-parse-properties-autogenerated_writing_mode.o
                0x00000000000cfd3a                css__parse_writing_mode
 .text          0x00000000000d004c      0x350 /home/bob/ofiles/libcss-parse-properties-autogenerated_z_index.o
                0x00000000000d00ee                css__parse_z_index
 .text          0x00000000000d039c     0x145c /home/bob/ofiles/libcss-parse-properties-azimuth.o
                0x00000000000d0456                css__parse_azimuth
 .text          0x00000000000d17f8      0x760 /home/bob/ofiles/libcss-parse-properties-background.o
                0x00000000000d198e                css__parse_background
 .text          0x00000000000d1f58      0x89c /home/bob/ofiles/libcss-parse-properties-background_position.o
                0x00000000000d2012                css__parse_background_position
 .text          0x00000000000d27f4      0x124 /home/bob/ofiles/libcss-parse-properties-border.o
                0x00000000000d27f4                css__parse_border
 .text          0x00000000000d2918      0x988 /home/bob/ofiles/libcss-parse-properties-border_color.o
                0x00000000000d2aae                css__parse_border_color
 .text          0x00000000000d32a0      0x3f4 /home/bob/ofiles/libcss-parse-properties-border_spacing.o
                0x00000000000d335a                css__parse_border_spacing
 .text          0x00000000000d3694      0xdb0 /home/bob/ofiles/libcss-parse-properties-border_style.o
                0x00000000000d382a                css__parse_border_style
 .text          0x00000000000d4444      0xe40 /home/bob/ofiles/libcss-parse-properties-border_width.o
                0x00000000000d45da                css__parse_border_width
 .text          0x00000000000d5284      0x784 /home/bob/ofiles/libcss-parse-properties-clip.o
                0x00000000000d540b                css__parse_clip
 .text          0x00000000000d5a08      0x578 /home/bob/ofiles/libcss-parse-properties-column_rule.o
                0x00000000000d5b9e                css__parse_column_rule
 .text          0x00000000000d5f80      0x448 /home/bob/ofiles/libcss-parse-properties-columns.o
                0x00000000000d6116                css__parse_columns
 .text          0x00000000000d63c8     0x15c0 /home/bob/ofiles/libcss-parse-properties-content.o
                0x00000000000d6581                css__parse_content
 .text          0x00000000000d7988      0x24c /home/bob/ofiles/libcss-parse-properties-cue.o
                0x00000000000d7a7c                css__parse_cue
 .text          0x00000000000d7bd4     0x13e8 /home/bob/ofiles/libcss-parse-properties-cursor.o
                0x00000000000d7d4e                css__parse_cursor
 .text          0x00000000000d8fbc      0x690 /home/bob/ofiles/libcss-parse-properties-elevation.o
                0x00000000000d902c                css__parse_elevation
 .text          0x00000000000d964c     0x1330 /home/bob/ofiles/libcss-parse-properties-font.o
                0x00000000000da147                css__parse_font
 .text          0x00000000000da97c      0x7c4 /home/bob/ofiles/libcss-parse-properties-font_family.o
                0x00000000000dafc9                css__parse_font_family
 .text          0x00000000000db140      0x528 /home/bob/ofiles/libcss-parse-properties-font_weight.o
                0x00000000000db1b0                css__parse_font_weight
 .text          0x00000000000db668      0x53c /home/bob/ofiles/libcss-parse-properties-list_style.o
                0x00000000000db7fe                css__parse_list_style
 .text          0x00000000000dbba4      0x1b8 /home/bob/ofiles/libcss-parse-properties-list_style_type.o
                0x00000000000dbc14                css__parse_list_style_type
 .text          0x00000000000dbd5c      0xc9c /home/bob/ofiles/libcss-parse-properties-margin.o
                0x00000000000dbef2                css__parse_margin
 .text          0x00000000000dc9f8      0x324 /home/bob/ofiles/libcss-parse-properties-opacity.o
                0x00000000000dcafc                css__parse_opacity
 .text          0x00000000000dcd1c      0x53c /home/bob/ofiles/libcss-parse-properties-outline.o
                0x00000000000dceb2                css__parse_outline
 .text          0x00000000000dd258      0x528 /home/bob/ofiles/libcss-parse-properties-overflow.o
                0x00000000000dd2fa                css__parse_overflow
 .text          0x00000000000dd780      0xb24 /home/bob/ofiles/libcss-parse-properties-padding.o
                0x00000000000dd916                css__parse_padding
 .text          0x00000000000de2a4      0x24c /home/bob/ofiles/libcss-parse-properties-pause.o
                0x00000000000de398                css__parse_pause
 .text          0x00000000000de4f0      0x5c4 /home/bob/ofiles/libcss-parse-properties-play_during.o
                0x00000000000de5aa                css__parse_play_during
 .text          0x00000000000deab4        0x0 /home/bob/ofiles/libcss-parse-properties-properties.o
 .text          0x00000000000deab4      0x504 /home/bob/ofiles/libcss-parse-properties-quotes.o
                0x00000000000deba0                css__parse_quotes
 .text          0x00000000000defb8      0x5ec /home/bob/ofiles/libcss-parse-properties-text_decoration.o
                0x00000000000df0a4                css__parse_text_decoration
 .text          0x00000000000df5a4     0x36e8 /home/bob/ofiles/libcss-parse-properties-utils.o
                0x00000000000dfae6                css__parse_list_style_type_value
                0x00000000000e051d                css__parse_border_side
                0x00000000000e0e90                css__parse_colour_specifier
                0x00000000000e1c8f                css__parse_named_colour
                0x00000000000e1d97                css__parse_hash_colour
                0x00000000000e205e                css__parse_unit_specifier
                0x00000000000e236d                css__parse_unit_keyword
                0x00000000000e265d                css__ident_list_or_string_to_string
                0x00000000000e2733                css__ident_list_to_string
                0x00000000000e294f                css__comma_list_to_style
 .text          0x00000000000e2c8c      0x590 /home/bob/ofiles/libcss-parse-properties-voice_family.o
                0x00000000000e30a3                css__parse_voice_family
 .text          0x00000000000e321c      0x13c /home/bob/ofiles/libcss-parse-propstrings.o
                0x00000000000e321c                css__propstrings_get
                0x00000000000e32af                css__propstrings_unref
 .text          0x00000000000e3358     0x4e3c /home/bob/ofiles/libcss-select-computed.o
                0x00000000000e5bb8                css_computed_style_create
                0x00000000000e5bfe                css_computed_style_destroy
                0x00000000000e63fe                css_computed_style_initialise
                0x00000000000e64d4                css_computed_style_compose
                0x00000000000e65f0                css_computed_letter_spacing
                0x00000000000e6611                css_computed_outline_color
                0x00000000000e662b                css_computed_outline_width
                0x00000000000e666f                css_computed_border_spacing
                0x00000000000e669e                css_computed_word_spacing
                0x00000000000e66bf                css_computed_writing_mode
                0x00000000000e66d2                css_computed_counter_increment
                0x00000000000e66ec                css_computed_counter_reset
                0x00000000000e6706                css_computed_cursor
                0x00000000000e6720                css_computed_clip
                0x00000000000e673a                css_computed_content
                0x00000000000e6754                css_computed_vertical_align
                0x00000000000e6775                css_computed_font_size
                0x00000000000e6796                css_computed_border_top_width
                0x00000000000e67b7                css_computed_border_right_width
                0x00000000000e67d8                css_computed_border_bottom_width
                0x00000000000e67f9                css_computed_border_left_width
                0x00000000000e681a                css_computed_background_image
                0x00000000000e6834                css_computed_color
                0x00000000000e684e                css_computed_list_style_image
                0x00000000000e6868                css_computed_quotes
                0x00000000000e6882                css_computed_top
                0x00000000000e6926                css_computed_right
                0x00000000000e69ca                css_computed_bottom
                0x00000000000e6a7a                css_computed_left
                0x00000000000e6b1e                css_computed_border_top_color
                0x00000000000e6b38                css_computed_border_right_color
                0x00000000000e6b52                css_computed_border_bottom_color
                0x00000000000e6b6c                css_computed_border_left_color
                0x00000000000e6b86                css_computed_height
                0x00000000000e6ba7                css_computed_line_height
                0x00000000000e6bc8                css_computed_background_color
                0x00000000000e6be2                css_computed_z_index
                0x00000000000e6bfc                css_computed_margin_top
                0x00000000000e6c1d                css_computed_margin_right
                0x00000000000e6c3e                css_computed_margin_bottom
                0x00000000000e6c5f                css_computed_margin_left
                0x00000000000e6c80                css_computed_background_attachment
                0x00000000000e6c93                css_computed_border_collapse
                0x00000000000e6ca6                css_computed_caption_side
                0x00000000000e6cb9                css_computed_direction
                0x00000000000e6ccc                css_computed_max_height
                0x00000000000e6ced                css_computed_max_width
                0x00000000000e6d0e                css_computed_width
                0x00000000000e6d2f                css_computed_empty_cells
                0x00000000000e6d42                css_computed_float
                0x00000000000e6d7d                css_computed_font_style
                0x00000000000e6d90                css_computed_min_height
                0x00000000000e6db1                css_computed_min_width
                0x00000000000e6dd2                css_computed_background_repeat
                0x00000000000e6de5                css_computed_clear
                0x00000000000e6df8                css_computed_padding_top
                0x00000000000e6e19                css_computed_padding_right
                0x00000000000e6e3a                css_computed_padding_bottom
                0x00000000000e6e5b                css_computed_padding_left
                0x00000000000e6e7c                css_computed_overflow_x
                0x00000000000e6e8f                css_computed_overflow_y
                0x00000000000e6ea2                css_computed_position
                0x00000000000e6eb5                css_computed_opacity
                0x00000000000e6ecf                css_computed_text_transform
                0x00000000000e6ee2                css_computed_text_indent
                0x00000000000e6f03                css_computed_white_space
                0x00000000000e6f16                css_computed_background_position
                0x00000000000e6f45                css_computed_break_after
                0x00000000000e6f58                css_computed_break_before
                0x00000000000e6f6b                css_computed_break_inside
                0x00000000000e6f7e                css_computed_column_count
                0x00000000000e6f98                css_computed_column_fill
                0x00000000000e6fab                css_computed_column_gap
                0x00000000000e6fcc                css_computed_column_rule_color
                0x00000000000e7001                css_computed_column_rule_style
                0x00000000000e7014                css_computed_column_rule_width
                0x00000000000e7058                css_computed_column_span
                0x00000000000e706b                css_computed_column_width
                0x00000000000e708c                css_computed_display
                0x00000000000e713d                css_computed_display_static
                0x00000000000e7150                css_computed_font_variant
                0x00000000000e7163                css_computed_text_decoration
                0x00000000000e7176                css_computed_font_family
                0x00000000000e7190                css_computed_border_top_style
                0x00000000000e71a3                css_computed_border_right_style
                0x00000000000e71b6                css_computed_border_bottom_style
                0x00000000000e71c9                css_computed_border_left_style
                0x00000000000e71dc                css_computed_font_weight
                0x00000000000e71ef                css_computed_list_style_type
                0x00000000000e7202                css_computed_outline_style
                0x00000000000e7215                css_computed_table_layout
                0x00000000000e7228                css_computed_unicode_bidi
                0x00000000000e723b                css_computed_visibility
                0x00000000000e724e                css_computed_list_style_position
                0x00000000000e7261                css_computed_text_align
                0x00000000000e7274                css_computed_page_break_after
                0x00000000000e7287                css_computed_page_break_before
                0x00000000000e729a                css_computed_page_break_inside
                0x00000000000e72ad                css_computed_orphans
                0x00000000000e72c7                css_computed_widows
                0x00000000000e72e1                css__compute_absolute_values
 .text          0x00000000000e8194        0x0 /home/bob/ofiles/libcss-select-dispatch.o
 .text          0x00000000000e8194      0x3ec /home/bob/ofiles/libcss-select-font_face.o
                0x00000000000e8266                css__font_face_create
                0x00000000000e82bf                css__font_face_destroy
                0x00000000000e8371                css__font_face_set_font_family
                0x00000000000e8450                css_font_face_get_font_family
                0x00000000000e8477                css_font_face_font_style
                0x00000000000e8486                css_font_face_font_weight
                0x00000000000e8498                css_font_face_count_srcs
                0x00000000000e84c0                css_font_face_get_src
                0x00000000000e84fb                css_font_face_src_get_location
                0x00000000000e8522                css_font_face_src_location_type
                0x00000000000e8534                css_font_face_src_format
                0x00000000000e8549                css__font_face_set_srcs
 .text          0x00000000000e8580     0x1a34 /home/bob/ofiles/libcss-select-hash.o
                0x00000000000e87fd                css__selector_hash_create
                0x00000000000e89a0                css__selector_hash_destroy
                0x00000000000e8b18                css__selector_hash_insert
                0x00000000000e8d70                css__selector_hash_remove
                0x00000000000e8fc8                css__selector_hash_find
                0x00000000000e915d                css__selector_hash_find_by_class
                0x00000000000e9334                css__selector_hash_find_by_id
                0x00000000000e950b                css__selector_hash_find_universal
                0x00000000000e95cd                css__selector_hash_size
 .text          0x00000000000e9fb4      0x19c /home/bob/ofiles/libcss-select-properties-azimuth.o
                0x00000000000ea043                css__cascade_azimuth
                0x00000000000ea12f                css__set_azimuth_from_hint
                0x00000000000ea139                css__initial_azimuth
                0x00000000000ea143                css__compose_azimuth
 .text          0x00000000000ea150      0x1e0 /home/bob/ofiles/libcss-select-properties-background_attachment.o
                0x00000000000ea200                css__cascade_background_attachment
                0x00000000000ea2b4                css__set_background_attachment_from_hint
                0x00000000000ea2d5                css__initial_background_attachment
                0x00000000000ea2f3                css__compose_background_attachment
 .text          0x00000000000ea330      0x130 /home/bob/ofiles/libcss-select-properties-background_color.o
                0x00000000000ea395                css__cascade_background_color
                0x00000000000ea3be                css__set_background_color_from_hint
                0x00000000000ea3e8                css__initial_background_color
                0x00000000000ea40e                css__compose_background_color
 .text          0x00000000000ea460      0x278 /home/bob/ofiles/libcss-select-properties-background_image.o
                0x00000000000ea58f                css__cascade_background_image
                0x00000000000ea5b8                css__set_background_image_from_hint
                0x00000000000ea65d                css__initial_background_image
                0x00000000000ea683                css__compose_background_image
 .text          0x00000000000ea6d8      0x550 /home/bob/ofiles/libcss-select-properties-background_position.o
                0x00000000000ea88e                css__cascade_background_position
                0x00000000000eaae6                css__set_background_position_from_hint
                0x00000000000eab35                css__initial_background_position
                0x00000000000eab73                css__compose_background_position
 .text          0x00000000000eac28      0x204 /home/bob/ofiles/libcss-select-properties-background_repeat.o
                0x00000000000eacd8                css__cascade_background_repeat
                0x00000000000eadad                css__set_background_repeat_from_hint
                0x00000000000eadce                css__initial_background_repeat
                0x00000000000eadec                css__compose_background_repeat
 .text          0x00000000000eae2c      0x130 /home/bob/ofiles/libcss-select-properties-border_bottom_color.o
                0x00000000000eae91                css__cascade_border_bottom_color
                0x00000000000eaeba                css__set_border_bottom_color_from_hint
                0x00000000000eaee4                css__initial_border_bottom_color
                0x00000000000eaf0a                css__compose_border_bottom_color
 .text          0x00000000000eaf5c       0xfc /home/bob/ofiles/libcss-select-properties-border_bottom_style.o
                0x00000000000eafb1                css__cascade_border_bottom_style
                0x00000000000eafda                css__set_border_bottom_style_from_hint
                0x00000000000eaffb                css__initial_border_bottom_style
                0x00000000000eb019                css__compose_border_bottom_style
 .text          0x00000000000eb058      0x190 /home/bob/ofiles/libcss-select-properties-border_bottom_width.o
                0x00000000000eb0e8                css__cascade_border_bottom_width
                0x00000000000eb111                css__set_border_bottom_width_from_hint
                0x00000000000eb145                css__initial_border_bottom_width
                0x00000000000eb173                css__compose_border_bottom_width
 .text          0x00000000000eb1e8      0x1e0 /home/bob/ofiles/libcss-select-properties-border_collapse.o
                0x00000000000eb298                css__cascade_border_collapse
                0x00000000000eb34c                css__set_border_collapse_from_hint
                0x00000000000eb36d                css__initial_border_collapse
                0x00000000000eb38b                css__compose_border_collapse
 .text          0x00000000000eb3c8      0x130 /home/bob/ofiles/libcss-select-properties-border_left_color.o
                0x00000000000eb42d                css__cascade_border_left_color
                0x00000000000eb456                css__set_border_left_color_from_hint
                0x00000000000eb480                css__initial_border_left_color
                0x00000000000eb4a6                css__compose_border_left_color
 .text          0x00000000000eb4f8       0xf8 /home/bob/ofiles/libcss-select-properties-border_left_style.o
                0x00000000000eb549                css__cascade_border_left_style
                0x00000000000eb572                css__set_border_left_style_from_hint
                0x00000000000eb593                css__initial_border_left_style
                0x00000000000eb5b1                css__compose_border_left_style
 .text          0x00000000000eb5f0      0x190 /home/bob/ofiles/libcss-select-properties-border_left_width.o
                0x00000000000eb680                css__cascade_border_left_width
                0x00000000000eb6a9                css__set_border_left_width_from_hint
                0x00000000000eb6dd                css__initial_border_left_width
                0x00000000000eb70b                css__compose_border_left_width
 .text          0x00000000000eb780      0x130 /home/bob/ofiles/libcss-select-properties-border_right_color.o
                0x00000000000eb7e5                css__cascade_border_right_color
                0x00000000000eb80e                css__set_border_right_color_from_hint
                0x00000000000eb838                css__initial_border_right_color
                0x00000000000eb85e                css__compose_border_right_color
 .text          0x00000000000eb8b0       0xf8 /home/bob/ofiles/libcss-select-properties-border_right_style.o
                0x00000000000eb901                css__cascade_border_right_style
                0x00000000000eb92a                css__set_border_right_style_from_hint
                0x00000000000eb94b                css__initial_border_right_style
                0x00000000000eb969                css__compose_border_right_style
 .text          0x00000000000eb9a8      0x190 /home/bob/ofiles/libcss-select-properties-border_right_width.o
                0x00000000000eba38                css__cascade_border_right_width
                0x00000000000eba61                css__set_border_right_width_from_hint
                0x00000000000eba95                css__initial_border_right_width
                0x00000000000ebac3                css__compose_border_right_width
 .text          0x00000000000ebb38      0x500 /home/bob/ofiles/libcss-select-properties-border_spacing.o
                0x00000000000ebd43                css__cascade_border_spacing
                0x00000000000ebe9d                css__set_border_spacing_from_hint
                0x00000000000ebeec                css__initial_border_spacing
                0x00000000000ebf2a                css__compose_border_spacing
 .text          0x00000000000ec038      0x130 /home/bob/ofiles/libcss-select-properties-border_top_color.o
                0x00000000000ec09d                css__cascade_border_top_color
                0x00000000000ec0c6                css__set_border_top_color_from_hint
                0x00000000000ec0f0                css__initial_border_top_color
                0x00000000000ec116                css__compose_border_top_color
 .text          0x00000000000ec168       0xfc /home/bob/ofiles/libcss-select-properties-border_top_style.o
                0x00000000000ec1bd                css__cascade_border_top_style
                0x00000000000ec1e6                css__set_border_top_style_from_hint
                0x00000000000ec207                css__initial_border_top_style
                0x00000000000ec225                css__compose_border_top_style
 .text          0x00000000000ec264      0x190 /home/bob/ofiles/libcss-select-properties-border_top_width.o
                0x00000000000ec2f4                css__cascade_border_top_width
                0x00000000000ec31d                css__set_border_top_width_from_hint
                0x00000000000ec351                css__initial_border_top_width
                0x00000000000ec37f                css__compose_border_top_width
 .text          0x00000000000ec3f4      0x194 /home/bob/ofiles/libcss-select-properties-bottom.o
                0x00000000000ec486                css__cascade_bottom
                0x00000000000ec4af                css__set_bottom_from_hint
                0x00000000000ec4e3                css__initial_bottom
                0x00000000000ec511                css__compose_bottom
 .text          0x00000000000ec588      0x170 /home/bob/ofiles/libcss-select-properties-break_after.o
                0x00000000000ec652                css__cascade_break_after
                0x00000000000ec67b                css__set_break_after_from_hint
                0x00000000000ec69c                css__initial_break_after
                0x00000000000ec6ba                css__compose_break_after
 .text          0x00000000000ec6f8      0x174 /home/bob/ofiles/libcss-select-properties-break_before.o
                0x00000000000ec7c6                css__cascade_break_before
                0x00000000000ec7ef                css__set_break_before_from_hint
                0x00000000000ec810                css__initial_break_before
                0x00000000000ec82e                css__compose_break_before
 .text          0x00000000000ec86c      0x280 /home/bob/ofiles/libcss-select-properties-break_inside.o
                0x00000000000ec999                css__cascade_break_inside
                0x00000000000eca6e                css__set_break_inside_from_hint
                0x00000000000eca8f                css__initial_break_inside
                0x00000000000ecaad                css__compose_break_inside
 .text          0x00000000000ecaec      0x1e0 /home/bob/ofiles/libcss-select-properties-caption_side.o
                0x00000000000ecb9c                css__cascade_caption_side
                0x00000000000ecc50                css__set_caption_side_from_hint
                0x00000000000ecc71                css__initial_caption_side
                0x00000000000ecc8f                css__compose_caption_side
 .text          0x00000000000ecccc      0x204 /home/bob/ofiles/libcss-select-properties-clear.o
                0x00000000000ecd7c                css__cascade_clear
                0x00000000000ece51                css__set_clear_from_hint
                0x00000000000ece72                css__initial_clear
                0x00000000000ece90                css__compose_clear
 .text          0x00000000000eced0      0x758 /home/bob/ofiles/libcss-select-properties-clip.o
                0x00000000000ed290                css__cascade_clip
                0x00000000000ed4fd                css__set_clip_from_hint
                0x00000000000ed527                css__initial_clip
                0x00000000000ed566                css__compose_clip
 .text          0x00000000000ed628      0x2b0 /home/bob/ofiles/libcss-select-properties-color.o
                0x00000000000ed71c                css__cascade_color
                0x00000000000ed809                css__set_color_from_hint
                0x00000000000ed833                css__initial_color
                0x00000000000ed884                css__compose_color
 .text          0x00000000000ed8d8      0x35c /home/bob/ofiles/libcss-select-properties-column_count.o
                0x00000000000eda55                css__cascade_column_count
                0x00000000000edb34                css__set_column_count_from_hint
                0x00000000000edb5e                css__initial_column_count
                0x00000000000edb84                css__compose_column_count
 .text          0x00000000000edc34      0x260 /home/bob/ofiles/libcss-select-properties-column_fill.o
                0x00000000000edd64                css__cascade_column_fill
                0x00000000000ede18                css__set_column_fill_from_hint
                0x00000000000ede39                css__initial_column_fill
                0x00000000000ede57                css__compose_column_fill
 .text          0x00000000000ede94      0x2e0 /home/bob/ofiles/libcss-select-properties-column_gap.o
                0x00000000000ee00d                css__cascade_column_gap
                0x00000000000ee036                css__set_column_gap_from_hint
                0x00000000000ee06a                css__initial_column_gap
                0x00000000000ee0a0                css__compose_column_gap
 .text          0x00000000000ee174      0x314 /home/bob/ofiles/libcss-select-properties-column_rule_color.o
                0x00000000000ee2f6                css__cascade_column_rule_color
                0x00000000000ee3e6                css__set_column_rule_color_from_hint
                0x00000000000ee410                css__initial_column_rule_color
                0x00000000000ee436                css__compose_column_rule_color
 .text          0x00000000000ee488      0x170 /home/bob/ofiles/libcss-select-properties-column_rule_style.o
                0x00000000000ee552                css__cascade_column_rule_style
                0x00000000000ee57b                css__set_column_rule_style_from_hint
                0x00000000000ee59c                css__initial_column_rule_style
                0x00000000000ee5ba                css__compose_column_rule_style
 .text          0x00000000000ee5f8      0x218 /home/bob/ofiles/libcss-select-properties-column_rule_width.o
                0x00000000000ee70d                css__cascade_column_rule_width
                0x00000000000ee736                css__set_column_rule_width_from_hint
                0x00000000000ee76a                css__initial_column_rule_width
                0x00000000000ee798                css__compose_column_rule_width
 .text          0x00000000000ee810      0x260 /home/bob/ofiles/libcss-select-properties-column_span.o
                0x00000000000ee93d                css__cascade_column_span
                0x00000000000ee9f1                css__set_column_span_from_hint
                0x00000000000eea12                css__initial_column_span
                0x00000000000eea30                css__compose_column_span
 .text          0x00000000000eea70      0x2d8 /home/bob/ofiles/libcss-select-properties-column_width.o
                0x00000000000eebe2                css__cascade_column_width
                0x00000000000eec0b                css__set_column_width_from_hint
                0x00000000000eec3f                css__initial_column_width
                0x00000000000eec75                css__compose_column_width
 .text          0x00000000000eed48      0xf9c /home/bob/ofiles/libcss-select-properties-content.o
                0x00000000000ef3fa                css__cascade_content
                0x00000000000ef838                css__set_content_from_hint
                0x00000000000efb79                css__initial_content
                0x00000000000efb9f                css__compose_content
 .text          0x00000000000efce4      0x48c /home/bob/ofiles/libcss-select-properties-counter_increment.o
                0x00000000000efee7                css__cascade_counter_increment
                0x00000000000eff10                css__set_counter_increment_from_hint
                0x00000000000efffb                css__initial_counter_increment
                0x00000000000f0021                css__compose_counter_increment
 .text          0x00000000000f0170      0x484 /home/bob/ofiles/libcss-select-properties-counter_reset.o
                0x00000000000f036e                css__cascade_counter_reset
                0x00000000000f0397                css__set_counter_reset_from_hint
                0x00000000000f0482                css__initial_counter_reset
                0x00000000000f04a8                css__compose_counter_reset
 .text          0x00000000000f05f4       0x48 /home/bob/ofiles/libcss-select-properties-cue_after.o
                0x00000000000f05f4                css__cascade_cue_after
                0x00000000000f061d                css__set_cue_after_from_hint
                0x00000000000f0627                css__initial_cue_after
                0x00000000000f0631                css__compose_cue_after
 .text          0x00000000000f063c       0x48 /home/bob/ofiles/libcss-select-properties-cue_before.o
                0x00000000000f063c                css__cascade_cue_before
                0x00000000000f0665                css__set_cue_before_from_hint
                0x00000000000f066f                css__initial_cue_before
                0x00000000000f0679                css__compose_cue_before
 .text          0x00000000000f0684      0x76c /home/bob/ofiles/libcss-select-properties-cursor.o
                0x00000000000f0915                css__cascade_cursor
                0x00000000000f0bac                css__set_cursor_from_hint
                0x00000000000f0c81                css__initial_cursor
                0x00000000000f0ca7                css__compose_cursor
 .text          0x00000000000f0df0      0x1e0 /home/bob/ofiles/libcss-select-properties-direction.o
                0x00000000000f0ea0                css__cascade_direction
                0x00000000000f0f54                css__set_direction_from_hint
                0x00000000000f0f75                css__initial_direction
                0x00000000000f0f93                css__compose_direction
 .text          0x00000000000f0fd0      0x264 /home/bob/ofiles/libcss-select-properties-display.o
                0x00000000000f1087                css__cascade_display
                0x00000000000f11b6                css__set_display_from_hint
                0x00000000000f11d7                css__initial_display
                0x00000000000f11f5                css__compose_display
 .text          0x00000000000f1234      0x18c /home/bob/ofiles/libcss-select-properties-elevation.o
                0x00000000000f12c3                css__cascade_elevation
                0x00000000000f13a1                css__set_elevation_from_hint
                0x00000000000f13ab                css__initial_elevation
                0x00000000000f13b5                css__compose_elevation
 .text          0x00000000000f13c0      0x1e0 /home/bob/ofiles/libcss-select-properties-empty_cells.o
                0x00000000000f1470                css__cascade_empty_cells
                0x00000000000f1524                css__set_empty_cells_from_hint
                0x00000000000f1545                css__initial_empty_cells
                0x00000000000f1563                css__compose_empty_cells
 .text          0x00000000000f15a0      0x1ec /home/bob/ofiles/libcss-select-properties-float.o
                0x00000000000f1650                css__cascade_float
                0x00000000000f170f                css__set_float_from_hint
                0x00000000000f1730                css__initial_float
                0x00000000000f174e                css__compose_float
 .text          0x00000000000f178c      0x7bc /home/bob/ofiles/libcss-select-properties-font_family.o
                0x00000000000f1994                css__cascade_font_family
                0x00000000000f1d20                css__set_font_family_from_hint
                0x00000000000f1df5                css__initial_font_family
                0x00000000000f1e46                css__compose_font_family
 .text          0x00000000000f1f48      0x3ac /home/bob/ofiles/libcss-select-properties-font_size.o
                0x00000000000f2051                css__cascade_font_size
                0x00000000000f221b                css__set_font_size_from_hint
                0x00000000000f224f                css__initial_font_size
                0x00000000000f227d                css__compose_font_size
 .text          0x00000000000f22f4      0x1ec /home/bob/ofiles/libcss-select-properties-font_style.o
                0x00000000000f23a4                css__cascade_font_style
                0x00000000000f2463                css__set_font_style_from_hint
                0x00000000000f2484                css__initial_font_style
                0x00000000000f24a2                css__compose_font_style
 .text          0x00000000000f24e0      0x1e0 /home/bob/ofiles/libcss-select-properties-font_variant.o
                0x00000000000f2590                css__cascade_font_variant
                0x00000000000f2644                css__set_font_variant_from_hint
                0x00000000000f2665                css__initial_font_variant
                0x00000000000f2683                css__compose_font_variant
 .text          0x00000000000f26c0      0x244 /home/bob/ofiles/libcss-select-properties-font_weight.o
                0x00000000000f2774                css__cascade_font_weight
                0x00000000000f2887                css__set_font_weight_from_hint
                0x00000000000f28a8                css__initial_font_weight
                0x00000000000f28c6                css__compose_font_weight
 .text          0x00000000000f2904      0x194 /home/bob/ofiles/libcss-select-properties-height.o
                0x00000000000f2996                css__cascade_height
                0x00000000000f29bf                css__set_height_from_hint
                0x00000000000f29f3                css__initial_height
                0x00000000000f2a21                css__compose_height
 .text          0x00000000000f2a98      0xefc /home/bob/ofiles/libcss-select-properties-helpers.o
                0x00000000000f2b27                css__to_css_unit
                0x00000000000f2c36                css__cascade_bg_border_color
                0x00000000000f2d22                css__cascade_uri_none
                0x00000000000f2e1f                css__cascade_border_style
                0x00000000000f2f16                css__cascade_border_width
                0x00000000000f3053                css__cascade_length_auto
                0x00000000000f316b                css__cascade_length_normal
                0x00000000000f3283                css__cascade_length_none
                0x00000000000f339b                css__cascade_length
                0x00000000000f3497                css__cascade_number
                0x00000000000f355a                css__cascade_page_break_after_before_inside
                0x00000000000f362f                css__cascade_break_after_before_inside
                0x00000000000f3724                css__cascade_counter_increment_reset
 .text          0x00000000000f3994      0x194 /home/bob/ofiles/libcss-select-properties-left.o
                0x00000000000f3a26                css__cascade_left
                0x00000000000f3a4f                css__set_left_from_hint
                0x00000000000f3a83                css__initial_left
                0x00000000000f3ab1                css__compose_left
 .text          0x00000000000f3b28      0x26c /home/bob/ofiles/libcss-select-properties-letter_spacing.o
                0x00000000000f3c3b                css__cascade_letter_spacing
                0x00000000000f3c64                css__set_letter_spacing_from_hint
                0x00000000000f3c98                css__initial_letter_spacing
                0x00000000000f3cc6                css__compose_letter_spacing
 .text          0x00000000000f3d94      0x35c /home/bob/ofiles/libcss-select-properties-line_height.o
                0x00000000000f3ecd                css__cascade_line_height
                0x00000000000f4017                css__set_line_height_from_hint
                0x00000000000f404b                css__initial_line_height
                0x00000000000f4079                css__compose_line_height
 .text          0x00000000000f40f0      0x278 /home/bob/ofiles/libcss-select-properties-list_style_image.o
                0x00000000000f421f                css__cascade_list_style_image
                0x00000000000f4248                css__set_list_style_image_from_hint
                0x00000000000f42ed                css__initial_list_style_image
                0x00000000000f4313                css__compose_list_style_image
 .text          0x00000000000f4368      0x1e8 /home/bob/ofiles/libcss-select-properties-list_style_position.o
                0x00000000000f441f                css__cascade_list_style_position
                0x00000000000f44d3                css__set_list_style_position_from_hint
                0x00000000000f44f4                css__initial_list_style_position
                0x00000000000f4512                css__compose_list_style_position
 .text          0x00000000000f4550      0x254 /home/bob/ofiles/libcss-select-properties-list_style_type.o
                0x00000000000f4600                css__cascade_list_style_type
                0x00000000000f4727                css__set_list_style_type_from_hint
                0x00000000000f4748                css__initial_list_style_type
                0x00000000000f4766                css__compose_list_style_type
 .text          0x00000000000f47a4      0x198 /home/bob/ofiles/libcss-select-properties-margin_bottom.o
                0x00000000000f483c                css__cascade_margin_bottom
                0x00000000000f4865                css__set_margin_bottom_from_hint
                0x00000000000f4899                css__initial_margin_bottom
                0x00000000000f48c7                css__compose_margin_bottom
 .text          0x00000000000f493c      0x198 /home/bob/ofiles/libcss-select-properties-margin_left.o
                0x00000000000f49d4                css__cascade_margin_left
                0x00000000000f49fd                css__set_margin_left_from_hint
                0x00000000000f4a31                css__initial_margin_left
                0x00000000000f4a5f                css__compose_margin_left
 .text          0x00000000000f4ad4      0x194 /home/bob/ofiles/libcss-select-properties-margin_right.o
                0x00000000000f4b66                css__cascade_margin_right
                0x00000000000f4b8f                css__set_margin_right_from_hint
                0x00000000000f4bc3                css__initial_margin_right
                0x00000000000f4bf1                css__compose_margin_right
 .text          0x00000000000f4c68      0x194 /home/bob/ofiles/libcss-select-properties-margin_top.o
                0x00000000000f4cfa                css__cascade_margin_top
                0x00000000000f4d23                css__set_margin_top_from_hint
                0x00000000000f4d57                css__initial_margin_top
                0x00000000000f4d85                css__compose_margin_top
 .text          0x00000000000f4dfc      0x198 /home/bob/ofiles/libcss-select-properties-max_height.o
                0x00000000000f4e94                css__cascade_max_height
                0x00000000000f4ebd                css__set_max_height_from_hint
                0x00000000000f4ef1                css__initial_max_height
                0x00000000000f4f1f                css__compose_max_height
 .text          0x00000000000f4f94      0x198 /home/bob/ofiles/libcss-select-properties-max_width.o
                0x00000000000f502c                css__cascade_max_width
                0x00000000000f5055                css__set_max_width_from_hint
                0x00000000000f5089                css__initial_max_width
                0x00000000000f50b7                css__compose_max_width
 .text          0x00000000000f512c      0x198 /home/bob/ofiles/libcss-select-properties-min_height.o
                0x00000000000f51c1                css__cascade_min_height
                0x00000000000f51ea                css__set_min_height_from_hint
                0x00000000000f521e                css__initial_min_height
                0x00000000000f524c                css__compose_min_height
 .text          0x00000000000f52c4      0x198 /home/bob/ofiles/libcss-select-properties-min_width.o
                0x00000000000f5359                css__cascade_min_width
                0x00000000000f5382                css__set_min_width_from_hint
                0x00000000000f53b6                css__initial_min_width
                0x00000000000f53e4                css__compose_min_width
 .text          0x00000000000f545c      0x2d4 /home/bob/ofiles/libcss-select-properties-opacity.o
                0x00000000000f55c2                css__cascade_opacity
                0x00000000000f567f                css__set_opacity_from_hint
                0x00000000000f56a9                css__initial_opacity
                0x00000000000f56d7                css__compose_opacity
 .text          0x00000000000f5730      0x1e8 /home/bob/ofiles/libcss-select-properties-orphans.o
                0x00000000000f5846                css__cascade_orphans
                0x00000000000f586f                css__set_orphans_from_hint
                0x00000000000f5899                css__initial_orphans
                0x00000000000f58bf                css__compose_orphans
 .text          0x00000000000f5918      0x388 /home/bob/ofiles/libcss-select-properties-outline_color.o
                0x00000000000f5a9c                css__cascade_outline_color
                0x00000000000f5b9e                css__set_outline_color_from_hint
                0x00000000000f5bc8                css__initial_outline_color
                0x00000000000f5bee                css__compose_outline_color
 .text          0x00000000000f5ca0       0xfc /home/bob/ofiles/libcss-select-properties-outline_style.o
                0x00000000000f5cf5                css__cascade_outline_style
                0x00000000000f5d1e                css__set_outline_style_from_hint
                0x00000000000f5d3f                css__initial_outline_style
                0x00000000000f5d5d                css__compose_outline_style
 .text          0x00000000000f5d9c      0x26c /home/bob/ofiles/libcss-select-properties-outline_width.o
                0x00000000000f5eb1                css__cascade_outline_width
                0x00000000000f5eda                css__set_outline_width_from_hint
                0x00000000000f5f0e                css__initial_outline_width
                0x00000000000f5f3c                css__compose_outline_width
 .text          0x00000000000f6008      0x204 /home/bob/ofiles/libcss-select-properties-overflow_x.o
                0x00000000000f60b8                css__cascade_overflow_x
                0x00000000000f618d                css__set_overflow_x_from_hint
                0x00000000000f61ae                css__initial_overflow_x
                0x00000000000f61cc                css__compose_overflow_x
 .text          0x00000000000f620c      0x208 /home/bob/ofiles/libcss-select-properties-overflow_y.o
                0x00000000000f62c0                css__cascade_overflow_y
                0x00000000000f6395                css__set_overflow_y_from_hint
                0x00000000000f63b6                css__initial_overflow_y
                0x00000000000f63d4                css__compose_overflow_y
 .text          0x00000000000f6414      0x198 /home/bob/ofiles/libcss-select-properties-padding_bottom.o
                0x00000000000f64a9                css__cascade_padding_bottom
                0x00000000000f64d2                css__set_padding_bottom_from_hint
                0x00000000000f6506                css__initial_padding_bottom
                0x00000000000f6534                css__compose_padding_bottom
 .text          0x00000000000f65ac      0x198 /home/bob/ofiles/libcss-select-properties-padding_left.o
                0x00000000000f6641                css__cascade_padding_left
                0x00000000000f666a                css__set_padding_left_from_hint
                0x00000000000f669e                css__initial_padding_left
                0x00000000000f66cc                css__compose_padding_left
 .text          0x00000000000f6744      0x198 /home/bob/ofiles/libcss-select-properties-padding_right.o
                0x00000000000f67d9                css__cascade_padding_right
                0x00000000000f6802                css__set_padding_right_from_hint
                0x00000000000f6836                css__initial_padding_right
                0x00000000000f6864                css__compose_padding_right
 .text          0x00000000000f68dc      0x198 /home/bob/ofiles/libcss-select-properties-padding_top.o
                0x00000000000f6971                css__cascade_padding_top
                0x00000000000f699a                css__set_padding_top_from_hint
                0x00000000000f69ce                css__initial_padding_top
                0x00000000000f69fc                css__compose_padding_top
 .text          0x00000000000f6a74      0x188 /home/bob/ofiles/libcss-select-properties-page_break_after.o
                0x00000000000f6b57                css__cascade_page_break_after
                0x00000000000f6b80                css__set_page_break_after_from_hint
                0x00000000000f6ba1                css__initial_page_break_after
                0x00000000000f6bbf                css__compose_page_break_after
 .text          0x00000000000f6bfc      0x190 /home/bob/ofiles/libcss-select-properties-page_break_before.o
                0x00000000000f6ce6                css__cascade_page_break_before
                0x00000000000f6d0f                css__set_page_break_before_from_hint
                0x00000000000f6d30                css__initial_page_break_before
                0x00000000000f6d4e                css__compose_page_break_before
 .text          0x00000000000f6d8c      0x18c /home/bob/ofiles/libcss-select-properties-page_break_inside.o
                0x00000000000f6e73                css__cascade_page_break_inside
                0x00000000000f6e9c                css__set_page_break_inside_from_hint
                0x00000000000f6ebd                css__initial_page_break_inside
                0x00000000000f6edb                css__compose_page_break_inside
 .text          0x00000000000f6f18       0x48 /home/bob/ofiles/libcss-select-properties-pause_after.o
                0x00000000000f6f18                css__cascade_pause_after
                0x00000000000f6f41                css__set_pause_after_from_hint
                0x00000000000f6f4b                css__initial_pause_after
                0x00000000000f6f55                css__compose_pause_after
 .text          0x00000000000f6f60       0x48 /home/bob/ofiles/libcss-select-properties-pause_before.o
                0x00000000000f6f60                css__cascade_pause_before
                0x00000000000f6f89                css__set_pause_before_from_hint
                0x00000000000f6f93                css__initial_pause_before
                0x00000000000f6f9d                css__compose_pause_before
 .text          0x00000000000f6fa8      0x18c /home/bob/ofiles/libcss-select-properties-pitch.o
                0x00000000000f7037                css__cascade_pitch
                0x00000000000f7115                css__set_pitch_from_hint
                0x00000000000f711f                css__initial_pitch
                0x00000000000f7129                css__compose_pitch
 .text          0x00000000000f7134       0x48 /home/bob/ofiles/libcss-select-properties-pitch_range.o
                0x00000000000f7134                css__cascade_pitch_range
                0x00000000000f715d                css__set_pitch_range_from_hint
                0x00000000000f7167                css__initial_pitch_range
                0x00000000000f7171                css__compose_pitch_range
 .text          0x00000000000f717c      0x170 /home/bob/ofiles/libcss-select-properties-play_during.o
                0x00000000000f720b                css__cascade_play_during
                0x00000000000f72cd                css__set_play_during_from_hint
                0x00000000000f72d7                css__initial_play_during
                0x00000000000f72e1                css__compose_play_during
 .text          0x00000000000f72ec      0x204 /home/bob/ofiles/libcss-select-properties-position.o
                0x00000000000f739c                css__cascade_position
                0x00000000000f7471                css__set_position_from_hint
                0x00000000000f7492                css__initial_position
                0x00000000000f74b0                css__compose_position
 .text          0x00000000000f74f0      0x678 /home/bob/ofiles/libcss-select-properties-quotes.o
                0x00000000000f76f8                css__cascade_quotes
                0x00000000000f7941                css__set_quotes_from_hint
                0x00000000000f7a16                css__initial_quotes
                0x00000000000f7a67                css__compose_quotes
 .text          0x00000000000f7b68       0x48 /home/bob/ofiles/libcss-select-properties-richness.o
                0x00000000000f7b68                css__cascade_richness
                0x00000000000f7b91                css__set_richness_from_hint
                0x00000000000f7b9b                css__initial_richness
                0x00000000000f7ba5                css__compose_richness
 .text          0x00000000000f7bb0      0x194 /home/bob/ofiles/libcss-select-properties-right.o
                0x00000000000f7c42                css__cascade_right
                0x00000000000f7c6b                css__set_right_from_hint
                0x00000000000f7c9f                css__initial_right
                0x00000000000f7ccd                css__compose_right
 .text          0x00000000000f7d44       0xf8 /home/bob/ofiles/libcss-select-properties-speak.o
                0x00000000000f7da3                css__cascade_speak
                0x00000000000f7e1e                css__set_speak_from_hint
                0x00000000000f7e28                css__initial_speak
                0x00000000000f7e32                css__compose_speak
 .text          0x00000000000f7e3c       0xf8 /home/bob/ofiles/libcss-select-properties-speak_header.o
                0x00000000000f7e9b                css__cascade_speak_header
                0x00000000000f7f16                css__set_speak_header_from_hint
                0x00000000000f7f20                css__initial_speak_header
                0x00000000000f7f2a                css__compose_speak_header
 .text          0x00000000000f7f34       0xf8 /home/bob/ofiles/libcss-select-properties-speak_numeral.o
                0x00000000000f7f93                css__cascade_speak_numeral
                0x00000000000f800e                css__set_speak_numeral_from_hint
                0x00000000000f8018                css__initial_speak_numeral
                0x00000000000f8022                css__compose_speak_numeral
 .text          0x00000000000f802c       0xf8 /home/bob/ofiles/libcss-select-properties-speak_punctuation.o
                0x00000000000f808b                css__cascade_speak_punctuation
                0x00000000000f8106                css__set_speak_punctuation_from_hint
                0x00000000000f8110                css__initial_speak_punctuation
                0x00000000000f811a                css__compose_speak_punctuation
 .text          0x00000000000f8124      0x15c /home/bob/ofiles/libcss-select-properties-speech_rate.o
                0x00000000000f81b3                css__cascade_speech_rate
                0x00000000000f825f                css__set_speech_rate_from_hint
                0x00000000000f8269                css__initial_speech_rate
                0x00000000000f8273                css__compose_speech_rate
 .text          0x00000000000f8280       0x48 /home/bob/ofiles/libcss-select-properties-stress.o
                0x00000000000f8280                css__cascade_stress
                0x00000000000f82a9                css__set_stress_from_hint
                0x00000000000f82b3                css__initial_stress
                0x00000000000f82bd                css__compose_stress
 .text          0x00000000000f82c8      0x1e8 /home/bob/ofiles/libcss-select-properties-table_layout.o
                0x00000000000f837f                css__cascade_table_layout
                0x00000000000f8433                css__set_table_layout_from_hint
                0x00000000000f8454                css__initial_table_layout
                0x00000000000f8472                css__compose_table_layout
 .text          0x00000000000f84b0      0x244 /home/bob/ofiles/libcss-select-properties-text_align.o
                0x00000000000f8560                css__cascade_text_align
                0x00000000000f8642                css__set_text_align_from_hint
                0x00000000000f8666                css__initial_text_align
                0x00000000000f8687                css__compose_text_align
 .text          0x00000000000f86f4      0x270 /home/bob/ofiles/libcss-select-properties-text_decoration.o
                0x00000000000f87a8                css__cascade_text_decoration
                0x00000000000f88e6                css__set_text_decoration_from_hint
                0x00000000000f8907                css__initial_text_decoration
                0x00000000000f8925                css__compose_text_decoration
 .text          0x00000000000f8964      0x198 /home/bob/ofiles/libcss-select-properties-text_indent.o
                0x00000000000f89f9                css__cascade_text_indent
                0x00000000000f8a22                css__set_text_indent_from_hint
                0x00000000000f8a56                css__initial_text_indent
                0x00000000000f8a84                css__compose_text_indent
 .text          0x00000000000f8afc      0x204 /home/bob/ofiles/libcss-select-properties-text_transform.o
                0x00000000000f8bac                css__cascade_text_transform
                0x00000000000f8c81                css__set_text_transform_from_hint
                0x00000000000f8ca2                css__initial_text_transform
                0x00000000000f8cc0                css__compose_text_transform
 .text          0x00000000000f8d00      0x194 /home/bob/ofiles/libcss-select-properties-top.o
                0x00000000000f8d92                css__cascade_top
                0x00000000000f8dbb                css__set_top_from_hint
                0x00000000000f8def                css__initial_top
                0x00000000000f8e1d                css__compose_top
 .text          0x00000000000f8e94      0x1ec /home/bob/ofiles/libcss-select-properties-unicode_bidi.o
                0x00000000000f8f44                css__cascade_unicode_bidi
                0x00000000000f9003                css__set_unicode_bidi_from_hint
                0x00000000000f9024                css__initial_unicode_bidi
                0x00000000000f9042                css__compose_unicode_bidi
 .text          0x00000000000f9080      0x390 /home/bob/ofiles/libcss-select-properties-vertical_align.o
                0x00000000000f918b                css__cascade_vertical_align
                0x00000000000f9336                css__set_vertical_align_from_hint
                0x00000000000f936a                css__initial_vertical_align
                0x00000000000f9398                css__compose_vertical_align
 .text          0x00000000000f9410      0x1f0 /home/bob/ofiles/libcss-select-properties-visibility.o
                0x00000000000f94c4                css__cascade_visibility
                0x00000000000f9583                css__set_visibility_from_hint
                0x00000000000f95a4                css__initial_visibility
                0x00000000000f95c2                css__compose_visibility
 .text          0x00000000000f9600      0x2e0 /home/bob/ofiles/libcss-select-properties-voice_family.o
                0x00000000000f968f                css__cascade_voice_family
                0x00000000000f98c1                css__set_voice_family_from_hint
                0x00000000000f98cb                css__initial_voice_family
                0x00000000000f98d5                css__compose_voice_family
 .text          0x00000000000f98e0      0x1c0 /home/bob/ofiles/libcss-select-properties-volume.o
                0x00000000000f996f                css__cascade_volume
                0x00000000000f9a7f                css__set_volume_from_hint
                0x00000000000f9a89                css__initial_volume
                0x00000000000f9a93                css__compose_volume
 .text          0x00000000000f9aa0      0x1fc /home/bob/ofiles/libcss-select-properties-white_space.o
                0x00000000000f9b50                css__cascade_white_space
                0x00000000000f9c1f                css__set_white_space_from_hint
                0x00000000000f9c40                css__initial_white_space
                0x00000000000f9c5e                css__compose_white_space
 .text          0x00000000000f9c9c      0x1f0 /home/bob/ofiles/libcss-select-properties-widows.o
                0x00000000000f9db7                css__cascade_widows
                0x00000000000f9de0                css__set_widows_from_hint
                0x00000000000f9e0a                css__initial_widows
                0x00000000000f9e30                css__compose_widows
 .text          0x00000000000f9e8c      0x198 /home/bob/ofiles/libcss-select-properties-width.o
                0x00000000000f9f24                css__cascade_width
                0x00000000000f9f4d                css__set_width_from_hint
                0x00000000000f9f81                css__initial_width
                0x00000000000f9faf                css__compose_width
 .text          0x00000000000fa024      0x270 /home/bob/ofiles/libcss-select-properties-word_spacing.o
                0x00000000000fa13b                css__cascade_word_spacing
                0x00000000000fa164                css__set_word_spacing_from_hint
                0x00000000000fa198                css__initial_word_spacing
                0x00000000000fa1c6                css__compose_word_spacing
 .text          0x00000000000fa294      0x268 /home/bob/ofiles/libcss-select-properties-writing_mode.o
                0x00000000000fa3c2                css__cascade_writing_mode
                0x00000000000fa47e                css__set_writing_mode_from_hint
                0x00000000000fa49f                css__initial_writing_mode
                0x00000000000fa4bd                css__compose_writing_mode
 .text          0x00000000000fa4fc      0x284 /home/bob/ofiles/libcss-select-properties-z_index.o
                0x00000000000fa5f6                css__cascade_z_index
                0x00000000000fa6d5                css__set_z_index_from_hint
                0x00000000000fa6ff                css__initial_z_index
                0x00000000000fa725                css__compose_z_index
 .text          0x00000000000fa780     0x489c /home/bob/ofiles/libcss-select-select.o
                0x00000000000fa8a9                css_libcss_node_data_handler
                0x00000000000faa05                css_select_ctx_create
                0x00000000000faa6f                css_select_ctx_destroy
                0x00000000000faab7                css_select_ctx_append_sheet
                0x00000000000fab0e                css_select_ctx_insert_sheet
                0x00000000000fac3b                css_select_ctx_remove_sheet
                0x00000000000faceb                css_select_ctx_count_sheets
                0x00000000000fad12                css_select_ctx_get_sheet
                0x00000000000fad55                css_select_style
                0x00000000000fb7f1                css_select_results_destroy
                0x00000000000fb847                css_select_font_faces
                0x00000000000fba9c                css_select_font_faces_results_destroy
                0x00000000000fee62                css__outranks_existing
 .text          0x00000000000ff01c     0x2818 /home/bob/ofiles/libcss-stylesheet.o
                0x00000000000ff04e                css__stylesheet_string_add
                0x00000000000ff298                css__stylesheet_string_get
                0x00000000000ff2cd                css_stylesheet_create
                0x00000000000ff694                css_stylesheet_destroy
                0x00000000000ff836                css_stylesheet_append_data
                0x00000000000ff87e                css_stylesheet_data_done
                0x00000000000ff98b                css_stylesheet_next_pending_import
                0x00000000000ffa84                css_stylesheet_register_import
                0x00000000000ffb18                css_stylesheet_get_language_level
                0x00000000000ffb40                css_stylesheet_get_url
                0x00000000000ffb68                css_stylesheet_get_title
                0x00000000000ffb90                css_stylesheet_quirks_allowed
                0x00000000000ffbb9                css_stylesheet_used_quirks
                0x00000000000ffbe2                css_stylesheet_get_disabled
                0x00000000000ffc0b                css_stylesheet_set_disabled
                0x00000000000ffc35                css_stylesheet_size
                0x00000000000ffc9e                css__stylesheet_style_create
                0x00000000000ffd50                css__stylesheet_merge_style
                0x00000000000ffe1e                css__stylesheet_style_vappend
                0x00000000000ffe6d                css__stylesheet_style_append
                0x00000000000fff05                css__stylesheet_style_destroy
                0x00000000000fffa8                css__stylesheet_selector_create
                0x00000000001001a2                css__stylesheet_selector_destroy
                0x0000000000100562                css__stylesheet_selector_detail_init
                0x0000000000100626                css__stylesheet_selector_append_specific
                0x000000000010087c                css__stylesheet_selector_combine
                0x0000000000100951                css__stylesheet_rule_create
                0x0000000000100a27                css__stylesheet_rule_destroy
                0x0000000000100d09                css__stylesheet_rule_add_selector
                0x0000000000100e06                css__stylesheet_rule_append_style
                0x0000000000100f03                css__stylesheet_rule_set_charset
                0x0000000000100fa9                css__stylesheet_rule_set_nascent_import
                0x000000000010106d                css__stylesheet_rule_set_media
                0x00000000001010e0                css__stylesheet_rule_set_page_selector
                0x0000000000101150                css__stylesheet_add_rule
                0x000000000010132c                css__stylesheet_remove_rule
 .text          0x0000000000101834       0x80 /home/bob/ofiles/libcss-utils-errors.o
                0x0000000000101834                css_error_to_string
 .text          0x00000000001018b4      0x35c /home/bob/ofiles/libcss-utils-utils.o
                0x00000000001018b4                css__number_from_lwc_string
                0x0000000000101989                css__number_from_string
 .text          0x0000000000101c10     0x1674 /home/bob/ofiles/libdom-bindings-parser.o
                0x0000000000102e2f                dom_hubbub_parser_create
                0x0000000000103108                dom_hubbub_parser_insert_chunk
                0x0000000000103130                dom_hubbub_parser_destroy
                0x000000000010317b                dom_hubbub_parser_parse_chunk
                0x00000000001031b6                dom_hubbub_parser_completed
                0x0000000000103212                dom_hubbub_parser_get_encoding
                0x0000000000103239                dom_hubbub_parser_pause
 .text          0x0000000000103284      0xcb0 /home/bob/ofiles/libdom-core-attr.o
                0x000000000010344e                _dom_attr_create
                0x00000000001034df                _dom_attr_initialise
                0x000000000010356b                _dom_attr_finalise
                0x000000000010357e                _dom_attr_destroy
                0x000000000010359c                dom_attr_get_type
                0x00000000001035a7                dom_attr_get_integer
                0x00000000001035ce                dom_attr_set_integer
                0x00000000001036a4                dom_attr_get_short
                0x00000000001036cd                dom_attr_set_short
                0x00000000001037ae                dom_attr_get_bool
                0x00000000001037d6                dom_attr_set_bool
                0x00000000001038b4                dom_attr_mark_readonly
                0x00000000001038c0                _dom_attr_get_name
                0x00000000001038da                _dom_attr_get_specified
                0x00000000001038f0                _dom_attr_get_value
                0x0000000000103ade                _dom_attr_set_value
                0x0000000000103c5f                _dom_attr_get_owner
                0x0000000000103c95                _dom_attr_get_schema_type_info
                0x0000000000103c9f                _dom_attr_is_id
                0x0000000000103cb5                _dom_attr_get_node_value
                0x0000000000103cd5                _dom_attr_clone_node
                0x0000000000103d1f                _dom_attr_set_prefix
                0x0000000000103d39                _dom_attr_lookup_prefix
                0x0000000000103d91                _dom_attr_is_default_namespace
                0x0000000000103de6                _dom_attr_lookup_namespace
                0x0000000000103e3e                __dom_attr_destroy
                0x0000000000103e51                _dom_attr_copy
                0x0000000000103ef6                _dom_attr_set_isid
                0x0000000000103f0e                _dom_attr_set_specified
                0x0000000000103f26                _dom_attr_readonly
 .text          0x0000000000103f34      0x114 /home/bob/ofiles/libdom-core-cdatasection.o
                0x0000000000103f34                _dom_cdata_section_create
                0x0000000000103fb9                _dom_cdata_section_destroy
                0x0000000000103fd7                __dom_cdata_section_destroy
                0x0000000000103fea                _dom_cdata_section_copy
 .text          0x0000000000104048      0x860 /home/bob/ofiles/libdom-core-characterdata.o
                0x00000000001040d6                _dom_characterdata_create
                0x0000000000104110                _dom_characterdata_initialise
                0x000000000010414f                _dom_characterdata_finalise
                0x0000000000104162                _dom_characterdata_get_data
                0x0000000000104198                _dom_characterdata_set_data
                0x0000000000104250                _dom_characterdata_get_length
                0x000000000010428b                _dom_characterdata_substring_data
                0x0000000000104317                _dom_characterdata_append_data
                0x00000000001043fc                _dom_characterdata_insert_data
                0x0000000000104524                _dom_characterdata_delete_data
                0x000000000010467c                _dom_characterdata_replace_data
                0x00000000001047c5                _dom_characterdata_get_text_content
                0x00000000001047e5                _dom_characterdata_set_text_content
                0x0000000000104805                _dom_characterdata_destroy
                0x000000000010482f                _dom_characterdata_copy
                0x000000000010488b                _dom_characterdata_copy_internal
 .text          0x00000000001048a8      0x114 /home/bob/ofiles/libdom-core-comment.o
                0x00000000001048a8                _dom_comment_create
                0x000000000010492d                _dom_comment_destroy
                0x000000000010494b                __dom_comment_destroy
                0x000000000010495e                _dom_comment_copy
 .text          0x00000000001049bc      0x124 /home/bob/ofiles/libdom-core-doc_fragment.o
                0x00000000001049bc                _dom_document_fragment_create
                0x0000000000104a51                _dom_document_fragment_destroy
                0x0000000000104a6f                _dom_df_destroy
                0x0000000000104a82                _dom_df_copy
 .text          0x0000000000104ae0     0x16a8 /home/bob/ofiles/libdom-core-document.o
                0x0000000000104c6c                _dom_document_create
                0x0000000000104ce2                _dom_document_initialise
                0x0000000000105320                _dom_document_finalise
                0x000000000010543a                _dom_document_get_doctype
                0x0000000000105487                _dom_document_get_implementation
                0x000000000010549a                _dom_document_get_document_element
                0x00000000001054e7                _dom_document_create_element
                0x0000000000105531                _dom_document_create_document_fragment
                0x0000000000105594                _dom_document_create_text_node
                0x00000000001055f6                _dom_document_create_comment
                0x0000000000105658                _dom_document_create_cdata_section
                0x00000000001056ba                _dom_document_create_processing_instruction
                0x00000000001056fb                _dom_document_create_attribute
                0x000000000010574d                _dom_document_create_entity_reference
                0x000000000010578f                _dom_document_get_elements_by_tag_name
                0x00000000001057cf                _dom_document_import_node
                0x0000000000105806                _dom_document_create_element_ns
                0x00000000001058c2                _dom_document_create_attribute_ns
                0x0000000000105989                _dom_document_get_elements_by_tag_name_ns
                0x00000000001059c8                _dom_document_get_element_by_id
                0x0000000000105a39                _dom_document_get_input_encoding
                0x0000000000105a43                _dom_document_get_xml_encoding
                0x0000000000105a4d                _dom_document_get_xml_standalone
                0x0000000000105a57                _dom_document_set_xml_standalone
                0x0000000000105a6a                _dom_document_get_xml_version
                0x0000000000105a74                _dom_document_set_xml_version
                0x0000000000105a7e                _dom_document_get_strict_error_checking
                0x0000000000105a88                _dom_document_set_strict_error_checking
                0x0000000000105a9b                _dom_document_get_uri
                0x0000000000105abb                _dom_document_set_uri
                0x0000000000105ae7                _dom_document_adopt_node
                0x0000000000105c24                _dom_document_get_dom_config
                0x0000000000105c2e                _dom_document_normalize
                0x0000000000105c38                _dom_document_rename_node
                0x0000000000105c42                _dom_document_get_text_content
                0x0000000000105c55                _dom_document_set_text_content
                0x0000000000105c5f                _dom_document_destroy
                0x0000000000105c87                _dom_document_copy
                0x0000000000105c91                _dom_document_get_nodelist
                0x0000000000105db2                _dom_document_remove_nodelist
                0x0000000000105e33                _dom_find_element_by_id
                0x00000000001060ff                _dom_document_try_destroy
                0x0000000000106128                _dom_document_set_id_name
                0x0000000000106159                _dom_document_get_quirks_mode
                0x0000000000106171                _dom_document_set_quirks_mode
 .text          0x0000000000106188      0x350 /home/bob/ofiles/libdom-core-document_type.o
                0x00000000001061f1                _dom_document_type_create
                0x000000000010626e                _dom_document_type_destroy
                0x0000000000106292                _dom_document_type_initialise
                0x000000000010637e                _dom_document_type_finalise
                0x00000000001063f9                _dom_document_type_get_name
                0x0000000000106413                _dom_document_type_get_entities
                0x000000000010641d                _dom_document_type_get_notations
                0x0000000000106427                _dom_document_type_get_public_id
                0x000000000010645c                _dom_document_type_get_system_id
                0x0000000000106491                _dom_document_type_get_internal_subset
                0x000000000010649b                _dom_document_type_get_text_content
                0x00000000001064ae                _dom_document_type_set_text_content
                0x00000000001064b8                _dom_dt_destroy
                0x00000000001064cb                _dom_dt_copy
 .text          0x00000000001064d8     0x2ae0 /home/bob/ofiles/libdom-core-element.o
                0x0000000000107134                _dom_element_create
                0x000000000010719f                _dom_element_initialise
                0x0000000000107262                _dom_element_finalise
                0x00000000001072a2                _dom_element_destroy
                0x00000000001072c0                _dom_element_get_tag_name
                0x00000000001072da                _dom_element_get_attribute
                0x0000000000107303                _dom_element_set_attribute
                0x000000000010732c                _dom_element_remove_attribute
                0x000000000010734e                _dom_element_get_attribute_node
                0x0000000000107377                _dom_element_set_attribute_node
                0x00000000001073a0                _dom_element_remove_attribute_node
                0x00000000001073c9                _dom_element_get_elements_by_tag_name
                0x0000000000107446                _dom_element_get_attribute_ns
                0x000000000010746e                _dom_element_set_attribute_ns
                0x0000000000107544                _dom_element_remove_attribute_ns
                0x0000000000107565                _dom_element_get_attribute_node_ns
                0x000000000010758d                _dom_element_set_attribute_node_ns
                0x00000000001075ed                _dom_element_get_elements_by_tag_name_ns
                0x0000000000107635                _dom_element_has_attribute
                0x000000000010765e                _dom_element_has_attribute_ns
                0x0000000000107686                _dom_element_get_schema_type_info
                0x0000000000107690                _dom_element_set_id_attribute
                0x00000000001076c0                _dom_element_set_id_attribute_ns
                0x0000000000107706                _dom_element_set_id_attribute_node
                0x0000000000107791                _dom_element_get_classes
                0x0000000000107835                _dom_element_has_class
                0x0000000000107988                dom_element_named_ancestor_node
                0x0000000000107a1c                dom_element_named_parent_node
                0x0000000000107ab2                dom_element_parent_node
                0x0000000000107aff                _dom_element_get_attributes
                0x0000000000107b79                _dom_element_has_attributes
                0x0000000000107b89                _dom_element_lookup_prefix
                0x0000000000107be1                _dom_element_is_default_namespace
                0x0000000000107cc0                _dom_element_lookup_namespace
                0x0000000000107dd3                _dom_element_parse_attribute
                0x0000000000107df3                __dom_element_destroy
                0x0000000000107e06                _dom_element_copy
                0x0000000000108c57                _dom_element_get_id
 .text          0x0000000000108fb8      0x12c /home/bob/ofiles/libdom-core-entity_ref.o
                0x0000000000108fb8                _dom_entity_reference_create
                0x000000000010904d                _dom_entity_reference_destroy
                0x000000000010906b                _dom_entity_reference_get_textual_representation
                0x0000000000109075                _dom_er_destroy
                0x0000000000109088                _dom_er_copy
 .text          0x00000000001090e4      0x5a8 /home/bob/ofiles/libdom-core-implementation.o
                0x00000000001091b3                dom_implementation_has_feature
                0x00000000001091bd                dom_implementation_create_document_type
                0x0000000000109389                dom_implementation_create_document
                0x0000000000109680                dom_implementation_get_feature
 .text          0x000000000010968c      0x42c /home/bob/ofiles/libdom-core-namednodemap.o
                0x000000000010968c                _dom_namednodemap_create
                0x00000000001096e1                dom_namednodemap_ref
                0x0000000000109722                dom_namednodemap_unref
                0x000000000010976a                dom_namednodemap_get_length
                0x00000000001097ba                _dom_namednodemap_get_named_item
                0x0000000000109812                _dom_namednodemap_set_named_item
                0x000000000010986a                _dom_namednodemap_remove_named_item
                0x00000000001098c2                _dom_namednodemap_item
                0x000000000010991a                _dom_namednodemap_get_named_item_ns
                0x0000000000109979                _dom_namednodemap_set_named_item_ns
                0x00000000001099d1                _dom_namednodemap_remove_named_item_ns
                0x0000000000109a30                _dom_namednodemap_equal
                0x0000000000109aa7                _dom_namednodemap_update
 .text          0x0000000000109ab8     0x2cd4 /home/bob/ofiles/libdom-core-node.o
                0x0000000000109e61                _dom_node_create
                0x0000000000109e9b                _dom_node_destroy
                0x0000000000109f4c                _dom_node_initialise
                0x000000000010a06a                _dom_node_finalise
                0x000000000010a273                _dom_node_get_node_name
                0x000000000010a3c7                _dom_node_get_node_value
                0x000000000010a3f7                _dom_node_set_node_value
                0x000000000010a4bf                _dom_node_get_node_type
                0x000000000010a4d4                _dom_node_get_parent_node
                0x000000000010a51f                _dom_node_get_child_nodes
                0x000000000010a574                _dom_node_get_first_child
                0x000000000010a5a4                _dom_node_get_last_child
                0x000000000010a5d4                _dom_node_get_previous_sibling
                0x000000000010a61f                _dom_node_get_next_sibling
                0x000000000010a66a                _dom_node_get_attributes
                0x000000000010a67d                _dom_node_get_owner_document
                0x000000000010a6c8                _dom_node_insert_before
                0x000000000010a968                _dom_node_replace_child
                0x000000000010ab09                _dom_node_remove_child
                0x000000000010ac03                _dom_node_append_child
                0x000000000010ac2c                _dom_node_has_child_nodes
                0x000000000010ac46                _dom_node_clone_node
                0x000000000010adb7                _dom_node_normalize
                0x000000000010ae7f                _dom_node_is_supported
                0x000000000010aec5                _dom_node_get_namespace
                0x000000000010af28                _dom_node_get_prefix
                0x000000000010af8b                _dom_node_set_prefix
                0x000000000010b02b                _dom_node_get_local_name
                0x000000000010b0b4                _dom_node_has_attributes
                0x000000000010b0c4                _dom_node_get_base
                0x000000000010b111                _dom_node_compare_document_position
                0x000000000010b11b                _dom_node_get_text_content
                0x000000000010b1fc                _dom_node_set_text_content
                0x000000000010b2d4                _dom_node_is_same
                0x000000000010b2ec                _dom_node_lookup_prefix
                0x000000000010b327                _dom_node_is_default_namespace
                0x000000000010b35f                _dom_node_lookup_namespace
                0x000000000010b39d                _dom_node_is_equal
                0x000000000010b5d4                _dom_node_get_feature
                0x000000000010b62c                _dom_node_set_user_data
                0x000000000010b798                _dom_node_get_user_data
                0x000000000010b7fc                _dom_node_copy
                0x000000000010b858                _dom_node_copy_internal
                0x000000000010bb22                _dom_node_readonly
                0x000000000010bec6                _dom_merge_adjacent_text
                0x000000000010bf7c                _dom_node_try_destroy
                0x000000000010c019                _dom_node_mark_pending
                0x000000000010c07c                _dom_node_remove_pending
                0x000000000010c0d5                _dom_node_add_event_listener
                0x000000000010c10d                _dom_node_remove_event_listener
                0x000000000010c145                _dom_node_add_event_listener_ns
                0x000000000010c184                _dom_node_remove_event_listener_ns
                0x000000000010c1c3                _dom_node_dispatch_event
                0x000000000010c6a0                _dom_node_dispatch_node_change_event
 .text          0x000000000010c78c      0xa58 /home/bob/ofiles/libdom-core-nodelist.o
                0x000000000010c83d                _dom_nodelist_create
                0x000000000010c9dd                dom_nodelist_ref
                0x000000000010ca1e                dom_nodelist_unref
                0x000000000010cb15                dom_nodelist_get_length
                0x000000000010cdae                _dom_nodelist_item
                0x000000000010d088                _dom_nodelist_match
                0x000000000010d198                _dom_nodelist_equal
 .text          0x000000000010d1e4      0x124 /home/bob/ofiles/libdom-core-pi.o
                0x000000000010d1e4                _dom_processing_instruction_create
                0x000000000010d279                _dom_processing_instruction_destroy
                0x000000000010d297                _dom_pi_destroy
                0x000000000010d2aa                _dom_pi_copy
 .text          0x000000000010d308     0x16a4 /home/bob/ofiles/libdom-core-string.o
                0x000000000010d323                dom_string_destroy
                0x000000000010d414                dom_string_create
                0x000000000010d4da                dom_string_create_interned
                0x000000000010d56a                dom_string_intern
                0x000000000010d628                dom_string_isequal
                0x000000000010d707                dom_string_caseless_isequal
                0x000000000010d87a                dom_string_lwc_isequal
                0x000000000010d963                dom_string_caseless_lwc_isequal
                0x000000000010db07                dom_string_index
                0x000000000010db8c                dom_string_rindex
                0x000000000010dc47                dom_string_length
                0x000000000010dc97                dom_string_at
                0x000000000010dd58                dom_string_concat
                0x000000000010dec0                dom_string_substr
                0x000000000010dfa1                dom_string_insert
                0x000000000010e183                dom_string_replace
                0x000000000010e3ae                dom_string_hash
                0x000000000010e404                _dom_exception_from_lwc_error
                0x000000000010e437                dom_string_data
                0x000000000010e48f                dom_string_byte_length
                0x000000000010e4e7                dom_string_toupper
                0x000000000010e63d                dom_string_tolower
                0x000000000010e793                dom_string_whitespace_op
 .text          0x000000000010e9ac      0x960 /home/bob/ofiles/libdom-core-text.o
                0x000000000010eb27                _dom_text_create
                0x000000000010ebac                _dom_text_destroy
                0x000000000010ebca                _dom_text_initialise
                0x000000000010ec13                _dom_text_finalise
                0x000000000010ec26                _dom_text_split_text
                0x000000000010ed4b                _dom_text_get_is_element_content_whitespace
                0x000000000010ed61                _dom_text_get_whole_text
                0x000000000010ed83                _dom_text_replace_whole_text
                0x000000000010edeb                __dom_text_destroy
                0x000000000010edfe                _dom_text_copy
                0x000000000010ee5a                _dom_text_copy_internal
 .text          0x000000000010f30c       0x20 /home/bob/ofiles/libdom-core-typeinfo.o
                0x000000000010f30c                _dom_type_info_get_type_name
                0x000000000010f316                _dom_type_info_get_type_namespace
                0x000000000010f320                _dom_type_info_is_derived
 .text          0x000000000010f32c      0x10c /home/bob/ofiles/libdom-events-custom_event.o
                0x000000000010f32c                _dom_custom_event_create
                0x000000000010f370                _dom_custom_event_destroy
                0x000000000010f38e                _dom_custom_event_initialise
                0x000000000010f3ab                _dom_custom_event_finalise
                0x000000000010f3db                _dom_custom_event_get_detail
                0x000000000010f3f0                _dom_custom_event_init_ns
 .text          0x000000000010f438      0x574 /home/bob/ofiles/libdom-events-dispatch.o
                0x000000000010f4a8                __dom_dispatch_node_change_event
                0x000000000010f5be                __dom_dispatch_node_change_document_event
                0x000000000010f6d5                __dom_dispatch_attr_modified_event
                0x000000000010f799                __dom_dispatch_characterdata_modified_event
                0x000000000010f85f                __dom_dispatch_subtree_modified_event
                0x000000000010f927                _dom_dispatch_generic_event
 .text          0x000000000010f9ac      0x2f8 /home/bob/ofiles/libdom-events-document_event.o
                0x000000000010f9ac                _dom_document_event_internal_initialise
                0x000000000010fa36                _dom_document_event_internal_finalise
                0x000000000010fad8                _dom_document_event_create_event
                0x000000000010fc99                _dom_document_event_can_dispatch
 .text          0x000000000010fca4      0x3d4 /home/bob/ofiles/libdom-events-event.o
                0x000000000010fd23                _dom_event_create
                0x000000000010fd67                _dom_event_destroy
                0x000000000010fd85                _dom_event_initialise
                0x000000000010fdcf                _dom_event_finalise
                0x000000000010fe4e                _dom_event_ref
                0x000000000010fe62                _dom_event_unref
                0x000000000010fe98                _dom_event_get_type
                0x000000000010feb7                _dom_event_get_target
                0x000000000010fedc                _dom_event_get_current_target
                0x000000000010ff01                _dom_event_get_event_phase
                0x000000000010ff16                _dom_event_get_bubbles
                0x000000000010ff2c                _dom_event_get_cancelable
                0x000000000010ff42                _dom_event_get_timestamp
                0x000000000010ff57                _dom_event_stop_propagation
                0x000000000010ff68                _dom_event_prevent_default
                0x000000000010ff79                _dom_event_init
                0x000000000010ffca                _dom_event_get_namespace
                0x000000000010ffea                _dom_event_is_custom
                0x0000000000110000                _dom_event_stop_immediate_propagation
                0x0000000000110011                _dom_event_is_default_prevented
                0x0000000000110027                _dom_event_init_ns
 .text          0x0000000000110078       0x98 /home/bob/ofiles/libdom-events-event_listener.o
                0x0000000000110078                dom_event_listener_create
                0x00000000001100c4                dom_event_listener_ref
                0x00000000001100d8                dom_event_listener_unref
 .text          0x0000000000110110      0x3dc /home/bob/ofiles/libdom-events-event_target.o
                0x0000000000110226                _dom_event_target_internal_initialise
                0x0000000000110239                _dom_event_target_internal_finalise
                0x0000000000110257                _dom_event_target_add_event_listener
                0x00000000001102ee                _dom_event_target_remove_event_listener
                0x00000000001103bd                _dom_event_target_add_event_listener_ns
                0x00000000001103d0                _dom_event_target_remove_event_listener_ns
                0x00000000001103e3                _dom_event_target_dispatch
 .text          0x00000000001104ec      0x6f8 /home/bob/ofiles/libdom-events-keyboard_event.o
                0x0000000000110507                _dom_keyboard_event_create
                0x000000000011054b                _dom_keyboard_event_destroy
                0x0000000000110569                _dom_keyboard_event_initialise
                0x0000000000110590                _dom_keyboard_event_finalise
                0x00000000001105b6                _dom_keyboard_event_get_key_identifier
                0x00000000001105db                _dom_keyboard_event_get_key_location
                0x00000000001105f0                _dom_keyboard_event_get_ctrl_key
                0x000000000011060d                _dom_keyboard_event_get_shift_key
                0x000000000011062a                _dom_keyboard_event_get_alt_key
                0x0000000000110647                _dom_keyboard_event_get_meta_key
                0x0000000000110664                _dom_keyboard_event_get_modifier_state
                0x000000000011087a                _dom_keyboard_event_init
                0x0000000000110907                _dom_keyboard_event_init_ns
                0x000000000011099b                _dom_parse_modifier_list
 .text          0x0000000000110be4      0x5d4 /home/bob/ofiles/libdom-events-mouse_event.o
                0x0000000000110be4                _dom_mouse_event_create
                0x0000000000110c28                _dom_mouse_event_destroy
                0x0000000000110c46                _dom_mouse_event_initialise
                0x0000000000110c76                _dom_mouse_event_get_screen_x
                0x0000000000110c8b                _dom_mouse_event_get_screen_y
                0x0000000000110ca0                _dom_mouse_event_get_client_x
                0x0000000000110cb5                _dom_mouse_event_get_client_y
                0x0000000000110cca                _dom_mouse_event_get_ctrl_key
                0x0000000000110ce7                _dom_mouse_event_get_shift_key
                0x0000000000110d04                _dom_mouse_event_get_alt_key
                0x0000000000110d21                _dom_mouse_event_get_meta_key
                0x0000000000110d3e                _dom_mouse_event_get_button
                0x0000000000110d55                _dom_mouse_event_get_related_target
                0x0000000000110d6a                _dom_mouse_event_get_modifier_state
                0x0000000000110f80                _dom_mouse_event_init
                0x0000000000111097                _dom_mouse_event_init_ns
 .text          0x00000000001111b8      0x1b4 /home/bob/ofiles/libdom-events-mouse_multi_wheel_event.o
                0x00000000001111b8                _dom_mouse_multi_wheel_event_create
                0x00000000001111fc                _dom_mouse_multi_wheel_event_destroy
                0x000000000011121a                _dom_mouse_multi_wheel_event_initialise
                0x0000000000111240                _dom_mouse_multi_wheel_event_get_wheel_delta_x
                0x0000000000111255                _dom_mouse_multi_wheel_event_get_wheel_delta_y
                0x000000000011126a                _dom_mouse_multi_wheel_event_get_wheel_delta_z
                0x000000000011127f                _dom_mouse_multi_wheel_event_init_ns
 .text          0x000000000011136c      0x178 /home/bob/ofiles/libdom-events-mouse_wheel_event.o
                0x000000000011136c                _dom_mouse_wheel_event_create
                0x00000000001113b0                _dom_mouse_wheel_event_destroy
                0x00000000001113ce                _dom_mouse_wheel_event_initialise
                0x00000000001113f4                _dom_mouse_wheel_event_get_wheel_delta
                0x0000000000111409                _dom_mouse_wheel_event_init_ns
 .text          0x00000000001114e4      0x3a4 /home/bob/ofiles/libdom-events-mutation_event.o
                0x0000000000111595                _dom_mutation_event_create
                0x00000000001115d9                _dom_mutation_event_destroy
                0x00000000001115f7                _dom_mutation_event_initialise
                0x0000000000111632                _dom_mutation_event_finalise
                0x00000000001116b8                _dom_mutation_event_get_related_node
                0x00000000001116dd                _dom_mutation_event_get_prev_value
                0x0000000000111702                _dom_mutation_event_get_new_value
                0x0000000000111727                _dom_mutation_event_get_attr_name
                0x000000000011174c                _dom_mutation_event_get_attr_change
                0x0000000000111761                _dom_mutation_event_init
                0x00000000001117f0                _dom_mutation_event_init_ns
 .text          0x0000000000111888      0x270 /home/bob/ofiles/libdom-events-mutation_name_event.o
                0x00000000001118d2                _dom_mutation_name_event_create
                0x0000000000111916                _dom_mutation_name_event_destroy
                0x0000000000111934                _dom_mutation_name_event_initialise
                0x000000000011195b                _dom_mutation_name_event_finalise
                0x000000000011199d                _dom_mutation_name_event_get_prev_namespace
                0x00000000001119c2                _dom_mutation_name_event_get_prev_node_name
                0x00000000001119e7                _dom_mutation_name_event_init
                0x0000000000111a6c                _dom_mutation_name_event_init_ns
 .text          0x0000000000111af8      0x1e8 /home/bob/ofiles/libdom-events-text_event.o
                0x0000000000111b42                _dom_text_event_create
                0x0000000000111b86                _dom_text_event_destroy
                0x0000000000111ba4                _dom_text_event_initialise
                0x0000000000111bc1                _dom_text_event_finalise
                0x0000000000111bf5                _dom_text_event_get_data
                0x0000000000111c1a                _dom_text_event_init
                0x0000000000111c78                _dom_text_event_init_ns
 .text          0x0000000000111ce0      0x170 /home/bob/ofiles/libdom-events-ui_event.o
                0x0000000000111ce0                _dom_ui_event_create
                0x0000000000111d24                _dom_ui_event_destroy
                0x0000000000111d42                _dom_ui_event_initialise
                0x0000000000111d5f                _dom_ui_event_finalise
                0x0000000000111d8f                _dom_ui_event_get_view
                0x0000000000111da4                _dom_ui_event_get_detail
                0x0000000000111db9                _dom_ui_event_init
                0x0000000000111e01                _dom_ui_event_init_ns
 .text          0x0000000000111e50      0x7d0 /home/bob/ofiles/libdom-html-html_anchor_element.o
                0x0000000000111ebd                _dom_html_anchor_element_create
                0x0000000000111f25                _dom_html_anchor_element_initialise
                0x0000000000111f61                _dom_html_anchor_element_finalise
                0x0000000000111f74                _dom_html_anchor_element_destroy
                0x0000000000111f92                _dom_html_anchor_element_parse_attribute
                0x0000000000111fb2                _dom_virtual_html_anchor_element_destroy
                0x0000000000111fc5                _dom_html_anchor_element_copy
                0x0000000000111fdf                dom_html_anchor_element_get_access_key
                0x0000000000112018                dom_html_anchor_element_set_access_key
                0x0000000000112051                dom_html_anchor_element_get_charset
                0x000000000011208a                dom_html_anchor_element_set_charset
                0x00000000001120c3                dom_html_anchor_element_get_coords
                0x00000000001120ff                dom_html_anchor_element_set_coords
                0x000000000011213b                dom_html_anchor_element_get_href
                0x0000000000112174                dom_html_anchor_element_set_href
                0x00000000001121ad                dom_html_anchor_element_get_hreflang
                0x00000000001121e6                dom_html_anchor_element_set_hreflang
                0x000000000011221f                dom_html_anchor_element_get_name
                0x0000000000112258                dom_html_anchor_element_set_name
                0x0000000000112291                dom_html_anchor_element_get_rel
                0x00000000001122ca                dom_html_anchor_element_set_rel
                0x0000000000112303                dom_html_anchor_element_get_rev
                0x000000000011233c                dom_html_anchor_element_set_rev
                0x0000000000112375                dom_html_anchor_element_get_shape
                0x00000000001123b1                dom_html_anchor_element_set_shape
                0x00000000001123ed                dom_html_anchor_element_get_target
                0x0000000000112426                dom_html_anchor_element_set_target
                0x000000000011245f                dom_html_anchor_element_get_type
                0x0000000000112498                dom_html_anchor_element_set_type
                0x00000000001124d1                dom_html_anchor_element_get_tab_index
                0x00000000001124fb                dom_html_anchor_element_set_tab_index
                0x0000000000112525                dom_html_anchor_element_blur
                0x00000000001125a1                dom_html_anchor_element_focus
 .text          0x0000000000112620      0x66c /home/bob/ofiles/libdom-html-html_applet_element.o
                0x000000000011268d                _dom_html_applet_element_create
                0x00000000001126f5                _dom_html_applet_element_initialise
                0x0000000000112731                _dom_html_applet_element_finalise
                0x0000000000112744                _dom_html_applet_element_destroy
                0x0000000000112762                _dom_html_applet_element_parse_attribute
                0x0000000000112782                _dom_virtual_html_applet_element_destroy
                0x0000000000112795                _dom_html_applet_element_copy
                0x00000000001127af                dom_html_applet_element_get_align
                0x00000000001127eb                dom_html_applet_element_set_align
                0x0000000000112827                dom_html_applet_element_get_alt
                0x0000000000112863                dom_html_applet_element_set_alt
                0x000000000011289f                dom_html_applet_element_get_archive
                0x00000000001128db                dom_html_applet_element_set_archive
                0x0000000000112917                dom_html_applet_element_get_code
                0x0000000000112953                dom_html_applet_element_set_code
                0x000000000011298f                dom_html_applet_element_get_code_base
                0x00000000001129cb                dom_html_applet_element_set_code_base
                0x0000000000112a07                dom_html_applet_element_get_height
                0x0000000000112a43                dom_html_applet_element_set_height
                0x0000000000112a7f                dom_html_applet_element_get_name
                0x0000000000112ab8                dom_html_applet_element_set_name
                0x0000000000112af1                dom_html_applet_element_get_object
                0x0000000000112b2d                dom_html_applet_element_set_object
                0x0000000000112b69                dom_html_applet_element_get_width
                0x0000000000112ba5                dom_html_applet_element_set_width
                0x0000000000112be1                dom_html_applet_element_get_hspace
                0x0000000000112c0b                dom_html_applet_element_set_hspace
                0x0000000000112c35                dom_html_applet_element_get_vspace
                0x0000000000112c5f                dom_html_applet_element_set_vspace
 .text          0x0000000000112c8c      0x4fc /home/bob/ofiles/libdom-html-html_area_element.o
                0x0000000000112cf9                _dom_html_area_element_create
                0x0000000000112d61                _dom_html_area_element_initialise
                0x0000000000112d9d                _dom_html_area_element_finalise
                0x0000000000112db0                _dom_html_area_element_destroy
                0x0000000000112dce                dom_html_area_element_get_no_href
                0x0000000000112df8                dom_html_area_element_set_no_href
                0x0000000000112e29                dom_html_area_element_get_tab_index
                0x0000000000112e53                dom_html_area_element_set_tab_index
                0x0000000000112e7d                _dom_html_area_element_parse_attribute
                0x0000000000112e9d                _dom_virtual_html_area_element_destroy
                0x0000000000112eb0                _dom_html_area_element_copy
                0x0000000000112eca                dom_html_area_element_get_access_key
                0x0000000000112f03                dom_html_area_element_set_access_key
                0x0000000000112f3c                dom_html_area_element_get_alt
                0x0000000000112f78                dom_html_area_element_set_alt
                0x0000000000112fb4                dom_html_area_element_get_coords
                0x0000000000112ff0                dom_html_area_element_set_coords
                0x000000000011302c                dom_html_area_element_get_href
                0x0000000000113065                dom_html_area_element_set_href
                0x000000000011309e                dom_html_area_element_get_shape
                0x00000000001130da                dom_html_area_element_set_shape
                0x0000000000113116                dom_html_area_element_get_target
                0x000000000011314f                dom_html_area_element_set_target
 .text          0x0000000000113188      0x2cc /home/bob/ofiles/libdom-html-html_base_element.o
                0x0000000000113224                _dom_html_base_element_create
                0x000000000011327e                _dom_html_base_element_initialise
                0x00000000001132f0                _dom_html_base_element_finalise
                0x0000000000113303                _dom_html_base_element_destroy
                0x0000000000113321                _dom_html_base_element_parse_attribute
                0x0000000000113341                _dom_virtual_html_base_element_destroy
                0x0000000000113354                _dom_html_base_element_copy
                0x000000000011336e                dom_html_base_element_get_href
                0x00000000001133a7                dom_html_base_element_set_href
                0x00000000001133e0                dom_html_base_element_get_target
                0x0000000000113419                dom_html_base_element_set_target
 .text          0x0000000000113454      0x2d4 /home/bob/ofiles/libdom-html-html_basefont_element.o
                0x00000000001134c1                _dom_html_base_font_element_create
                0x0000000000113529                _dom_html_base_font_element_initialise
                0x0000000000113565                _dom_html_base_font_element_finalise
                0x0000000000113578                _dom_html_base_font_element_destroy
                0x0000000000113596                dom_html_base_font_element_get_size
                0x00000000001135c0                dom_html_base_font_element_set_size
                0x00000000001135ea                _dom_html_base_font_element_parse_attribute
                0x000000000011360a                _dom_virtual_html_base_font_element_destroy
                0x000000000011361d                _dom_html_base_font_element_copy
                0x0000000000113637                dom_html_base_font_element_get_color
                0x0000000000113673                dom_html_base_font_element_set_color
                0x00000000001136af                dom_html_base_font_element_get_face
                0x00000000001136eb                dom_html_base_font_element_set_face
 .text          0x0000000000113728      0x43c /home/bob/ofiles/libdom-html-html_body_element.o
                0x0000000000113795                _dom_html_body_element_create
                0x00000000001137fd                _dom_html_body_element_initialise
                0x0000000000113839                _dom_html_body_element_finalise
                0x000000000011384c                _dom_html_body_element_destroy
                0x000000000011386a                _dom_html_body_element_parse_attribute
                0x000000000011388a                _dom_virtual_html_body_element_destroy
                0x000000000011389d                _dom_html_body_element_copy
                0x00000000001138b7                dom_html_body_element_get_a_link
                0x00000000001138f0                dom_html_body_element_set_a_link
                0x0000000000113929                dom_html_body_element_get_background
                0x0000000000113962                dom_html_body_element_set_background
                0x000000000011399b                dom_html_body_element_get_bg_color
                0x00000000001139d4                dom_html_body_element_set_bg_color
                0x0000000000113a0d                dom_html_body_element_get_link
                0x0000000000113a46                dom_html_body_element_set_link
                0x0000000000113a7f                dom_html_body_element_get_text
                0x0000000000113ab8                dom_html_body_element_set_text
                0x0000000000113af1                dom_html_body_element_get_v_link
                0x0000000000113b2a                dom_html_body_element_set_v_link
 .text          0x0000000000113b64      0x204 /home/bob/ofiles/libdom-html-html_br_element.o
                0x0000000000113bd1                _dom_html_br_element_create
                0x0000000000113c39                _dom_html_br_element_initialise
                0x0000000000113c75                _dom_html_br_element_finalise
                0x0000000000113c88                _dom_html_br_element_destroy
                0x0000000000113ca6                _dom_html_br_element_parse_attribute
                0x0000000000113cc6                _dom_virtual_html_br_element_destroy
                0x0000000000113cd9                _dom_html_br_element_copy
                0x0000000000113cf3                dom_html_br_element_get_clear
                0x0000000000113d2c                dom_html_br_element_set_clear
 .text          0x0000000000113d68      0x438 /home/bob/ofiles/libdom-html-html_button_element.o
                0x0000000000113df2                _dom_html_button_element_create
                0x0000000000113e5a                _dom_html_button_element_initialise
                0x0000000000113ea0                _dom_html_button_element_finalise
                0x0000000000113eb3                _dom_html_button_element_destroy
                0x0000000000113ed1                dom_html_button_element_get_disabled
                0x0000000000113efb                dom_html_button_element_set_disabled
                0x0000000000113f2c                _dom_html_button_element_parse_attribute
                0x0000000000113f4c                _dom_virtual_html_button_element_destroy
                0x0000000000113f5f                _dom_html_button_element_copy
                0x0000000000113f79                dom_html_button_element_get_access_key
                0x0000000000113fb2                dom_html_button_element_set_access_key
                0x0000000000113feb                dom_html_button_element_get_name
                0x0000000000114024                dom_html_button_element_set_name
                0x000000000011405d                dom_html_button_element_get_type
                0x0000000000114096                dom_html_button_element_get_value
                0x00000000001140cf                dom_html_button_element_set_value
                0x0000000000114108                dom_html_button_element_get_tab_index
                0x0000000000114132                dom_html_button_element_set_tab_index
                0x000000000011415c                dom_html_button_element_get_form
                0x000000000011418a                _dom_html_button_element_set_form
 .text          0x00000000001141a0      0x628 /home/bob/ofiles/libdom-html-html_collection.o
                0x0000000000114236                _dom_html_collection_create
                0x000000000011428a                _dom_html_collection_initialise
                0x0000000000114358                _dom_html_collection_finalise
                0x0000000000114399                _dom_html_collection_destroy
                0x00000000001143b7                dom_html_collection_get_length
                0x000000000011448f                dom_html_collection_item
                0x000000000011458d                dom_html_collection_named_item
                0x000000000011476b                dom_html_collection_ref
                0x0000000000114787                dom_html_collection_unref
 .text          0x00000000001147c8      0x198 /home/bob/ofiles/libdom-html-html_directory_element.o
                0x00000000001147e3                _dom_html_directory_element_create
                0x000000000011484b                _dom_html_directory_element_initialise
                0x0000000000114887                _dom_html_directory_element_finalise
                0x000000000011489a                _dom_html_directory_element_destroy
                0x00000000001148b8                dom_html_directory_element_get_compact
                0x00000000001148e2                dom_html_directory_element_set_compact
                0x0000000000114913                _dom_html_directory_element_parse_attribute
                0x0000000000114933                _dom_virtual_html_directory_element_destroy
                0x0000000000114946                _dom_html_directory_element_copy
 .text          0x0000000000114960      0x208 /home/bob/ofiles/libdom-html-html_div_element.o
                0x00000000001149cd                _dom_html_div_element_create
                0x0000000000114a35                _dom_html_div_element_initialise
                0x0000000000114a71                _dom_html_div_element_finalise
                0x0000000000114a84                _dom_html_div_element_destroy
                0x0000000000114aa2                _dom_html_div_element_parse_attribute
                0x0000000000114ac2                _dom_virtual_html_div_element_destroy
                0x0000000000114ad5                _dom_html_div_element_copy
                0x0000000000114aef                dom_html_div_element_get_align
                0x0000000000114b2b                dom_html_div_element_set_align
 .text          0x0000000000114b68      0x198 /home/bob/ofiles/libdom-html-html_dlist_element.o
                0x0000000000114b83                _dom_html_dlist_element_create
                0x0000000000114beb                _dom_html_dlist_element_initialise
                0x0000000000114c27                _dom_html_dlist_element_finalise
                0x0000000000114c3a                _dom_html_dlist_element_destroy
                0x0000000000114c58                dom_html_dlist_element_get_compact
                0x0000000000114c82                dom_html_dlist_element_set_compact
                0x0000000000114cb3                _dom_html_dlist_element_parse_attribute
                0x0000000000114cd3                _dom_virtual_html_dlist_element_destroy
                0x0000000000114ce6                _dom_html_dlist_element_copy
 .text          0x0000000000114d00     0x3df0 /home/bob/ofiles/libdom-html-html_document.o
                0x0000000000114e2a                _dom_html_document_create
                0x0000000000114ea0                _dom_html_document_initialise
                0x0000000000116f9d                _dom_html_document_finalise
                0x00000000001170b9                _dom_html_document_destroy
                0x00000000001170e1                _dom_html_document_copy
                0x0000000000118126                _dom_html_document_create_element
                0x000000000011815d                _dom_html_document_create_element_ns
                0x00000000001181dc                _dom_html_document_create_attribute
                0x0000000000118215                _dom_html_document_create_attribute_ns
                0x000000000011829d                _dom_html_document_get_elements_by_tag_name
                0x00000000001182dd                _dom_html_document_get_elements_by_tag_name_ns
                0x000000000011831c                _dom_html_document_get_title
                0x000000000011842d                _dom_html_document_set_title
                0x000000000011846c                _dom_html_document_get_referrer
                0x000000000011848f                _dom_html_document_get_domain
                0x00000000001184b2                _dom_html_document_get_url
                0x00000000001184d5                _dom_html_document_get_body
                0x0000000000118634                _dom_html_document_set_body
                0x000000000011864a                images_callback
                0x000000000011868f                _dom_html_document_get_images
                0x00000000001186df                applet_callback
                0x0000000000118724                applets_callback
                0x00000000001187cb                _dom_html_document_get_applets
                0x000000000011881b                links_callback
                0x00000000001188cc                _dom_html_document_get_links
                0x000000000011894f                _dom_html_document_get_forms
                0x00000000001189d1                anchors_callback
                0x0000000000118a58                _dom_html_document_get_anchors
                0x0000000000118aa8                _dom_html_document_get_cookie
                0x0000000000118ab2                _dom_html_document_set_cookie
                0x0000000000118abc                _dom_html_document_open
                0x0000000000118ac6                _dom_html_document_close
                0x0000000000118ad0                _dom_html_document_write
                0x0000000000118ada                _dom_html_document_writeln
                0x0000000000118ae4                _dom_html_document_get_elements_by_name
 .text          0x0000000000118af0      0xd10 /home/bob/ofiles/libdom-html-html_element.o
                0x0000000000118c58                _dom_html_element_create
                0x0000000000118cdc                _dom_html_element_initialise
                0x0000000000118d1c                _dom_html_element_finalise
                0x0000000000118d2f                _dom_html_element_destroy
                0x0000000000118d53                _dom_html_element_copy
                0x0000000000118d6d                _dom_html_element_get_id
                0x0000000000118da5                _dom_html_element_set_id
                0x0000000000118ddd                _dom_html_element_get_title
                0x0000000000118e16                _dom_html_element_set_title
                0x0000000000118e4f                _dom_html_element_get_lang
                0x0000000000118e88                _dom_html_element_set_lang
                0x0000000000118ec1                _dom_html_element_get_dir
                0x0000000000118efa                _dom_html_element_set_dir
                0x0000000000118f33                _dom_html_element_get_class_name
                0x0000000000118f6c                _dom_html_element_set_class_name
                0x0000000000118fa5                _dom_html_element_get_attribute
                0x0000000000118fff                _dom_html_element_set_attribute
                0x0000000000119059                _dom_html_element_remove_attribute
                0x00000000001190ac                _dom_html_element_has_attribute
                0x0000000000119106                _dom_html_element_get_elements_by_tag_name
                0x0000000000119183                _dom_html_element_get_elements_by_tag_name_ns
                0x00000000001191cb                dom_html_element_get_bool_property
                0x0000000000119257                dom_html_element_set_bool_property
                0x000000000011941e                dom_html_element_get_int32_t_property
                0x0000000000119546                dom_html_element_set_int32_t_property
                0x000000000011960f                dom_html_element_get_dom_ulong_property
                0x0000000000119735                dom_html_element_set_dom_ulong_property
 .text          0x0000000000119800      0x1c0 /home/bob/ofiles/libdom-html-html_fieldset_element.o
                0x000000000011981b                _dom_html_field_set_element_create
                0x0000000000119883                _dom_html_field_set_element_initialise
                0x00000000001198bf                _dom_html_field_set_element_finalise
                0x00000000001198d2                _dom_html_field_set_element_destroy
                0x00000000001198f0                _dom_html_field_set_element_parse_attribute
                0x0000000000119910                _dom_virtual_html_field_set_element_destroy
                0x0000000000119923                _dom_html_field_set_element_copy
                0x000000000011993d                dom_html_field_set_element_get_form
 .text          0x00000000001199c0      0x2f8 /home/bob/ofiles/libdom-html-html_font_element.o
                0x0000000000119a2d                _dom_html_font_element_create
                0x0000000000119a95                _dom_html_font_element_initialise
                0x0000000000119ad1                _dom_html_font_element_finalise
                0x0000000000119ae4                _dom_html_font_element_destroy
                0x0000000000119b02                _dom_html_font_element_parse_attribute
                0x0000000000119b22                _dom_virtual_html_font_element_destroy
                0x0000000000119b35                _dom_html_font_element_copy
                0x0000000000119b4f                dom_html_font_element_get_color
                0x0000000000119b8b                dom_html_font_element_set_color
                0x0000000000119bc7                dom_html_font_element_get_face
                0x0000000000119c03                dom_html_font_element_set_face
                0x0000000000119c3f                dom_html_font_element_get_size
                0x0000000000119c7b                dom_html_font_element_set_size
 .text          0x0000000000119cb8      0x6e4 /home/bob/ofiles/libdom-html-html_form_element.o
                0x0000000000119d25                _dom_html_form_element_create
                0x0000000000119d8d                _dom_html_form_element_initialise
                0x0000000000119dcf                _dom_html_form_element_finalise
                0x0000000000119de2                _dom_html_form_element_destroy
                0x0000000000119e00                _dom_html_form_element_parse_attribute
                0x0000000000119e20                _dom_virtual_html_form_element_destroy
                0x0000000000119e33                _dom_html_form_element_copy
                0x0000000000119e4d                dom_html_form_element_get_elements
                0x0000000000119eb6                dom_html_form_element_get_length
                0x0000000000119f4a                dom_html_form_element_get_accept_charset
                0x0000000000119f83                dom_html_form_element_set_accept_charset
                0x0000000000119fbc                dom_html_form_element_get_action
                0x0000000000119ff5                dom_html_form_element_set_action
                0x000000000011a02e                dom_html_form_element_get_enctype
                0x000000000011a067                dom_html_form_element_set_enctype
                0x000000000011a0a0                dom_html_form_element_get_method
                0x000000000011a0d9                dom_html_form_element_set_method
                0x000000000011a112                dom_html_form_element_get_target
                0x000000000011a14b                dom_html_form_element_set_target
                0x000000000011a184                dom_html_form_element_submit
                0x000000000011a200                dom_html_form_element_reset
 .text          0x000000000011a39c      0x538 /home/bob/ofiles/libdom-html-html_frame_element.o
                0x000000000011a409                _dom_html_frame_element_create
                0x000000000011a471                _dom_html_frame_element_initialise
                0x000000000011a4ad                _dom_html_frame_element_finalise
                0x000000000011a4c0                _dom_html_frame_element_destroy
                0x000000000011a4de                dom_html_frame_element_get_no_resize
                0x000000000011a508                dom_html_frame_element_set_no_resize
                0x000000000011a539                _dom_html_frame_element_parse_attribute
                0x000000000011a559                _dom_virtual_html_frame_element_destroy
                0x000000000011a56c                _dom_html_frame_element_copy
                0x000000000011a586                dom_html_frame_element_get_long_desc
                0x000000000011a5c2                dom_html_frame_element_set_long_desc
                0x000000000011a5fe                dom_html_frame_element_get_name
                0x000000000011a637                dom_html_frame_element_set_name
                0x000000000011a670                dom_html_frame_element_get_src
                0x000000000011a6ac                dom_html_frame_element_set_src
                0x000000000011a6e8                dom_html_frame_element_get_frame_border
                0x000000000011a724                dom_html_frame_element_set_frame_border
                0x000000000011a760                dom_html_frame_element_get_margin_width
                0x000000000011a79c                dom_html_frame_element_set_margin_width
                0x000000000011a7d8                dom_html_frame_element_get_margin_height
                0x000000000011a814                dom_html_frame_element_set_margin_height
                0x000000000011a850                dom_html_frame_element_get_scrolling
                0x000000000011a88c                dom_html_frame_element_set_scrolling
                0x000000000011a8c8                dom_html_frame_element_get_content_document
 .text          0x000000000011a8d4      0x280 /home/bob/ofiles/libdom-html-html_frameset_element.o
                0x000000000011a941                _dom_html_frame_set_element_create
                0x000000000011a9a9                _dom_html_frame_set_element_initialise
                0x000000000011a9e5                _dom_html_frame_set_element_finalise
                0x000000000011a9f8                _dom_html_frame_set_element_destroy
                0x000000000011aa16                _dom_html_frame_set_element_parse_attribute
                0x000000000011aa36                _dom_virtual_html_frame_set_element_destroy
                0x000000000011aa49                _dom_html_frame_set_element_copy
                0x000000000011aa63                dom_html_frame_set_element_get_rows
                0x000000000011aa9f                dom_html_frame_set_element_set_rows
                0x000000000011aadb                dom_html_frame_set_element_get_cols
                0x000000000011ab17                dom_html_frame_set_element_set_cols
 .text          0x000000000011ab54      0x204 /home/bob/ofiles/libdom-html-html_head_element.o
                0x000000000011abc1                _dom_html_head_element_create
                0x000000000011ac29                _dom_html_head_element_initialise
                0x000000000011ac65                _dom_html_head_element_finalise
                0x000000000011ac78                _dom_html_head_element_destroy
                0x000000000011ac96                _dom_html_head_element_parse_attribute
                0x000000000011acb6                _dom_virtual_html_head_element_destroy
                0x000000000011acc9                _dom_html_head_element_copy
                0x000000000011ace3                dom_html_head_element_get_profile
                0x000000000011ad1c                dom_html_head_element_set_profile
 .text          0x000000000011ad58      0x204 /home/bob/ofiles/libdom-html-html_heading_element.o
                0x000000000011adc5                _dom_html_heading_element_create
                0x000000000011ae34                _dom_html_heading_element_initialise
                0x000000000011ae63                _dom_html_heading_element_finalise
                0x000000000011ae76                _dom_html_heading_element_destroy
                0x000000000011ae94                _dom_html_heading_element_parse_attribute
                0x000000000011aeb4                _dom_virtual_html_heading_element_destroy
                0x000000000011aec7                _dom_html_heading_element_copy
                0x000000000011aee1                dom_html_heading_element_get_align
                0x000000000011af1d                dom_html_heading_element_set_align
 .text          0x000000000011af5c      0x354 /home/bob/ofiles/libdom-html-html_hr_element.o
                0x000000000011afc9                _dom_html_hr_element_create
                0x000000000011b031                _dom_html_hr_element_initialise
                0x000000000011b06d                _dom_html_hr_element_finalise
                0x000000000011b080                _dom_html_hr_element_destroy
                0x000000000011b09e                dom_html_hr_element_get_no_shade
                0x000000000011b0c8                dom_html_hr_element_set_no_shade
                0x000000000011b0f9                _dom_html_hr_element_parse_attribute
                0x000000000011b119                _dom_virtual_html_hr_element_destroy
                0x000000000011b12c                _dom_html_hr_element_copy
                0x000000000011b146                dom_html_hr_element_get_size
                0x000000000011b182                dom_html_hr_element_set_size
                0x000000000011b1be                dom_html_hr_element_get_align
                0x000000000011b1fa                dom_html_hr_element_set_align
                0x000000000011b236                dom_html_hr_element_get_width
                0x000000000011b272                dom_html_hr_element_set_width
 .text          0x000000000011b2b0      0x204 /home/bob/ofiles/libdom-html-html_html_element.o
                0x000000000011b31d                _dom_html_html_element_create
                0x000000000011b385                _dom_html_html_element_initialise
                0x000000000011b3c1                _dom_html_html_element_finalise
                0x000000000011b3d4                _dom_html_html_element_destroy
                0x000000000011b3f2                _dom_html_html_element_parse_attribute
                0x000000000011b412                _dom_virtual_html_html_element_destroy
                0x000000000011b425                _dom_html_html_element_copy
                0x000000000011b43f                dom_html_html_element_get_version
                0x000000000011b478                dom_html_html_element_set_version
 .text          0x000000000011b4b4      0x644 /home/bob/ofiles/libdom-html-html_iframe_element.o
                0x000000000011b521                _dom_html_iframe_element_create
                0x000000000011b589                _dom_html_iframe_element_initialise
                0x000000000011b5c5                _dom_html_iframe_element_finalise
                0x000000000011b5d8                _dom_html_iframe_element_destroy
                0x000000000011b5f6                _dom_html_iframe_element_parse_attribute
                0x000000000011b616                _dom_virtual_html_iframe_element_destroy
                0x000000000011b629                _dom_html_iframe_element_copy
                0x000000000011b643                dom_html_iframe_element_get_long_desc
                0x000000000011b67f                dom_html_iframe_element_set_long_desc
                0x000000000011b6bb                dom_html_iframe_element_get_align
                0x000000000011b6f7                dom_html_iframe_element_set_align
                0x000000000011b733                dom_html_iframe_element_get_name
                0x000000000011b76c                dom_html_iframe_element_set_name
                0x000000000011b7a5                dom_html_iframe_element_get_src
                0x000000000011b7e1                dom_html_iframe_element_set_src
                0x000000000011b81d                dom_html_iframe_element_get_margin_width
                0x000000000011b859                dom_html_iframe_element_set_margin_width
                0x000000000011b895                dom_html_iframe_element_get_margin_height
                0x000000000011b8d1                dom_html_iframe_element_set_margin_height
                0x000000000011b90d                dom_html_iframe_element_get_scrolling
                0x000000000011b949                dom_html_iframe_element_set_scrolling
                0x000000000011b985                dom_html_iframe_element_get_frame_border
                0x000000000011b9c1                dom_html_iframe_element_set_frame_border
                0x000000000011b9fd                dom_html_iframe_element_get_width
                0x000000000011ba39                dom_html_iframe_element_set_width
                0x000000000011ba75                dom_html_iframe_element_get_height
                0x000000000011bab1                dom_html_iframe_element_set_height
                0x000000000011baed                dom_html_iframe_element_get_content_document
 .text          0x000000000011baf8      0x67c /home/bob/ofiles/libdom-html-html_image_element.o
                0x000000000011bb65                _dom_html_image_element_create
                0x000000000011bbcd                _dom_html_image_element_initialise
                0x000000000011bc09                _dom_html_image_element_finalise
                0x000000000011bc1c                _dom_html_image_element_destroy
                0x000000000011bc3a                _dom_html_image_element_parse_attribute
                0x000000000011bc5a                _dom_virtual_html_image_element_destroy
                0x000000000011bc6d                _dom_html_image_element_copy
                0x000000000011bc87                dom_html_image_element_get_name
                0x000000000011bcc0                dom_html_image_element_set_name
                0x000000000011bcf9                dom_html_image_element_get_align
                0x000000000011bd35                dom_html_image_element_set_align
                0x000000000011bd71                dom_html_image_element_get_alt
                0x000000000011bdad                dom_html_image_element_set_alt
                0x000000000011bde9                dom_html_image_element_get_border
                0x000000000011be25                dom_html_image_element_set_border
                0x000000000011be61                dom_html_image_element_get_long_desc
                0x000000000011be9d                dom_html_image_element_set_long_desc
                0x000000000011bed9                dom_html_image_element_get_src
                0x000000000011bf15                dom_html_image_element_set_src
                0x000000000011bf51                dom_html_image_element_get_use_map
                0x000000000011bf8d                dom_html_image_element_set_use_map
                0x000000000011bfc9                dom_html_image_element_get_height
                0x000000000011bff3                dom_html_image_element_set_height
                0x000000000011c01d                dom_html_image_element_get_hspace
                0x000000000011c047                dom_html_image_element_set_hspace
                0x000000000011c071                dom_html_image_element_get_vspace
                0x000000000011c09b                dom_html_image_element_set_vspace
                0x000000000011c0c5                dom_html_image_element_get_width
                0x000000000011c0ef                dom_html_image_element_set_width
                0x000000000011c119                dom_html_image_element_get_is_map
                0x000000000011c143                dom_html_image_element_set_is_map
 .text          0x000000000011c174      0xbe8 /home/bob/ofiles/libdom-html-html_input_element.o
                0x000000000011c22d                _dom_html_input_element_create
                0x000000000011c295                _dom_html_input_element_initialise
                0x000000000011c308                _dom_html_input_element_finalise
                0x000000000011c33d                _dom_html_input_element_destroy
                0x000000000011c35b                dom_html_input_element_get_disabled
                0x000000000011c385                dom_html_input_element_set_disabled
                0x000000000011c3b6                dom_html_input_element_get_read_only
                0x000000000011c3e0                dom_html_input_element_set_read_only
                0x000000000011c411                dom_html_input_element_get_checked
                0x000000000011c459                dom_html_input_element_set_checked
                0x000000000011c48a                dom_html_input_element_get_default_value
                0x000000000011c4b8                dom_html_input_element_set_default_value
                0x000000000011c505                dom_html_input_element_get_default_checked
                0x000000000011c51b                dom_html_input_element_set_default_checked
                0x000000000011c53f                _dom_html_input_element_parse_attribute
                0x000000000011c5f7                _dom_virtual_html_input_element_destroy
                0x000000000011c60a                _dom_html_input_element_copy
                0x000000000011c624                dom_html_input_element_get_accept
                0x000000000011c660                dom_html_input_element_set_accept
                0x000000000011c69c                dom_html_input_element_get_access_key
                0x000000000011c6d5                dom_html_input_element_set_access_key
                0x000000000011c70e                dom_html_input_element_get_align
                0x000000000011c74a                dom_html_input_element_set_align
                0x000000000011c786                dom_html_input_element_get_alt
                0x000000000011c7c2                dom_html_input_element_set_alt
                0x000000000011c7fe                dom_html_input_element_get_name
                0x000000000011c837                dom_html_input_element_set_name
                0x000000000011c870                dom_html_input_element_get_src
                0x000000000011c8ac                dom_html_input_element_set_src
                0x000000000011c8e8                dom_html_input_element_get_type
                0x000000000011c921                dom_html_input_element_get_use_map
                0x000000000011c95d                dom_html_input_element_set_use_map
                0x000000000011c999                dom_html_input_element_get_value
                0x000000000011c9d2                dom_html_input_element_set_value
                0x000000000011ca0b                dom_html_input_element_get_size
                0x000000000011ca35                dom_html_input_element_set_size
                0x000000000011ca5f                dom_html_input_element_get_tab_index
                0x000000000011ca89                dom_html_input_element_set_tab_index
                0x000000000011cab3                dom_html_input_element_get_max_length
                0x000000000011cadd                dom_html_input_element_set_max_length
                0x000000000011cb07                dom_html_input_element_get_form
                0x000000000011cb35                _dom_html_input_element_set_form
                0x000000000011cb48                dom_html_input_element_blur
                0x000000000011cbc4                dom_html_input_element_focus
                0x000000000011cc40                dom_html_input_element_select
                0x000000000011ccbc                dom_html_input_element_click
 .text          0x000000000011cd5c      0x214 /home/bob/ofiles/libdom-html-html_isindex_element.o
                0x000000000011cdc9                _dom_html_isindex_element_create
                0x000000000011ce31                _dom_html_isindex_element_initialise
                0x000000000011ce6d                _dom_html_isindex_element_finalise
                0x000000000011ce80                _dom_html_isindex_element_destroy
                0x000000000011ce9e                _dom_html_isindex_element_parse_attribute
                0x000000000011cebe                _dom_virtual_html_isindex_element_destroy
                0x000000000011ced1                _dom_html_isindex_element_copy
                0x000000000011ceeb                dom_html_isindex_element_get_prompt
                0x000000000011cf27                dom_html_isindex_element_set_prompt
                0x000000000011cf63                dom_html_isindex_element_get_form
 .text          0x000000000011cf70      0x2fc /home/bob/ofiles/libdom-html-html_label_element.o
                0x000000000011cfdd                _dom_html_label_element_create
                0x000000000011d045                _dom_html_label_element_initialise
                0x000000000011d081                _dom_html_label_element_finalise
                0x000000000011d094                _dom_html_label_element_destroy
                0x000000000011d0b2                _dom_html_label_element_parse_attribute
                0x000000000011d0d2                _dom_virtual_html_label_element_destroy
                0x000000000011d0e5                _dom_html_label_element_copy
                0x000000000011d0ff                dom_html_label_element_get_form
                0x000000000011d180                dom_html_label_element_get_access_key
                0x000000000011d1b9                dom_html_label_element_set_access_key
                0x000000000011d1f2                dom_html_label_element_get_html_for
                0x000000000011d22e                dom_html_label_element_set_html_for
 .text          0x000000000011d26c      0x334 /home/bob/ofiles/libdom-html-html_legend_element.o
                0x000000000011d2d9                _dom_html_legend_element_create
                0x000000000011d341                _dom_html_legend_element_initialise
                0x000000000011d37d                _dom_html_legend_element_finalise
                0x000000000011d390                _dom_html_legend_element_destroy
                0x000000000011d3ae                dom_html_legend_element_get_form
                0x000000000011d434                _dom_html_legend_element_parse_attribute
                0x000000000011d454                _dom_virtual_html_legend_element_destroy
                0x000000000011d467                _dom_html_legend_element_copy
                0x000000000011d481                dom_html_legend_element_get_access_key
                0x000000000011d4ba                dom_html_legend_element_set_access_key
                0x000000000011d4f3                dom_html_legend_element_set_align
                0x000000000011d52f                dom_html_legend_element_get_align
 .text          0x000000000011d5a0      0x258 /home/bob/ofiles/libdom-html-html_li_element.o
                0x000000000011d60d                _dom_html_li_element_create
                0x000000000011d675                _dom_html_li_element_initialise
                0x000000000011d6b1                _dom_html_li_element_finalise
                0x000000000011d6c4                _dom_html_li_element_destroy
                0x000000000011d6e2                dom_html_li_element_get_value
                0x000000000011d70c                dom_html_li_element_set_value
                0x000000000011d736                _dom_html_li_element_parse_attribute
                0x000000000011d756                _dom_virtual_html_li_element_destroy
                0x000000000011d769                _dom_html_li_element_copy
                0x000000000011d783                dom_html_li_element_get_type
                0x000000000011d7bc                dom_html_li_element_set_type
 .text          0x000000000011d7f8      0x57c /home/bob/ofiles/libdom-html-html_link_element.o
                0x000000000011d865                _dom_html_link_element_create
                0x000000000011d8cd                _dom_html_link_element_initialise
                0x000000000011d909                _dom_html_link_element_finalise
                0x000000000011d91c                _dom_html_link_element_destroy
                0x000000000011d93a                dom_html_link_element_get_disabled
                0x000000000011d964                dom_html_link_element_set_disabled
                0x000000000011d995                _dom_html_link_element_parse_attribute
                0x000000000011d9b5                _dom_virtual_html_link_element_destroy
                0x000000000011d9c8                _dom_html_link_element_copy
                0x000000000011d9e2                dom_html_link_element_get_charset
                0x000000000011da1b                dom_html_link_element_set_charset
                0x000000000011da54                dom_html_link_element_get_href
                0x000000000011da8d                dom_html_link_element_set_href
                0x000000000011dac6                dom_html_link_element_get_hreflang
                0x000000000011daff                dom_html_link_element_set_hreflang
                0x000000000011db38                dom_html_link_element_get_media
                0x000000000011db71                dom_html_link_element_set_media
                0x000000000011dbaa                dom_html_link_element_get_rel
                0x000000000011dbe3                dom_html_link_element_set_rel
                0x000000000011dc1c                dom_html_link_element_get_rev
                0x000000000011dc55                dom_html_link_element_set_rev
                0x000000000011dc8e                dom_html_link_element_get_target
                0x000000000011dcc7                dom_html_link_element_set_target
                0x000000000011dd00                dom_html_link_element_get_type
                0x000000000011dd39                dom_html_link_element_set_type
 .text          0x000000000011dd74      0x280 /home/bob/ofiles/libdom-html-html_map_element.o
                0x000000000011dde1                _dom_html_map_element_create
                0x000000000011de49                _dom_html_map_element_initialise
                0x000000000011de85                _dom_html_map_element_finalise
                0x000000000011de98                _dom_html_map_element_destroy
                0x000000000011deb6                _dom_html_map_element_parse_attribute
                0x000000000011ded6                _dom_virtual_html_map_element_destroy
                0x000000000011dee9                _dom_html_map_element_copy
                0x000000000011df03                dom_html_map_element_get_name
                0x000000000011df3c                dom_html_map_element_set_name
                0x000000000011df75                callback
                0x000000000011dfba                dom_html_map_element_get_areas
 .text          0x000000000011dff4      0x198 /home/bob/ofiles/libdom-html-html_menu_element.o
                0x000000000011e00f                _dom_html_menu_element_create
                0x000000000011e077                _dom_html_menu_element_initialise
                0x000000000011e0b3                _dom_html_menu_element_finalise
                0x000000000011e0c6                _dom_html_menu_element_destroy
                0x000000000011e0e4                dom_html_menu_element_get_compact
                0x000000000011e10e                dom_html_menu_element_set_compact
                0x000000000011e13f                _dom_html_menu_element_parse_attribute
                0x000000000011e15f                _dom_virtual_html_menu_element_destroy
                0x000000000011e172                _dom_html_menu_element_copy
 .text          0x000000000011e18c      0x358 /home/bob/ofiles/libdom-html-html_meta_element.o
                0x000000000011e1f9                _dom_html_meta_element_create
                0x000000000011e261                _dom_html_meta_element_initialise
                0x000000000011e29d                _dom_html_meta_element_finalise
                0x000000000011e2b0                _dom_html_meta_element_destroy
                0x000000000011e2ce                _dom_html_meta_element_parse_attribute
                0x000000000011e2ee                _dom_virtual_html_meta_element_destroy
                0x000000000011e301                _dom_html_meta_element_copy
                0x000000000011e31b                dom_html_meta_element_get_content
                0x000000000011e354                dom_html_meta_element_set_content
                0x000000000011e38d                dom_html_meta_element_get_http_equiv
                0x000000000011e3c6                dom_html_meta_element_set_http_equiv
                0x000000000011e3ff                dom_html_meta_element_get_name
                0x000000000011e438                dom_html_meta_element_set_name
                0x000000000011e471                dom_html_meta_element_get_scheme
                0x000000000011e4aa                dom_html_meta_element_set_scheme
 .text          0x000000000011e4e4      0x27c /home/bob/ofiles/libdom-html-html_mod_element.o
                0x000000000011e551                _dom_html_mod_element_create
                0x000000000011e5c0                _dom_html_mod_element_initialise
                0x000000000011e5ef                _dom_html_mod_element_finalise
                0x000000000011e602                _dom_html_mod_element_destroy
                0x000000000011e620                _dom_html_mod_element_parse_attribute
                0x000000000011e640                _dom_virtual_html_mod_element_destroy
                0x000000000011e653                _dom_html_mod_element_copy
                0x000000000011e66d                dom_html_mod_element_get_cite
                0x000000000011e6a9                dom_html_mod_element_set_cite
                0x000000000011e6e5                dom_html_mod_element_get_date_time
                0x000000000011e721                dom_html_mod_element_set_date_time
 .text          0x000000000011e760      0x988 /home/bob/ofiles/libdom-html-html_object_element.o
                0x000000000011e7cd                _dom_html_object_element_create
                0x000000000011e835                _dom_html_object_element_initialise
                0x000000000011e871                _dom_html_object_element_finalise
                0x000000000011e884                _dom_html_object_element_destroy
                0x000000000011e8a2                _dom_html_object_element_parse_attribute
                0x000000000011e8c2                _dom_virtual_html_object_element_destroy
                0x000000000011e8d5                _dom_html_object_element_copy
                0x000000000011e8ef                dom_html_object_element_get_code
                0x000000000011e92b                dom_html_object_element_set_code
                0x000000000011e967                dom_html_object_element_get_align
                0x000000000011e9a3                dom_html_object_element_set_align
                0x000000000011e9df                dom_html_object_element_get_archive
                0x000000000011ea1b                dom_html_object_element_set_archive
                0x000000000011ea57                dom_html_object_element_get_border
                0x000000000011ea93                dom_html_object_element_set_border
                0x000000000011eacf                dom_html_object_element_get_code_base
                0x000000000011eb0b                dom_html_object_element_set_code_base
                0x000000000011eb47                dom_html_object_element_get_code_type
                0x000000000011eb83                dom_html_object_element_set_code_type
                0x000000000011ebbf                dom_html_object_element_get_data
                0x000000000011ebfb                dom_html_object_element_set_data
                0x000000000011ec37                dom_html_object_element_get_height
                0x000000000011ec73                dom_html_object_element_set_height
                0x000000000011ecaf                dom_html_object_element_get_name
                0x000000000011ece8                dom_html_object_element_set_name
                0x000000000011ed21                dom_html_object_element_get_standby
                0x000000000011ed5d                dom_html_object_element_set_standby
                0x000000000011ed99                dom_html_object_element_get_type
                0x000000000011edd2                dom_html_object_element_set_type
                0x000000000011ee0b                dom_html_object_element_get_use_map
                0x000000000011ee47                dom_html_object_element_set_use_map
                0x000000000011ee83                dom_html_object_element_get_width
                0x000000000011eebf                dom_html_object_element_set_width
                0x000000000011eefb                dom_html_object_element_get_hspace
                0x000000000011ef25                dom_html_object_element_set_hspace
                0x000000000011ef4f                dom_html_object_element_get_vspace
                0x000000000011ef79                dom_html_object_element_set_vspace
                0x000000000011efa3                dom_html_object_element_get_tab_index
                0x000000000011efcd                dom_html_object_element_set_tab_index
                0x000000000011eff7                dom_html_object_element_get_declare
                0x000000000011f021                dom_html_object_element_set_declare
                0x000000000011f052                dom_html_object_element_get_form
                0x000000000011f0d3                dom_html_object_element_get_content_document
 .text          0x000000000011f0e8      0x2b0 /home/bob/ofiles/libdom-html-html_olist_element.o
                0x000000000011f155                _dom_html_olist_element_create
                0x000000000011f1bd                _dom_html_olist_element_initialise
                0x000000000011f1f9                _dom_html_olist_element_finalise
                0x000000000011f20c                _dom_html_olist_element_destroy
                0x000000000011f22a                dom_html_olist_element_get_compact
                0x000000000011f254                dom_html_olist_element_set_compact
                0x000000000011f285                dom_html_olist_element_get_start
                0x000000000011f2af                dom_html_olist_element_set_start
                0x000000000011f2d9                _dom_html_olist_element_parse_attribute
                0x000000000011f2f9                _dom_virtual_html_olist_element_destroy
                0x000000000011f30c                _dom_html_olist_element_copy
                0x000000000011f326                dom_html_olist_element_get_type
                0x000000000011f35f                dom_html_olist_element_set_type
 .text          0x000000000011f398      0x264 /home/bob/ofiles/libdom-html-html_opt_group_element.o
                0x000000000011f405                _dom_html_opt_group_element_create
                0x000000000011f46d                _dom_html_opt_group_element_initialise
                0x000000000011f4a9                _dom_html_opt_group_element_finalise
                0x000000000011f4bc                _dom_html_opt_group_element_destroy
                0x000000000011f4da                dom_html_opt_group_element_get_disabled
                0x000000000011f504                dom_html_opt_group_element_set_disabled
                0x000000000011f535                _dom_html_opt_group_element_parse_attribute
                0x000000000011f555                _dom_virtual_html_opt_group_element_destroy
                0x000000000011f568                _dom_html_opt_group_element_copy
                0x000000000011f582                dom_html_opt_group_element_get_label
                0x000000000011f5be                dom_html_opt_group_element_set_label
 .text          0x000000000011f5fc      0x80c /home/bob/ofiles/libdom-html-html_option_element.o
                0x000000000011f721                _dom_html_option_element_create
                0x000000000011f789                _dom_html_option_element_initialise
                0x000000000011f7d3                _dom_html_option_element_finalise
                0x000000000011f7e6                _dom_html_option_element_destroy
                0x000000000011f804                dom_html_option_element_get_form
                0x000000000011f88a                dom_html_option_element_get_default_selected
                0x000000000011f8a0                dom_html_option_element_set_default_selected
                0x000000000011faf6                dom_html_option_element_get_text
                0x000000000011fb10                dom_html_option_element_get_index
                0x000000000011fb8c                dom_html_option_element_get_disabled
                0x000000000011fbb6                dom_html_option_element_set_disabled
                0x000000000011fbe7                dom_html_option_element_get_label
                0x000000000011fc1e                dom_html_option_element_set_label
                0x000000000011fc55                dom_html_option_element_get_selected
                0x000000000011fc7f                dom_html_option_element_set_selected
                0x000000000011fcb0                dom_html_option_element_get_value
                0x000000000011fd37                dom_html_option_element_set_value
                0x000000000011fd6c                _dom_html_option_element_parse_attribute
                0x000000000011fdda                _dom_virtual_html_option_element_destroy
                0x000000000011fded                _dom_html_option_element_copy
 .text          0x000000000011fe08      0x3a4 /home/bob/ofiles/libdom-html-html_options_collection.o
                0x000000000011fe7d                _dom_html_options_collection_create
                0x000000000011fed1                _dom_html_options_collection_initialise
                0x000000000011ff00                _dom_html_options_collection_finalise
                0x000000000011ff13                _dom_html_options_collection_destroy
                0x000000000011ff31                dom_html_options_collection_get_length
                0x000000000011ff4b                dom_html_options_collection_set_length
                0x000000000011ff55                dom_html_options_collection_item
                0x000000000011ff76                dom_html_options_collection_named_item
                0x0000000000120151                dom_html_options_collection_ref
                0x000000000012016d                dom_html_options_collection_unref
 .text          0x00000000001201ac      0x208 /home/bob/ofiles/libdom-html-html_paragraph_element.o
                0x0000000000120219                _dom_html_paragraph_element_create
                0x0000000000120281                _dom_html_paragraph_element_initialise
                0x00000000001202bd                _dom_html_paragraph_element_finalise
                0x00000000001202d0                _dom_html_paragraph_element_destroy
                0x00000000001202ee                _dom_html_paragraph_element_parse_attribute
                0x000000000012030e                _dom_virtual_html_paragraph_element_destroy
                0x0000000000120321                _dom_html_paragraph_element_copy
                0x000000000012033b                dom_html_paragraph_element_get_align
                0x0000000000120377                dom_html_paragraph_element_set_align
 .text          0x00000000001203b4      0x360 /home/bob/ofiles/libdom-html-html_param_element.o
                0x0000000000120421                _dom_html_param_element_create
                0x0000000000120489                _dom_html_param_element_initialise
                0x00000000001204c5                _dom_html_param_element_finalise
                0x00000000001204d8                _dom_html_param_element_destroy
                0x00000000001204f6                _dom_html_param_element_parse_attribute
                0x0000000000120516                _dom_virtual_html_param_element_destroy
                0x0000000000120529                _dom_html_param_element_copy
                0x0000000000120543                dom_html_param_element_get_name
                0x000000000012057c                dom_html_param_element_set_name
                0x00000000001205b5                dom_html_param_element_get_type
                0x00000000001205ee                dom_html_param_element_set_type
                0x0000000000120627                dom_html_param_element_get_value
                0x0000000000120660                dom_html_param_element_set_value
                0x0000000000120699                dom_html_param_element_get_value_type
                0x00000000001206d5                dom_html_param_element_set_value_type
 .text          0x0000000000120714      0x194 /home/bob/ofiles/libdom-html-html_pre_element.o
                0x000000000012072f                _dom_html_pre_element_create
                0x0000000000120797                _dom_html_pre_element_initialise
                0x00000000001207d3                _dom_html_pre_element_finalise
                0x00000000001207e6                _dom_html_pre_element_destroy
                0x0000000000120804                dom_html_pre_element_get_width
                0x000000000012082e                dom_html_pre_element_set_width
                0x0000000000120858                _dom_html_pre_element_parse_attribute
                0x0000000000120878                _dom_virtual_html_pre_element_destroy
                0x000000000012088b                _dom_html_pre_element_copy
 .text          0x00000000001208a8      0x208 /home/bob/ofiles/libdom-html-html_quote_element.o
                0x0000000000120915                _dom_html_quote_element_create
                0x000000000012097d                _dom_html_quote_element_initialise
                0x00000000001209b9                _dom_html_quote_element_finalise
                0x00000000001209cc                _dom_html_quote_element_destroy
                0x00000000001209ea                _dom_html_quote_element_parse_attribute
                0x0000000000120a0a                _dom_virtual_html_quote_element_destroy
                0x0000000000120a1d                _dom_html_quote_element_copy
                0x0000000000120a37                dom_html_quote_element_get_cite
                0x0000000000120a73                dom_html_quote_element_set_cite
 .text          0x0000000000120ab0      0x4c8 /home/bob/ofiles/libdom-html-html_script_element.o
                0x0000000000120b1d                _dom_html_script_element_create
                0x0000000000120b85                _dom_html_script_element_initialise
                0x0000000000120bc1                _dom_html_script_element_finalise
                0x0000000000120bd4                _dom_html_script_element_destroy
                0x0000000000120bf2                _dom_html_script_element_parse_attribute
                0x0000000000120c12                _dom_virtual_html_script_element_destroy
                0x0000000000120c25                _dom_html_script_element_copy
                0x0000000000120c3f                dom_html_script_element_get_html_for
                0x0000000000120c7b                dom_html_script_element_set_html_for
                0x0000000000120cb7                dom_html_script_element_get_event
                0x0000000000120cf3                dom_html_script_element_set_event
                0x0000000000120d2f                dom_html_script_element_get_charset
                0x0000000000120d68                dom_html_script_element_set_charset
                0x0000000000120da1                dom_html_script_element_get_src
                0x0000000000120ddd                dom_html_script_element_set_src
                0x0000000000120e19                dom_html_script_element_get_type
                0x0000000000120e52                dom_html_script_element_set_type
                0x0000000000120e8b                dom_html_script_element_get_defer
                0x0000000000120eb5                dom_html_script_element_set_defer
                0x0000000000120ee6                dom_html_script_element_get_async
                0x0000000000120f10                dom_html_script_element_set_async
                0x0000000000120f41                dom_html_script_element_get_text
                0x0000000000120f5b                dom_html_script_element_set_text
 .text          0x0000000000120f78      0xbf8 /home/bob/ofiles/libdom-html-html_select_element.o
                0x000000000012109f                _dom_html_select_element_create
                0x0000000000121107                _dom_html_select_element_initialise
                0x000000000012114d                _dom_html_select_element_finalise
                0x0000000000121160                _dom_html_select_element_destroy
                0x000000000012117e                _dom_html_select_element_parse_attribute
                0x000000000012119e                _dom_virtual_html_select_element_destroy
                0x00000000001211b1                _dom_html_select_element_copy
                0x000000000012122e                dom_html_select_element_get_type
                0x00000000001212a8                dom_html_select_element_get_selected_index
                0x00000000001213b5                dom_html_select_element_set_selected_index
                0x0000000000121440                dom_html_select_element_get_value
                0x0000000000121571                dom_html_select_element_set_value
                0x0000000000121699                dom_html_select_element_get_length
                0x00000000001216e4                dom_html_select_element_set_length
                0x00000000001216ee                dom_html_select_element_get_form
                0x000000000012171c                dom__html_select_element_get_options
                0x0000000000121736                dom_html_select_element_get_disabled
                0x0000000000121760                dom_html_select_element_set_disabled
                0x0000000000121791                dom_html_select_element_get_multiple
                0x00000000001217bb                dom_html_select_element_set_multiple
                0x00000000001217ec                dom_html_select_element_get_name
                0x0000000000121821                dom_html_select_element_set_name
                0x0000000000121856                dom_html_select_element_get_size
                0x0000000000121880                dom_html_select_element_set_size
                0x00000000001218aa                dom_html_select_element_get_tab_index
                0x00000000001218d4                dom_html_select_element_set_tab_index
                0x00000000001218fe                dom__html_select_element_add
                0x000000000012193d                dom_html_select_element_remove
                0x0000000000121a1b                dom_html_select_element_blur
                0x0000000000121a97                dom_html_select_element_focus
                0x0000000000121b5c                _dom_html_select_element_set_form
 .text          0x0000000000121b70      0x328 /home/bob/ofiles/libdom-html-html_style_element.o
                0x0000000000121c0c                _dom_html_style_element_create
                0x0000000000121c66                _dom_html_style_element_initialise
                0x0000000000121cd8                _dom_html_style_element_finalise
                0x0000000000121ceb                _dom_html_style_element_destroy
                0x0000000000121d09                _dom_html_style_element_parse_attribute
                0x0000000000121d29                _dom_virtual_html_style_element_destroy
                0x0000000000121d3c                _dom_html_style_element_copy
                0x0000000000121d56                dom_html_style_element_get_type
                0x0000000000121d8f                dom_html_style_element_set_type
                0x0000000000121dc8                dom_html_style_element_get_media
                0x0000000000121e01                dom_html_style_element_set_media
                0x0000000000121e3a                dom_html_style_element_get_disabled
                0x0000000000121e64                dom_html_style_element_set_disabled
 .text          0x0000000000121e98     0x1680 /home/bob/ofiles/libdom-html-html_table_element.o
                0x0000000000121fb8                _dom_html_table_element_create
                0x0000000000122020                _dom_html_table_element_initialise
                0x000000000012205c                _dom_html_table_element_finalise
                0x000000000012206f                _dom_html_table_element_destroy
                0x000000000012208d                _dom_html_table_element_parse_attribute
                0x00000000001220ad                _dom_virtual_html_table_element_destroy
                0x00000000001220c0                _dom_html_table_element_copy
                0x00000000001220da                dom_html_table_element_get_align
                0x0000000000122116                dom_html_table_element_set_align
                0x0000000000122152                dom_html_table_element_get_bg_color
                0x000000000012218b                dom_html_table_element_set_bg_color
                0x00000000001221c4                dom_html_table_element_get_border
                0x0000000000122200                dom_html_table_element_set_border
                0x000000000012223c                dom_html_table_element_get_cell_padding
                0x0000000000122278                dom_html_table_element_set_cell_padding
                0x00000000001222b4                dom_html_table_element_get_cell_spacing
                0x00000000001222f0                dom_html_table_element_set_cell_spacing
                0x000000000012232c                dom_html_table_element_get_frame
                0x0000000000122368                dom_html_table_element_set_frame
                0x00000000001223a4                dom_html_table_element_get_rules
                0x00000000001223e0                dom_html_table_element_set_rules
                0x000000000012241c                dom_html_table_element_get_summary
                0x0000000000122458                dom_html_table_element_set_summary
                0x0000000000122494                dom_html_table_element_get_width
                0x00000000001224d0                dom_html_table_element_set_width
                0x000000000012250c                dom_html_table_element_get_caption
                0x0000000000122593                dom_html_table_element_set_caption
                0x0000000000122619                dom_html_table_element_get_t_head
                0x00000000001226a0                dom_html_table_element_set_t_head
                0x0000000000122726                dom_html_table_element_get_t_foot
                0x00000000001227ad                dom_html_table_element_set_t_foot
                0x0000000000122833                table_rows_callback
                0x0000000000122878                dom_html_table_element_get_rows
                0x00000000001228b1                table_t_bodies_callback
                0x00000000001228f6                dom_html_table_element_get_t_bodies
                0x000000000012292f                dom_html_table_element_create_caption
                0x00000000001229fa                dom_html_table_element_delete_caption
                0x0000000000122a64                dom_html_table_element_create_t_foot
                0x0000000000122b42                dom_html_table_element_delete_t_foot
                0x0000000000122bac                dom_html_table_element_create_t_head
                0x0000000000122c97                dom_html_table_element_delete_t_head
                0x0000000000122d01                dom_html_table_element_create_t_body
                0x0000000000122e3b                dom_html_table_element_insert_row
                0x000000000012322d                dom_html_table_element_delete_row
 .text          0x0000000000123518      0x208 /home/bob/ofiles/libdom-html-html_tablecaption_element.o
                0x0000000000123585                _dom_html_table_caption_element_create
                0x00000000001235ed                _dom_html_table_caption_element_initialise
                0x0000000000123629                _dom_html_table_caption_element_finalise
                0x000000000012363c                _dom_html_table_caption_element_destroy
                0x000000000012365a                _dom_html_table_caption_element_parse_attribute
                0x000000000012367a                _dom_virtual_html_table_caption_element_destroy
                0x000000000012368d                _dom_html_table_caption_element_copy
                0x00000000001236a7                dom_html_table_caption_element_get_align
                0x00000000001236e3                dom_html_table_caption_element_set_align
 .text          0x0000000000123720      0x904 /home/bob/ofiles/libdom-html-html_tablecell_element.o
                0x000000000012378d                _dom_html_table_cell_element_create
                0x00000000001237fc                _dom_html_table_cell_element_initialise
                0x000000000012382b                _dom_html_table_cell_element_finalise
                0x000000000012383e                _dom_html_table_cell_element_destroy
                0x000000000012385c                _dom_html_table_cell_element_parse_attribute
                0x000000000012387c                _dom_virtual_html_table_cell_element_destroy
                0x000000000012388f                _dom_html_table_cell_element_copy
                0x00000000001238a9                dom_html_table_cell_element_get_abbr
                0x00000000001238e5                dom_html_table_cell_element_set_abbr
                0x0000000000123921                dom_html_table_cell_element_get_align
                0x000000000012395d                dom_html_table_cell_element_set_align
                0x0000000000123999                dom_html_table_cell_element_get_axis
                0x00000000001239d5                dom_html_table_cell_element_set_axis
                0x0000000000123a11                dom_html_table_cell_element_get_bg_color
                0x0000000000123a4a                dom_html_table_cell_element_set_bg_color
                0x0000000000123a83                dom_html_table_cell_element_get_ch
                0x0000000000123abf                dom_html_table_cell_element_set_ch
                0x0000000000123afb                dom_html_table_cell_element_get_ch_off
                0x0000000000123b37                dom_html_table_cell_element_set_ch_off
                0x0000000000123b73                dom_html_table_cell_element_get_headers
                0x0000000000123baf                dom_html_table_cell_element_set_headers
                0x0000000000123beb                dom_html_table_cell_element_get_height
                0x0000000000123c27                dom_html_table_cell_element_set_height
                0x0000000000123c63                dom_html_table_cell_element_get_scope
                0x0000000000123c9f                dom_html_table_cell_element_set_scope
                0x0000000000123cdb                dom_html_table_cell_element_get_v_align
                0x0000000000123d17                dom_html_table_cell_element_set_v_align
                0x0000000000123d53                dom_html_table_cell_element_get_width
                0x0000000000123d8f                dom_html_table_cell_element_set_width
                0x0000000000123dcb                dom_html_table_cell_element_get_cell_index
                0x0000000000123f20                dom_html_table_cell_element_get_col_span
                0x0000000000123f4a                dom_html_table_cell_element_set_col_span
                0x0000000000123f74                dom_html_table_cell_element_get_row_span
                0x0000000000123f9e                dom_html_table_cell_element_set_row_span
                0x0000000000123fc8                dom_html_table_cell_element_get_no_wrap
                0x0000000000123ff2                dom_html_table_cell_element_set_no_wrap
 .text          0x0000000000124024      0x438 /home/bob/ofiles/libdom-html-html_tablecol_element.o
                0x0000000000124091                _dom_html_table_col_element_create
                0x0000000000124100                _dom_html_table_col_element_initialise
                0x000000000012412f                _dom_html_table_col_element_finalise
                0x0000000000124142                _dom_html_table_col_element_destroy
                0x0000000000124160                dom_html_table_col_element_get_span
                0x000000000012418a                dom_html_table_col_element_set_span
                0x00000000001241b4                _dom_html_table_col_element_parse_attribute
                0x00000000001241d4                _dom_virtual_html_table_col_element_destroy
                0x00000000001241e7                _dom_html_table_col_element_copy
                0x0000000000124201                dom_html_table_col_element_get_align
                0x000000000012423d                dom_html_table_col_element_set_align
                0x0000000000124279                dom_html_table_col_element_get_ch
                0x00000000001242b5                dom_html_table_col_element_set_ch
                0x00000000001242f1                dom_html_table_col_element_get_ch_off
                0x000000000012432d                dom_html_table_col_element_set_ch_off
                0x0000000000124369                dom_html_table_col_element_get_v_align
                0x00000000001243a5                dom_html_table_col_element_set_v_align
                0x00000000001243e1                dom_html_table_col_element_get_width
                0x000000000012441d                dom_html_table_col_element_set_width
 .text          0x000000000012445c      0xa90 /home/bob/ofiles/libdom-html-html_tablerow_element.o
                0x000000000012458c                _dom_html_table_row_element_create
                0x00000000001245f4                _dom_html_table_row_element_initialise
                0x0000000000124630                _dom_html_table_row_element_finalise
                0x0000000000124643                _dom_html_table_row_element_destroy
                0x0000000000124661                _dom_html_table_row_element_parse_attribute
                0x0000000000124681                _dom_virtual_html_table_row_element_destroy
                0x0000000000124694                _dom_html_table_row_element_copy
                0x00000000001246ae                dom_html_table_row_element_get_align
                0x00000000001246ea                dom_html_table_row_element_set_align
                0x0000000000124726                dom_html_table_row_element_get_bg_color
                0x000000000012475f                dom_html_table_row_element_set_bg_color
                0x0000000000124798                dom_html_table_row_element_get_ch
                0x00000000001247d4                dom_html_table_row_element_set_ch
                0x0000000000124810                dom_html_table_row_element_get_ch_off
                0x000000000012484c                dom_html_table_row_element_set_ch_off
                0x0000000000124888                dom_html_table_row_element_get_v_align
                0x00000000001248c4                dom_html_table_row_element_set_v_align
                0x0000000000124900                dom_html_table_row_element_get_row_index
                0x0000000000124b87                dom_html_table_row_element_get_section_row_index
                0x0000000000124c06                table_cells_callback
                0x0000000000124c4b                dom_html_table_row_element_get_cells
                0x0000000000124c84                dom_html_table_row_element_insert_cell
                0x0000000000124de1                dom_html_table_row_element_delete_cell
 .text          0x0000000000124eec      0x714 /home/bob/ofiles/libdom-html-html_tablesection_element.o
                0x000000000012501c                _dom_html_table_section_element_create
                0x000000000012508b                _dom_html_table_section_element_initialise
                0x00000000001250ba                _dom_html_table_section_element_finalise
                0x00000000001250cd                _dom_html_table_section_element_destroy
                0x00000000001250eb                _dom_html_table_section_element_parse_attribute
                0x000000000012510b                _dom_virtual_html_table_section_element_destroy
                0x000000000012511e                _dom_html_table_section_element_copy
                0x0000000000125138                dom_html_table_section_element_get_align
                0x0000000000125174                dom_html_table_section_element_set_align
                0x00000000001251b0                dom_html_table_section_element_get_ch
                0x00000000001251ec                dom_html_table_section_element_set_ch
                0x0000000000125228                dom_html_table_section_element_get_ch_off
                0x0000000000125264                dom_html_table_section_element_set_ch_off
                0x00000000001252a0                dom_html_table_section_element_get_v_align
                0x00000000001252dc                dom_html_table_section_element_set_v_align
                0x0000000000125318                table_section_callback
                0x000000000012535d                dom_html_table_section_element_get_rows
                0x0000000000125396                dom_html_table_section_element_insert_row
                0x00000000001254ef                dom_html_table_section_element_delete_row
 .text          0x0000000000125600      0x8bc /home/bob/ofiles/libdom-html-html_text_area_element.o
                0x00000000001256db                _dom_html_text_area_element_create
                0x0000000000125743                _dom_html_text_area_element_initialise
                0x00000000001257ab                _dom_html_text_area_element_finalise
                0x0000000000125810                _dom_html_text_area_element_destroy
                0x000000000012582e                dom_html_text_area_element_get_disabled
                0x0000000000125858                dom_html_text_area_element_set_disabled
                0x0000000000125889                dom_html_text_area_element_get_read_only
                0x00000000001258b3                dom_html_text_area_element_set_read_only
                0x00000000001258e4                dom_html_text_area_element_get_default_value
                0x0000000000125945                dom_html_text_area_element_set_default_value
                0x0000000000125992                dom_html_text_area_element_get_value
                0x0000000000125a22                dom_html_text_area_element_set_value
                0x0000000000125aa2                _dom_html_text_area_element_parse_attribute
                0x0000000000125ac2                _dom_virtual_html_text_area_element_destroy
                0x0000000000125ad5                _dom_html_text_area_element_copy
                0x0000000000125aef                dom_html_text_area_element_get_access_key
                0x0000000000125b28                dom_html_text_area_element_set_access_key
                0x0000000000125b61                dom_html_text_area_element_get_name
                0x0000000000125b9a                dom_html_text_area_element_set_name
                0x0000000000125bd3                dom_html_text_area_element_get_type
                0x0000000000125c0a                dom_html_text_area_element_get_tab_index
                0x0000000000125c34                dom_html_text_area_element_set_tab_index
                0x0000000000125c5e                dom_html_text_area_element_get_cols
                0x0000000000125c88                dom_html_text_area_element_set_cols
                0x0000000000125cb2                dom_html_text_area_element_get_rows
                0x0000000000125cdc                dom_html_text_area_element_set_rows
                0x0000000000125d06                dom_html_text_area_element_get_form
                0x0000000000125d34                _dom_html_text_area_element_set_form
                0x0000000000125d47                dom_html_text_area_element_blur
                0x0000000000125dc3                dom_html_text_area_element_focus
                0x0000000000125e3f                dom_html_text_area_element_select
 .text          0x0000000000125ebc      0x29c /home/bob/ofiles/libdom-html-html_title_element.o
                0x0000000000125f1b                _dom_html_title_element_create
                0x0000000000125f83                _dom_html_title_element_initialise
                0x0000000000125fbf                _dom_html_title_element_finalise
                0x0000000000125fd2                _dom_html_title_element_destroy
                0x0000000000125ff0                _dom_html_title_element_parse_attribute
                0x0000000000126010                _dom_virtual_html_title_element_destroy
                0x0000000000126023                _dom_html_title_element_copy
                0x000000000012603d                dom_html_title_element_get_text
                0x00000000001260c9                dom_html_title_element_set_text
 .text          0x0000000000126158      0x25c /home/bob/ofiles/libdom-html-html_ulist_element.o
                0x00000000001261c5                _dom_html_u_list_element_create
                0x000000000012622d                _dom_html_u_list_element_initialise
                0x0000000000126269                _dom_html_u_list_element_finalise
                0x000000000012627c                _dom_html_u_list_element_destroy
                0x000000000012629a                dom_html_u_list_element_get_compact
                0x00000000001262c4                dom_html_u_list_element_set_compact
                0x00000000001262f5                _dom_html_u_list_element_parse_attribute
                0x0000000000126315                _dom_virtual_html_u_list_element_destroy
                0x0000000000126328                _dom_html_u_list_element_copy
                0x0000000000126342                dom_html_u_list_element_get_type
                0x000000000012637b                dom_html_u_list_element_set_type
 .text          0x00000000001263b4      0x148 /home/bob/ofiles/libdom-utils-character_valid.o
                0x0000000000126492                _dom_is_character_in_group
 .text          0x00000000001264fc      0x630 /home/bob/ofiles/libdom-utils-hashtable.o
                0x00000000001264fc                _dom_hash_create
                0x000000000012657e                _dom_hash_clone
                0x00000000001266e1                _dom_hash_destroy
                0x00000000001267ae                _dom_hash_add
                0x00000000001268dc                _dom_hash_get
                0x0000000000126981                _dom_hash_del
                0x0000000000126a85                _dom_hash_iterate
                0x0000000000126b1f                _dom_hash_get_length
 .text          0x0000000000126b2c      0x57c /home/bob/ofiles/libdom-utils-namespace.o
                0x0000000000126c80                _dom_namespace_validate_qname
                0x0000000000126f78                _dom_namespace_split_qname
                0x0000000000127059                _dom_namespace_get_xml_prefix
                0x000000000012707f                _dom_namespace_get_xmlns_prefix
 .text          0x00000000001270a8      0x5fc /home/bob/ofiles/libdom-utils-validate.o
                0x0000000000127449                _dom_validate_name
                0x0000000000127555                _dom_validate_ncname
 .text          0x00000000001276a4     0x11fc /home/bob/ofiles/libhubbub-charset-detect.o
                0x00000000001276a4                hubbub_charset_extract
                0x0000000000127f56                hubbub_charset_parse_content
                0x0000000000128649                hubbub_charset_fix_charset
 .text          0x00000000001288a0      0x5b8 /home/bob/ofiles/libhubbub-parser.o
                0x0000000000128912                hubbub_parser_create
                0x0000000000128a89                hubbub_parser_destroy
                0x0000000000128ad7                hubbub_parser_setopt
                0x0000000000128c94                hubbub_parser_insert_chunk
                0x0000000000128ccb                hubbub_parser_parse_chunk
                0x0000000000128db2                hubbub_parser_completed
                0x0000000000128e1b                hubbub_parser_read_charset
 .text          0x0000000000128e58      0x24c /home/bob/ofiles/libhubbub-tokeniser-entities.o
                0x0000000000129064                hubbub_entities_search_step
 .text          0x00000000001290a4     0x6238 /home/bob/ofiles/libhubbub-tokeniser-tokeniser.o
                0x0000000000129261                hubbub_tokeniser_create
                0x00000000001293a0                hubbub_tokeniser_destroy
                0x00000000001293f9                hubbub_tokeniser_setopt
                0x00000000001294c6                hubbub_tokeniser_insert_chunk
                0x0000000000129518                hubbub_tokeniser_run
 .text          0x000000000012f2dc       0xf4 /home/bob/ofiles/libhubbub-treebuilder-after_after_body.o
                0x000000000012f2dc                handle_after_after_body
 .text          0x000000000012f3d0       0xec /home/bob/ofiles/libhubbub-treebuilder-after_after_frameset.o
                0x000000000012f3d0                handle_after_after_frameset
 .text          0x000000000012f4bc      0x1f0 /home/bob/ofiles/libhubbub-treebuilder-after_body.o
                0x000000000012f4bc                handle_after_body
 .text          0x000000000012f6ac      0x110 /home/bob/ofiles/libhubbub-treebuilder-after_frameset.o
                0x000000000012f6ac                handle_after_frameset
 .text          0x000000000012f7bc      0x29c /home/bob/ofiles/libhubbub-treebuilder-after_head.o
                0x000000000012f7bc                handle_after_head
 .text          0x000000000012fa58      0x20c /home/bob/ofiles/libhubbub-treebuilder-before_head.o
                0x000000000012fa58                handle_before_head
 .text          0x000000000012fc64      0x1d0 /home/bob/ofiles/libhubbub-treebuilder-before_html.o
                0x000000000012fc64                handle_before_html
 .text          0x000000000012fe34      0x168 /home/bob/ofiles/libhubbub-treebuilder-generic_rcdata.o
                0x000000000012fe34                handle_generic_rcdata
 .text          0x000000000012ff9c     0x3ba0 /home/bob/ofiles/libhubbub-treebuilder-in_body.o
                0x000000000012ff9c                handle_in_body
                0x0000000000133701                aa_insert_into_foster_parent
 .text          0x0000000000133b3c      0x1c4 /home/bob/ofiles/libhubbub-treebuilder-in_caption.o
                0x0000000000133b3c                handle_in_caption
 .text          0x0000000000133d00      0x2b8 /home/bob/ofiles/libhubbub-treebuilder-in_cell.o
                0x0000000000133daf                handle_in_cell
 .text          0x0000000000133fb8      0x184 /home/bob/ofiles/libhubbub-treebuilder-in_column_group.o
                0x0000000000133fb8                handle_in_column_group
 .text          0x000000000013413c      0xb38 /home/bob/ofiles/libhubbub-treebuilder-in_foreign_content.o
                0x000000000013413c                adjust_mathml_attributes
                0x00000000001341b6                adjust_svg_attributes
                0x0000000000134279                adjust_svg_tagname
                0x0000000000134305                adjust_foreign_attributes
                0x00000000001347ea                handle_in_foreign_content
 .text          0x0000000000134c74      0x1c8 /home/bob/ofiles/libhubbub-treebuilder-in_frameset.o
                0x0000000000134c74                handle_in_frameset
 .text          0x0000000000134e3c      0x52c /home/bob/ofiles/libhubbub-treebuilder-in_head.o
                0x00000000001350b7                handle_in_head
 .text          0x0000000000135368      0x184 /home/bob/ofiles/libhubbub-treebuilder-in_head_noscript.o
                0x0000000000135368                handle_in_head_noscript
 .text          0x00000000001354ec      0x338 /home/bob/ofiles/libhubbub-treebuilder-in_row.o
                0x00000000001355bd                handle_in_row
 .text          0x0000000000135824      0x3f0 /home/bob/ofiles/libhubbub-treebuilder-in_select.o
                0x0000000000135824                handle_in_select
 .text          0x0000000000135c14       0xf4 /home/bob/ofiles/libhubbub-treebuilder-in_select_in_table.o
                0x0000000000135c14                handle_in_select_in_table
 .text          0x0000000000135d08      0x638 /home/bob/ofiles/libhubbub-treebuilder-in_table.o
                0x0000000000135e0f                handle_in_table
 .text          0x0000000000136340      0x3a8 /home/bob/ofiles/libhubbub-treebuilder-in_table_body.o
                0x0000000000136481                handle_in_table_body
 .text          0x00000000001366e8      0x504 /home/bob/ofiles/libhubbub-treebuilder-initial.o
                0x00000000001369c8                handle_initial
 .text          0x0000000000136bec     0x1f94 /home/bob/ofiles/libhubbub-treebuilder-treebuilder.o
                0x0000000000136bec                hubbub_treebuilder_create
                0x0000000000136d2a                hubbub_treebuilder_destroy
                0x0000000000136ef8                hubbub_treebuilder_setopt
                0x0000000000136f6e                hubbub_treebuilder_token_handler
                0x0000000000137330                process_characters_expect_whitespace
                0x0000000000137411                process_comment_append
                0x0000000000137526                parse_generic_rcdata
                0x00000000001375fc                element_in_scope
                0x00000000001376d6                reconstruct_active_formatting_list
                0x0000000000137a6d                remove_node_from_dom
                0x0000000000137b41                clear_active_formatting_list_to_marker
                0x0000000000137bc6                insert_element
                0x0000000000137dfc                close_implied_end_tags
                0x0000000000137ed6                reset_insertion_mode
                0x0000000000137fa5                complete_script
                0x0000000000137ff5                append_text
                0x0000000000138122                element_type_from_name
                0x00000000001381b1                is_special_element
                0x00000000001381bd                is_scoping_element
                0x00000000001381dd                is_formatting_element
                0x00000000001381fd                is_phrasing_element
                0x0000000000138247                element_stack_push
                0x000000000013831a                element_stack_pop
                0x00000000001384c2                element_stack_pop_until
                0x000000000013854c                element_stack_remove
                0x0000000000138729                current_table
                0x0000000000138775                current_node
                0x0000000000138795                prev_node
                0x00000000001387c9                formatting_list_append
                0x0000000000138855                formatting_list_insert
                0x000000000013895f                formatting_list_remove
                0x00000000001389f0                formatting_list_replace
                0x0000000000138a48                element_stack_dump
                0x0000000000138ace                formatting_list_dump
                0x0000000000138b30                element_type_to_name
 .text          0x0000000000138b80       0x8c /home/bob/ofiles/libhubbub-utils-errors.o
                0x0000000000138b80                hubbub_error_to_string
 .text          0x0000000000138c0c       0xc8 /home/bob/ofiles/libhubbub-utils-string.o
                0x0000000000138c0c                hubbub_string_match
                0x0000000000138c41                hubbub_string_match_ci
 .text          0x0000000000138cd4     0x2290 /home/bob/ofiles/libnsbmp-libnsbmp.o
                0x0000000000138de0                bmp_create
                0x0000000000138e1f                ico_collection_create
                0x0000000000138e5e                bmp_analyse
                0x0000000000138f03                ico_analyse
                0x000000000013997c                ico_find
                0x0000000000139a4d                bmp_decode
                0x0000000000139c5a                bmp_decode_trans
                0x000000000013aeba                bmp_finalise
                0x000000000013af09                ico_finalise
 .text          0x000000000013af64     0x20d8 /home/bob/ofiles/libnsgif-libnsgif.o
                0x000000000013af64                gif_create
                0x000000000013afb9                gif_initialise
                0x000000000013bf9f                gif_decode_frame
                0x000000000013ca60                gif_finalise
 .text          0x000000000013d03c      0x554 /home/bob/ofiles/libnsutils-base64.o
                0x000000000013d03c                nsu_base64_encode_alloc
                0x000000000013d1fa                nsu_base64_decode_alloc
 .text          0x000000000013d590       0xa0 /home/bob/ofiles/libnsutils-time.o
                0x000000000013d590                nsu_getmonotonic_ms
 .text          0x000000000013d630       0x50 /home/bob/ofiles/libnsutils-unistd.o
                0x000000000013d630                nsu_pwrite
                0x000000000013d658                nsu_pread
 .text          0x000000000013d680      0x2a8 /home/bob/ofiles/libparserutils-charset-aliases.o
                0x000000000013d7da                parserutils__charset_alias_canonicalise
                0x000000000013d833                parserutils_charset_mibenum_from_name
                0x000000000013d870                parserutils_charset_mibenum_to_name
                0x000000000013d8c0                parserutils_charset_mibenum_is_unicode
 .text          0x000000000013d928      0x230 /home/bob/ofiles/libparserutils-charset-codec.o
                0x000000000013d928                parserutils_charset_codec_create
                0x000000000013d9fc                parserutils_charset_codec_destroy
                0x000000000013da2f                parserutils_charset_codec_setopt
                0x000000000013da60                parserutils_charset_codec_encode
                0x000000000013dac9                parserutils_charset_codec_decode
                0x000000000013db32                parserutils_charset_codec_reset
 .text          0x000000000013db58      0x844 /home/bob/ofiles/libparserutils-charset-codecs-codec_8859.o
 .text          0x000000000013e39c      0x6e4 /home/bob/ofiles/libparserutils-charset-codecs-codec_ascii.o
 .text          0x000000000013ea80      0x834 /home/bob/ofiles/libparserutils-charset-codecs-codec_ext8.o
 .text          0x000000000013f2b4      0x998 /home/bob/ofiles/libparserutils-charset-codecs-codec_utf16.o
 .text          0x000000000013fc4c      0xe00 /home/bob/ofiles/libparserutils-charset-codecs-codec_utf8.o
 .text          0x0000000000140a4c      0x458 /home/bob/ofiles/libparserutils-charset-encodings-utf16.o
                0x0000000000140a4c                parserutils_charset_utf16_to_ucs4
                0x0000000000140b4d                parserutils_charset_utf16_from_ucs4
                0x0000000000140bee                parserutils_charset_utf16_length
                0x0000000000140c5e                parserutils_charset_utf16_char_byte_length
                0x0000000000140cb0                parserutils_charset_utf16_prev
                0x0000000000140d2a                parserutils_charset_utf16_next
                0x0000000000140dbb                parserutils_charset_utf16_next_paranoid
 .text          0x0000000000140ea4      0x5ec /home/bob/ofiles/libparserutils-charset-encodings-utf8.o
                0x0000000000140ea4                parserutils_charset_utf8_to_ucs4
                0x0000000000141068                parserutils_charset_utf8_from_ucs4
                0x00000000001411ad                parserutils_charset_utf8_length
                0x000000000014129c                parserutils_charset_utf8_char_byte_length
                0x00000000001412e0                parserutils_charset_utf8_prev
                0x0000000000141333                parserutils_charset_utf8_next
                0x00000000001413c1                parserutils_charset_utf8_next_paranoid
 .text          0x0000000000141490      0x488 /home/bob/ofiles/libparserutils-input-filter.o
                0x0000000000141490                parserutils__filter_create
                0x0000000000141543                parserutils__filter_destroy
                0x0000000000141588                parserutils__filter_setopt
                0x00000000001415cc                parserutils__filter_process_chunk
                0x0000000000141794                parserutils__filter_reset
 .text          0x0000000000141918      0xcd4 /home/bob/ofiles/libparserutils-input-inputstream.o
                0x0000000000141918                parserutils_inputstream_create
                0x0000000000141b21                parserutils_inputstream_destroy
                0x0000000000141b75                parserutils_inputstream_append
                0x0000000000141bc0                parserutils_inputstream_insert
                0x0000000000141c06                parserutils_inputstream_peek_slow
                0x0000000000141d3d                parserutils_inputstream_read_charset
                0x0000000000141d8c                parserutils_inputstream_change_charset
 .text          0x00000000001425ec      0x358 /home/bob/ofiles/libparserutils-utils-buffer.o
                0x00000000001425ec                parserutils_buffer_create
                0x000000000014266c                parserutils_buffer_destroy
                0x000000000014269e                parserutils_buffer_append
                0x000000000014270f                parserutils_buffer_insert
                0x00000000001427f4                parserutils_buffer_discard
                0x0000000000142876                parserutils_buffer_grow
                0x00000000001428c4                parserutils_buffer_randomise
 .text          0x0000000000142944      0x1b0 /home/bob/ofiles/libparserutils-utils-errors.o
                0x0000000000142944                parserutils_error_to_string
                0x00000000001429b2                parserutils_error_from_string
 .text          0x0000000000142af4      0x2e8 /home/bob/ofiles/libparserutils-utils-stack.o
                0x0000000000142af4                parserutils_stack_create
                0x0000000000142b98                parserutils_stack_destroy
                0x0000000000142bcb                parserutils_stack_push
                0x0000000000142cb7                parserutils_stack_pop
                0x0000000000142d2c                parserutils_stack_get_current
                0x0000000000142d60                parserutils_stack_dump
 .text          0x0000000000142ddc      0x384 /home/bob/ofiles/libparserutils-utils-vector.o
                0x0000000000142ddc                parserutils_vector_create
                0x0000000000142e80                parserutils_vector_destroy
                0x0000000000142eb3                parserutils_vector_append
                0x0000000000142f9f                parserutils_vector_clear
                0x0000000000142fd1                parserutils_vector_remove_last
                0x0000000000143008                parserutils_vector_get_length
                0x000000000014303c                parserutils_vector_iterate
                0x00000000001430a1                parserutils_vector_peek
                0x00000000001430e2                parserutils_vector_dump
 .text          0x0000000000143160     0x15a0 /home/bob/ofiles/libutf8proc-utf8proc.o
                0x0000000000143160                utf8proc_version
                0x000000000014316a                utf8proc_errmsg
                0x00000000001431ab                utf8proc_iterate
                0x00000000001433be                utf8proc_codepoint_valid
                0x000000000014340f                utf8proc_encode_char
                0x0000000000143541                utf8proc_get_property
                0x0000000000143572                utf8proc_decompose_char
                0x0000000000143e4e                utf8proc_decompose
                0x00000000001440b5                utf8proc_normalise
                0x00000000001444b3                utf8proc_reencode
                0x000000000014453a                utf8proc_map
                0x000000000014464a                utf8proc_NFD
                0x0000000000144677                utf8proc_NFC
                0x00000000001446a4                utf8proc_NFKD
                0x00000000001446d1                utf8proc_NFKC
 .text          0x0000000000144700      0x708 /home/bob/ofiles/libwapcaplet-libwapcaplet.o
                0x0000000000144a2b                lwc_intern_string
                0x0000000000144a64                lwc_intern_substring
                0x0000000000144b0c                lwc_string_destroy
                0x0000000000144d09                lwc__intern_caseless_string
                0x0000000000144da3                lwc_iterate_strings
 *fill*         0x0000000000144e08        0x8 
 .text          0x0000000000144e10      0x110 /home/autobuild/tools/win32/mingw32/lib/libgcc.a(_udivdi3.o)
                0x0000000000144e10                __udivdi3
 .text          0x0000000000144f20       0x2c /home/autobuild/tools/win32/mingw32/lib/libgcc.a(_chkstk_ms.o)
                0x0000000000144f20                __chkstk_ms
 *fill*         0x0000000000144f4c        0x4 
 .text          0x0000000000144f50      0x160 /home/autobuild/tools/win32/mingw32/lib/libgcc.a(_divdi3.o)
                0x0000000000144f50                __divdi3
 .text          0x00000000001450b0       0xa0 /home/autobuild/tools/win32/mingw32/lib/libgcc.a(__main.o)
                0x00000000001450b0                __do_global_dtors
                0x00000000001450e0                __do_global_ctors
                0x0000000000145130                __main
 .text          0x0000000000145150        0x0 /home/autobuild/tools/win32/mingw32/lib/libgcc.a(_ctors.o)
 .text          0x0000000000145150      0x880 /home/autobuild/tools/win32/lib/libz.a(gzlib.o)
                0x0000000000145150                gzbuffer
                0x0000000000145190                gztell64
                0x00000000001451c0                gztell
                0x00000000001451f0                gzoffset64
                0x0000000000145260                gzoffset
                0x0000000000145270                gzeof
                0x0000000000145290                gzerror
                0x00000000001452e0                gz_error
                0x0000000000145680                gzopen
                0x00000000001456a0                gzopen64
                0x00000000001456c0                gzdopen
                0x0000000000145720                gzclearerr
                0x0000000000145780                gzrewind
                0x0000000000145830                gzseek64
                0x00000000001459c0                gzseek
 .text          0x00000000001459d0       0x30 /home/autobuild/tools/win32/lib/libz.a(gzclose.o)
                0x00000000001459d0                gzclose
 .text          0x0000000000145a00      0xaf0 /home/autobuild/tools/win32/lib/libz.a(gzread.o)
                0x0000000000145f60                gzread
                0x00000000001460e0                gzgetc
                0x0000000000146160                gzgetc_
                0x0000000000146170                gzungetc
                0x00000000001462b0                gzgets
                0x00000000001463f0                gzdirect
                0x0000000000146430                gzclose_r
 .text          0x00000000001464f0     0x28c0 /home/autobuild/tools/win32/lib/libz.a(inflate.o)
                0x00000000001466b0                inflateResetKeep
                0x0000000000146750                inflateReset
                0x0000000000146790                inflateReset2
                0x0000000000146820                inflateInit2_
                0x0000000000146930                inflateInit_
                0x0000000000146960                inflatePrime
                0x00000000001469d0                inflate
                0x00000000001487f0                inflateEnd
                0x0000000000148850                inflateGetDictionary
                0x00000000001488d0                inflateSetDictionary
                0x0000000000148980                inflateGetHeader
                0x00000000001489b0                inflateSync
                0x0000000000148ab0                inflateSyncPoint
                0x0000000000148ae0                inflateCopy
                0x0000000000148d30                inflateUndermine
                0x0000000000148d60                inflateMark
 .text          0x0000000000148db0      0x920 /home/autobuild/tools/win32/lib/libz.a(gzwrite.o)
                0x00000000001490f0                gzwrite
                0x0000000000149280                gzputc
                0x0000000000149350                gzputs
                0x0000000000149390                gzvprintf
                0x0000000000149460                gzprintf
                0x0000000000149490                gzflush
                0x0000000000149500                gzsetparams
                0x00000000001495d0                gzclose_w
 .text          0x00000000001496d0       0x70 /home/autobuild/tools/win32/lib/libz.a(zutil.o)
                0x00000000001496d0                zlibVersion
                0x00000000001496e0                zlibCompileFlags
                0x00000000001496f0                zError
                0x0000000000149710                zcalloc
                0x0000000000149730                zcfree
 .text          0x0000000000149740      0x4a0 /home/autobuild/tools/win32/lib/libz.a(adler32.o)
                0x00000000001497e0                adler32
                0x0000000000149ba0                adler32_combine
                0x0000000000149bc0                adler32_combine64
 .text          0x0000000000149be0      0x420 /home/autobuild/tools/win32/lib/libz.a(crc32.o)
                0x0000000000149d00                get_crc_table
                0x0000000000149d10                crc32
                0x0000000000149fc0                crc32_combine
                0x0000000000149fe0                crc32_combine64
 .text          0x000000000014a000      0x560 /home/autobuild/tools/win32/lib/libz.a(inftrees.o)
                0x000000000014a000                inflate_table
 .text          0x000000000014a560      0x590 /home/autobuild/tools/win32/lib/libz.a(inffast.o)
                0x000000000014a560                inflate_fast
 .text          0x000000000014aaf0     0x2eb0 /home/autobuild/tools/win32/lib/libz.a(deflate.o)
                0x000000000014baf0                deflateSetDictionary
                0x000000000014bd20                deflateResetKeep
                0x000000000014be00                deflateReset
                0x000000000014bed0                deflateSetHeader
                0x000000000014bf00                deflatePending
                0x000000000014bf40                deflatePrime
                0x000000000014bfd0                deflateTune
                0x000000000014c010                deflateBound
                0x000000000014c120                deflate
                0x000000000014d1a0                deflateParams
                0x000000000014d2b0                deflateEnd
                0x000000000014d3b0                deflateInit2_
                0x000000000014d680                deflateInit_
                0x000000000014d6d0                deflateCopy
 .text          0x000000000014d9a0     0x1bd0 /home/autobuild/tools/win32/lib/libz.a(trees.o)
                0x000000000014eba0                _tr_init
                0x000000000014ec80                _tr_stored_block
                0x000000000014eda0                _tr_flush_bits
                0x000000000014edb0                _tr_align
                0x000000000014eea0                _tr_flush_block
                0x000000000014f4d0                _tr_tally
 .text          0x000000000014f570        0x0 /home/autobuild/tools/win32/lib/libapp.a(start.o)
 .text          0x000000000014f570       0x40 /home/autobuild/tools/win32/lib/libapp.a(crt3.o)
                0x000000000014f570                _pei386_runtime_relocator
                0x000000000014f580                __crt_startup
 .text          0x000000000014f5b0      0x250 /home/autobuild/tools/win32/lib/libapp.a(crtloader.o)
                0x000000000014f5b0                validate_pe
                0x000000000014f640                create_image
                0x000000000014f780                get_entry_point
                0x000000000014f790                load_libc
 .text          0x000000000014f800        0x8 /home/autobuild/tools/win32/lib/libc.dll.a(d000212.o)
                0x000000000014f800                calloc
 .text          0x000000000014f808        0x8 /home/autobuild/tools/win32/lib/libc.dll.a(d000503.o)
                0x000000000014f808                strdup
 .text          0x000000000014f810        0x8 /home/autobuild/tools/win32/lib/libc.dll.a(d000297.o)
                0x000000000014f810                free
 .text          0x000000000014f818        0x8 /home/autobuild/tools/win32/lib/libc.dll.a(d000006.o)
                0x000000000014f818                __assert_func
 .text          0x000000000014f820        0x8 /home/autobuild/tools/win32/lib/libc.dll.a(d000485.o)
                0x000000000014f820                snprintf
 .text          0x000000000014f828        0x8 /home/autobuild/tools/win32/lib/libc.dll.a(d000506.o)
                0x000000000014f828                strlen
 .text          0x000000000014f830        0x8 /home/autobuild/tools/win32/lib/libc.dll.a(d000413.o)
                0x000000000014f830                memcpy
 .text          0x000000000014f838        0x8 /home/autobuild/tools/win32/lib/libc.dll.a(d000405.o)
                0x000000000014f838                malloc
 .text          0x000000000014f840        0x8 /home/autobuild/tools/win32/lib/libc.dll.a(d000510.o)
                0x000000000014f840                strncpy
 .text          0x000000000014f848        0x8 /home/autobuild/tools/win32/lib/libc.dll.a(d000563.o)
                0x000000000014f848                vsnprintf
 .text          0x000000000014f850        0x8 /home/autobuild/tools/win32/lib/libc.dll.a(d000498.o)
                0x000000000014f850                strchr
 .text          0x000000000014f858        0x8 /home/autobuild/tools/win32/lib/libc.dll.a(d000511.o)
                0x000000000014f858                strndup
 .text          0x000000000014f860        0x8 /home/autobuild/tools/win32/lib/libc.dll.a(d000499.o)
                0x000000000014f860                strcmp
 .text          0x000000000014f868        0x8 /home/autobuild/tools/win32/lib/libc.dll.a(d000507.o)
                0x000000000014f868                strncasecmp
 .text          0x000000000014f870        0x8 /home/autobuild/tools/win32/lib/libc.dll.a(d000208.o)
                0x000000000014f870                atoi
 .text          0x000000000014f878        0x8 /home/autobuild/tools/win32/lib/libc.dll.a(d000291.o)
                0x000000000014f878                fopen
 .text          0x000000000014f880        0x8 /home/autobuild/tools/win32/lib/libc.dll.a(d000009.o)
                0x000000000014f880                __errno
 .text          0x000000000014f888        0x8 /home/autobuild/tools/win32/lib/libc.dll.a(d000264.o)
                0x000000000014f888                fclose
 .text          0x000000000014f890        0x8 /home/autobuild/tools/win32/lib/libc.dll.a(d000296.o)
                0x000000000014f890                fread
 .text          0x000000000014f898        0x8 /home/autobuild/tools/win32/lib/libc.dll.a(d000385.o)
                0x000000000014f898                localtime
 .text          0x000000000014f8a0        0x8 /home/autobuild/tools/win32/lib/libc.dll.a(d000505.o)
                0x000000000014f8a0                strftime
 .text          0x000000000014f8a8        0x8 /home/autobuild/tools/win32/lib/libc.dll.a(d000536.o)
                0x000000000014f8a8                time
 .text          0x000000000014f8b0        0x8 /home/autobuild/tools/win32/lib/libc.dll.a(d000495.o)
                0x000000000014f8b0                strcasecmp
 .text          0x000000000014f8b8        0x8 /home/autobuild/tools/win32/lib/libc.dll.a(d000415.o)
                0x000000000014f8b8                memset
 .text          0x000000000014f8c0        0x8 /home/autobuild/tools/win32/lib/libc.dll.a(d000509.o)
                0x000000000014f8c0                strncmp
 .text          0x000000000014f8c8        0x8 /home/autobuild/tools/win32/lib/libc.dll.a(d000448.o)
                0x000000000014f8c8                realloc
 .text          0x000000000014f8d0        0x8 /home/autobuild/tools/win32/lib/libc.dll.a(d000491.o)
                0x000000000014f8d0                sscanf
 .text          0x000000000014f8d8        0x8 /home/autobuild/tools/win32/lib/libc.dll.a(d000412.o)
                0x000000000014f8d8                memcmp
 .text          0x000000000014f8e0        0x0 /home/autobuild/tools/win32/lib/libc.dll.a(d000007.o)
 .text          0x000000000014f8e0        0x8 /home/autobuild/tools/win32/lib/libc.dll.a(d000292.o)
                0x000000000014f8e0                fprintf
 .text          0x000000000014f8e8        0x8 /home/autobuild/tools/win32/lib/libc.dll.a(d000516.o)
                0x000000000014f8e8                strspn
 .text          0x000000000014f8f0        0x8 /home/autobuild/tools/win32/lib/libc.dll.a(d000442.o)
                0x000000000014f8f0                qsort
 .text          0x000000000014f8f8        0x8 /home/autobuild/tools/win32/lib/libc.dll.a(d000293.o)
                0x000000000014f8f8                fputc
 .text          0x000000000014f900        0x8 /home/autobuild/tools/win32/lib/libc.dll.a(d000294.o)
                0x000000000014f900                fputs
 .text          0x000000000014f908        0x8 /home/autobuild/tools/win32/lib/libc.dll.a(d000514.o)
                0x000000000014f908                strrchr
 .text          0x000000000014f910        0x8 /home/autobuild/tools/win32/lib/libc.dll.a(d000486.o)
                0x000000000014f910                sprintf
 .text          0x000000000014f918        0x8 /home/autobuild/tools/win32/lib/libc.dll.a(d000501.o)
                0x000000000014f918                strcpy
 .text          0x000000000014f920        0x8 /home/autobuild/tools/win32/lib/libc.dll.a(d000513.o)
                0x000000000014f920                strpbrk
 .text          0x000000000014f928        0x8 /home/autobuild/tools/win32/lib/libc.dll.a(d000274.o)
                0x000000000014f928                fgets
 .text          0x000000000014f930        0x8 /home/autobuild/tools/win32/lib/libc.dll.a(d000517.o)
                0x000000000014f930                strstr
 .text          0x000000000014f938        0x8 /home/autobuild/tools/win32/lib/libc.dll.a(d000414.o)
                0x000000000014f938                memmove
 .text          0x000000000014f940        0x8 /home/autobuild/tools/win32/lib/libc.dll.a(d000307.o)
                0x000000000014f940                fwrite
 .text          0x000000000014f948        0x8 /home/autobuild/tools/win32/lib/libc.dll.a(d000210.o)
                0x000000000014f948                bsearch
 .text          0x000000000014f950        0x8 /home/autobuild/tools/win32/lib/libc.dll.a(d000236.o)
                0x000000000014f950                ctime
 .text          0x000000000014f958        0x8 /home/autobuild/tools/win32/lib/libc.dll.a(d000525.o)
                0x000000000014f958                strtoul
 .text          0x000000000014f960        0x8 /home/autobuild/tools/win32/lib/libc.dll.a(d000422.o)
                0x000000000014f960                mktime
 .text          0x000000000014f968        0x8 /home/autobuild/tools/win32/lib/libc.dll.a(d000451.o)
                0x000000000014f968                remove
 .text          0x000000000014f970        0x8 /home/autobuild/tools/win32/lib/libc.dll.a(d000454.o)
                0x000000000014f970                rename
 .text          0x000000000014f978        0x8 /home/autobuild/tools/win32/lib/libc.dll.a(d000504.o)
                0x000000000014f978                strerror
 .text          0x000000000014f980        0x8 /home/autobuild/tools/win32/lib/libc.dll.a(d000473.o)
                0x000000000014f980                signal
 .text          0x000000000014f988        0x8 /home/autobuild/tools/win32/lib/libc.dll.a(d000471.o)
                0x000000000014f988                setlocale
 .text          0x000000000014f990        0x8 /home/autobuild/tools/win32/lib/libc.dll.a(d000302.o)
                0x000000000014f990                fseek
 .text          0x000000000014f998        0x8 /home/autobuild/tools/win32/lib/libc.dll.a(d000305.o)
                0x000000000014f998                ftell
 .text          0x000000000014f9a0        0x8 /home/autobuild/tools/win32/lib/libc.dll.a(d000444.o)
                0x000000000014f9a0                rand
 .text          0x000000000014f9a8        0x8 /home/autobuild/tools/win32/lib/libc.dll.a(d000253.o)
                0x000000000014f9a8                exit
 .text          0x000000000014f9b0        0x8 /home/autobuild/tools/win32/lib/libc.dll.a(d000316.o)
                0x000000000014f9b0                gettimeofday
 .text          0x000000000014f9b8        0x8 /home/autobuild/tools/win32/lib/libc.dll.a(d000522.o)
                0x000000000014f9b8                strtol
 .text          0x000000000014f9c0        0x8 /home/autobuild/tools/win32/lib/libc.dll.a(d000502.o)
                0x000000000014f9c0                strcspn
 .text          0x000000000014f9c8        0x8 /home/autobuild/tools/win32/lib/libc.dll.a(d000519.o)
                0x000000000014f9c8                strtof
 .text          0x000000000014f9d0        0x8 /home/autobuild/tools/win32/lib/libc.dll.a(d000216.o)
                0x000000000014f9d0                ceilf
 .text          0x000000000014f9d8        0x8 /home/autobuild/tools/win32/lib/libc.dll.a(d000520.o)
                0x000000000014f9d8                strtok
 .text          0x000000000014f9e0        0x8 /home/autobuild/tools/win32/lib/libc.dll.a(d000215.o)
                0x000000000014f9e0                ceil
 .text          0x000000000014f9e8        0x8 /home/autobuild/tools/win32/lib/libc.dll.a(d000315.o)
                0x000000000014f9e8                getenv
 .text          0x000000000014f9f0        0x8 /home/autobuild/tools/win32/lib/libc.dll.a(d000560.o)
                0x000000000014f9f0                vfprintf
 .text          0x000000000014f9f8        0x8 /home/autobuild/tools/win32/lib/libc.dll.a(d000441.o)
                0x000000000014f9f8                puts
 .text          0x000000000014fa00        0x8 /home/autobuild/tools/win32/lib/libc.dll.a(d000187.o)
                0x000000000014fa00                abort
 .text          0x000000000014fa08        0x8 /home/autobuild/tools/win32/lib/libc.dll.a(d000272.o)
                0x000000000014fa08                fflush
 .text          0x000000000014fa10        0x8 /home/autobuild/tools/win32/lib/libc.dll.a(d000332.o)
                0x000000000014fa10                isascii
 .text          0x000000000014fa18        0x8 /home/autobuild/tools/win32/lib/libc.dll.a(d000317.o)
                0x000000000014fa18                gmtime
 .text          0x000000000014fa20        0x8 /home/autobuild/tools/win32/lib/libc.dll.a(d000411.o)
                0x000000000014fa20                memchr
 .text          0x000000000014fa28        0x8 /home/autobuild/tools/win32/lib/libc.dll.a(d000438.o)
                0x000000000014fa28                printf
 .text          0x000000000014fa30        0x8 /home/autobuild/tools/win32/lib/libc.dll.a(d000440.o)
                0x000000000014fa30                putchar
 .text          0x000000000014fa38        0x8 /home/autobuild/tools/win32/lib/libc.dll.a(d000403.o)
                0x000000000014fa38                lseek
 .text          0x000000000014fa40        0x8 /home/autobuild/tools/win32/lib/libc.dll.a(d000497.o)
                0x000000000014fa40                strcat
 .text          0x000000000014fa48        0x8 /home/autobuild/tools/win32/lib/libc.dll.a(d000431.o)
                0x000000000014fa48                open
 .text          0x000000000014fa50        0x8 /home/autobuild/tools/win32/lib/libc.dll.a(d000446.o)
                0x000000000014fa50                read
 .text          0x000000000014fa58        0x8 /home/autobuild/tools/win32/lib/libc.dll.a(d000220.o)
                0x000000000014fa58                close
 .text          0x000000000014fa60        0x8 /home/autobuild/tools/win32/lib/libc.dll.a(d000569.o)
                0x000000000014fa60                write
 .text          0x000000000014fa68        0x8 /home/autobuild/tools/win32/lib/libc.dll.a(d000564.o)
                0x000000000014fa68                vsprintf
 .text          0x000000000014fa70      0x200 ../../inst/lib/libnsfb.a(src_libnsfb.o)
                0x000000000014fa70                nsfb_new
                0x000000000014fac0                nsfb_init
                0x000000000014fad0                nsfb_free
                0x000000000014fb30                nsfb_event
                0x000000000014fb40                nsfb_claim
                0x000000000014fb50                nsfb_update
                0x000000000014fb60                nsfb_set_geometry
                0x000000000014fbb0                nsfb_set_parameters
                0x000000000014fc00                nsfb_get_geometry
                0x000000000014fc40                nsfb_get_buffer
 .text          0x000000000014fc70      0x290 ../../inst/lib/libnsfb.a(src_plot_api.o)
                0x000000000014fc70                nsfb_plot_set_clip
                0x000000000014fc80                nsfb_plot_get_clip
                0x000000000014fc90                nsfb_plot_clg
                0x000000000014fca0                nsfb_plot_rectangle
                0x000000000014fcc0                nsfb_plot_rectangle_fill
                0x000000000014fcd0                nsfb_plot_line
                0x000000000014fd00                nsfb_plot_lines
                0x000000000014fd10                nsfb_plot_polylines
                0x000000000014fd20                nsfb_plot_polygon
                0x000000000014fd30                nsfb_plot_arc
                0x000000000014fd40                nsfb_plot_point
                0x000000000014fd50                nsfb_plot_ellipse
                0x000000000014fd60                nsfb_plot_ellipse_fill
                0x000000000014fd70                nsfb_plot_copy
                0x000000000014fe60                nsfb_plot_bitmap
                0x000000000014fe80                nsfb_plot_bitmap_tiles
                0x000000000014fea0                nsfb_plot_glyph8
                0x000000000014feb0                nsfb_plot_glyph1
                0x000000000014fec0                nsfb_plot_readrect
                0x000000000014fed0                nsfb_plot_cubic_bezier
                0x000000000014fee0                nsfb_plot_quadratic_bezier
                0x000000000014fef0                nsfb_plot_path
 .text          0x000000000014ff00      0x340 ../../inst/lib/libnsfb.a(src_cursor.o)
                0x000000000014ff00                nsfb_cursor_init
                0x000000000014ff60                nsfb_cursor_set
                0x000000000014ffc0                nsfb_cursor_loc_set
                0x0000000000150010                nsfb_cursor_loc_get
                0x0000000000150050                nsfb_cursor_plot
                0x0000000000150190                nsfb_cursor_clear
                0x0000000000150210                nsfb_cursor_destroy
 .text          0x0000000000150240      0x230 ../../inst/lib/libnsfb.a(src_surface_surface.o)
                0x00000000001502b0                _nsfb_register_surface
                0x00000000001502f0                nsfb_surface_get_rtns
                0x0000000000150410                nsfb_type_from_name
 .text          0x0000000000150470      0x210 ../../inst/lib/libnsfb.a(src_palette.o)
                0x0000000000150470                nsfb_palette_free
                0x00000000001504b0                nsfb_palette_new
                0x0000000000150530                nsfb_palette_dither_init
                0x0000000000150580                nsfb_palette_dither_fini
                0x0000000000150590                nsfb_palette_generate_nsfb_8bpp
 .text          0x0000000000150680     0x1720 ../../inst/lib/libnsfb.a(src_plot_generic.o)
                0x0000000000151c70                select_plotters
 .text          0x0000000000151da0     0x1ae0 ../../inst/lib/libnsfb.a(src_plot_16bpp.o)
 .text          0x0000000000153880     0x1730 ../../inst/lib/libnsfb.a(src_plot_32bpp-xrgb8888.o)
 .text          0x0000000000154fb0     0x1730 ../../inst/lib/libnsfb.a(src_plot_32bpp-xbgr8888.o)
 .text          0x00000000001566e0     0x73c0 ../../inst/lib/libnsfb.a(src_plot_8bpp.o)
 .text          0x000000000015daa0      0x5b0 ../../inst/lib/libnsfb.a(src_plot_util.o)
                0x000000000015daa0                nsfb_plot_clip
                0x000000000015dc00                nsfb_plot_clip_ctx
                0x000000000015dc10                nsfb_plot_clip_line
                0x000000000015dfc0                nsfb_plot_clip_line_ctx
                0x000000000015dfd0                nsfb_plot_add_rect
                0x000000000015e020                nsfb_plot_bbox_intersect
 *(SORT(.text$*))
 *(.text.*)
 *(.glue_7t)
 *(.glue_7)
                0x000000000015e050                ___CTOR_LIST__ = .
                0x000000000015e050                __CTOR_LIST__ = .
                0x000000000015e050        0x4 LONG 0xffffffffffffffff
 *(.ctors)
 *(.ctor)
 *(SORT(.ctors.*))
                0x000000000015e054        0x4 LONG 0x0
                0x000000000015e058                ___DTOR_LIST__ = .
                0x000000000015e058                __DTOR_LIST__ = .
                0x000000000015e058        0x4 LONG 0xffffffffffffffff
 *(.dtors)
 *(.dtor)
 *(SORT(.dtors.*))
                0x000000000015e05c        0x4 LONG 0x0
 *(.fini)
 *(.gcc_exc)
                0x000000000015e060                PROVIDE (etext, .)
 *(.gcc_except_table)

.flat           0x000000000015f000      0x400
 .flat          0x000000000015f000      0x24d loadhttp.obj
                0x000000000015f186                init_network_asm
                0x000000000015f1c4                http_get_asm
                0x000000000015f1c8                http_head_asm
                0x000000000015f1cc                http_post_asm
                0x000000000015f1d0                http_find_header_field_asm
                0x000000000015f1d4                http_send_asm
                0x000000000015f1d8                http_receive_asm
                0x000000000015f1dc                http_disconnect_asm
                0x000000000015f1e0                http_free_asm
                0x000000000015f1e4                http_escape_asm
                0x000000000015f1e8                http_unescape_asm

.rdata          0x000000000015f250    0x97e10
 *(.rdata)
 .rdata         0x000000000015f250      0x520 content_content.o
                0x000000000015f26c                content_status_name
 *fill*         0x000000000015f770       0x10 
 .rdata         0x000000000015f780       0xe0 content_content_factory.o
 .rdata         0x000000000015f860      0x394 content_dirlist.o
 .rdata         0x000000000015fbf4      0x158 content_fetch.o
 .rdata         0x000000000015fd4c      0xf1c content_fetchers_about.o
 .rdata         0x0000000000160c68      0x230 content_fetchers_data.o
 .rdata         0x0000000000160e98      0x1b4 content_fetchers_file.o
 .rdata         0x000000000016104c       0xd0 content_fetchers_http_kolibri.o
 .rdata         0x000000000016111c      0x2fc content_fetchers_resource.o
 .rdata         0x0000000000161418      0x208 content_hlcache.o
 .rdata         0x0000000000161620      0x798 content_llcache.o
 *fill*         0x0000000000161db8        0x8 
 .rdata         0x0000000000161dc0      0x860 content_mimesniff.o
 .rdata         0x0000000000162620      0xbe0 content_urldb.o
 .rdata         0x0000000000163200      0x280 css_css.o
 .rdata         0x0000000000163480     0x1c64 css_dump.o
 .rdata         0x00000000001650e4       0x30 css_internal.o
 *fill*         0x0000000000165114        0xc 
 .rdata         0x0000000000165120     0x1100 css_select.o
 .rdata         0x0000000000166220       0xd4 css_utils.o
 *fill*         0x00000000001662f4        0xc 
 .rdata         0x0000000000166300      0xb60 desktop_browser.o
 .rdata         0x0000000000166e60      0x3c0 desktop_browser_history.o
 .rdata         0x0000000000167220      0x360 desktop_cookie_manager.o
 .rdata         0x0000000000167580      0x120 desktop_download.o
 .rdata         0x00000000001676a0      0x3a0 desktop_frames.o
 .rdata         0x0000000000167a40      0x4c0 desktop_global_history.o
 .rdata         0x0000000000167f00      0x22c desktop_gui_factory.o
 *fill*         0x000000000016812c       0x14 
 .rdata         0x0000000000168140      0x680 desktop_hotlist.o
 .rdata         0x00000000001687c0       0xe0 desktop_knockout.o
                0x00000000001687c0                knockout_plotters
 .rdata         0x00000000001688a0       0x90 desktop_mouse.o
 .rdata         0x0000000000168930      0x29c desktop_netsurf.o
 .rdata         0x0000000000168bcc       0x98 desktop_plot_style.o
                0x0000000000168be0                plot_style_content_edge
                0x0000000000168bf8                plot_style_padding_edge
                0x0000000000168c10                plot_style_margin_edge
                0x0000000000168c28                plot_style_broken_object
                0x0000000000168c44                plot_fstyle_broken_object
                0x0000000000168c60                plot_style_font
 *fill*         0x0000000000168c64        0xc 
 .rdata         0x0000000000168c70       0xe0 desktop_print.o
 *fill*         0x0000000000168d50       0x10 
 .rdata         0x0000000000168d60      0x3a0 desktop_save_complete.o
 .rdata         0x0000000000169100       0xcc desktop_save_text.o
 .rdata         0x00000000001691cc      0x134 desktop_scrollbar.o
 .rdata         0x0000000000169300      0x104 desktop_searchweb.o
 .rdata         0x0000000000169404      0x10c desktop_selection.o
 *fill*         0x0000000000169510       0x10 
 .rdata         0x0000000000169520      0x380 desktop_sslcert_viewer.o
 .rdata         0x00000000001698a0       0x44 desktop_system_colour.o
 *fill*         0x00000000001698e4        0xc 
 .rdata         0x00000000001698f0      0x4f0 desktop_textarea.o
 .rdata         0x0000000000169de0       0x6c desktop_textinput.o
 .rdata         0x0000000000169e4c      0x298 desktop_tree.o
 *fill*         0x000000000016a0e4       0x1c 
 .rdata         0x000000000016a100      0xc00 desktop_treeview.o
 .rdata         0x000000000016ad00       0x18 desktop_version.o
                0x000000000016ad0c                netsurf_version
                0x000000000016ad10                netsurf_version_major
                0x000000000016ad14                netsurf_version_minor
 *fill*         0x000000000016ad18        0x8 
 .rdata         0x000000000016ad20      0x520 image_image_cache.o
 .rdata         0x000000000016b240       0x40 javascript_fetcher.o
 .rdata         0x000000000016b280      0x158 kolibrios_fb_bitmap.o
 .rdata         0x000000000016b3d8       0x74 kolibrios_fb_clipboard.o
 .rdata         0x000000000016b44c       0xe8 kolibrios_fb_fbtk_event.o
 .rdata         0x000000000016b534      0x148 kolibrios_fb_fbtk_fbtk.o
 .rdata         0x000000000016b67c       0x84 kolibrios_fb_fbtk_osk.o
 .rdata         0x000000000016b700       0xe4 kolibrios_fb_fbtk_scroll.o
 .rdata         0x000000000016b7e4       0xb4 kolibrios_fb_fetch.o
 .rdata         0x000000000016b898      0x2c0 kolibrios_fb_font_freetype.o
                0x000000000016bb20                nsfont
 *fill*         0x000000000016bb58        0x8 
 .rdata         0x000000000016bb60      0x240 kolibrios_fb_framebuffer.o
                0x000000000016bba0                fb_plotters
 .rdata         0x000000000016bda0      0x3ac kolibrios_fb_gui.o
 .rdata         0x000000000016c14c       0x24 kolibrios_fb_misc.o
 .rdata         0x000000000016c170       0x58 kolibrios_fb_schedule.o
 .rdata         0x000000000016c1c8      0x2ec kolibrios_main.o
 .rdata         0x000000000016c4b4      0x3e8 render_box.o
 *fill*         0x000000000016c89c        0x4 
 .rdata         0x000000000016c8a0      0x4e0 render_box_construct.o
 .rdata         0x000000000016cd80      0x3b8 render_box_normalise.o
 .rdata         0x000000000016d138      0x12c render_box_textarea.o
 .rdata         0x000000000016d264       0x38 render_font.o
 *fill*         0x000000000016d29c        0x4 
 .rdata         0x000000000016d2a0      0x870 render_form.o
 *fill*         0x000000000016db10       0x10 
 .rdata         0x000000000016db20      0x760 render_html.o
 .rdata         0x000000000016e280      0x2e0 render_html_css.o
 .rdata         0x000000000016e560      0x1dc render_html_css_fetcher.o
 .rdata         0x000000000016e73c        0x8 render_html_forms.o
 *fill*         0x000000000016e744       0x1c 
 .rdata         0x000000000016e760      0x3c0 render_html_interaction.o
 .rdata         0x000000000016eb20      0x1dc render_html_object.o
 *fill*         0x000000000016ecfc        0x4 
 .rdata         0x000000000016ed00      0x1f0 render_html_redraw.o
 .rdata         0x000000000016eef0      0x1d4 render_html_script.o
 .rdata         0x000000000016f0c4      0x140 render_imagemap.o
 *fill*         0x000000000016f204       0x1c 
 .rdata         0x000000000016f220      0xbe0 render_layout.o
 .rdata         0x000000000016fe00       0x4c render_search.o
 *fill*         0x000000000016fe4c       0x14 
 .rdata         0x000000000016fe60      0x1e0 render_table.o
 .rdata         0x0000000000170040      0x2e0 render_textplain.o
 .rdata         0x0000000000170320      0x140 utils_base64.o
 .rdata         0x0000000000170460      0x758 utils_corestrings.o
 .rdata         0x0000000000170bb8       0x54 utils_file.o
 .rdata         0x0000000000170c0c      0x1e8 utils_filename.o
 .rdata         0x0000000000170df4       0x14 utils_filepath.o
 .rdata         0x0000000000170e08       0xc4 utils_hashtable.o
 .rdata         0x0000000000170ecc       0x70 utils_http_challenge.o
 *fill*         0x0000000000170f3c        0x4 
 .rdata         0x0000000000170f40       0xa0 utils_http_content-disposition.o
 .rdata         0x0000000000170fe0       0x84 utils_http_content-type.o
 .rdata         0x0000000000171064       0x90 utils_http_parameter.o
 .rdata         0x00000000001710f4       0x14 utils_http_primitives.o
 .rdata         0x0000000000171108      0x274 utils_idna.o
 .rdata         0x000000000017137c      0x208 utils_libdom.o
 .rdata         0x0000000000171584        0x4 utils_locale.o
 .rdata         0x0000000000171588       0xb8 utils_log.o
 .rdata         0x0000000000171640      0x304 utils_messages.o
 .rdata         0x0000000000171944      0xae0 utils_nsoption.o
 *fill*         0x0000000000172424       0x1c 
 .rdata         0x0000000000172440      0x880 utils_nsurl.o
 .rdata         0x0000000000172cc0        0x4 utils_punycode.o
 .rdata         0x0000000000172cc4      0x120 utils_talloc.o
 .rdata         0x0000000000172de4       0x30 utils_url.o
 .rdata         0x0000000000172e14       0x5c utils_useragent.o
 .rdata         0x0000000000172e70       0xf4 utils_utf8.o
 *fill*         0x0000000000172f64        0xc 
 .rdata         0x0000000000172f70      0x100 utils_utils.o
 .rdata         0x0000000000173070       0xc4 /home/bob/ofiles/libcss-charset-detect.o
 .rdata         0x0000000000173134      0x330 /home/bob/ofiles/libcss-lex-lex.o
 *fill*         0x0000000000173464       0x1c 
 .rdata         0x0000000000173480       0xc0 /home/bob/ofiles/libcss-parse-font_face.o
 .rdata         0x0000000000173540      0x1f0 /home/bob/ofiles/libcss-parse-important.o
 *fill*         0x0000000000173730       0x10 
 .rdata         0x0000000000173740      0x2c0 /home/bob/ofiles/libcss-parse-language.o
 .rdata         0x0000000000173a00      0x260 /home/bob/ofiles/libcss-parse-parse.o
 .rdata         0x0000000000173c60       0x60 /home/bob/ofiles/libcss-parse-properties-autogenerated_column_count.o
 .rdata         0x0000000000173cc0       0x78 /home/bob/ofiles/libcss-parse-properties-autogenerated_counter_increment.o
 .rdata         0x0000000000173d38       0x70 /home/bob/ofiles/libcss-parse-properties-autogenerated_counter_reset.o
 .rdata         0x0000000000173da8       0x60 /home/bob/ofiles/libcss-parse-properties-autogenerated_line_height.o
 .rdata         0x0000000000173e08       0x58 /home/bob/ofiles/libcss-parse-properties-autogenerated_orphans.o
 .rdata         0x0000000000173e60       0x60 /home/bob/ofiles/libcss-parse-properties-autogenerated_pitch_range.o
 .rdata         0x0000000000173ec0       0x58 /home/bob/ofiles/libcss-parse-properties-autogenerated_richness.o
 .rdata         0x0000000000173f18       0x60 /home/bob/ofiles/libcss-parse-properties-autogenerated_speech_rate.o
 .rdata         0x0000000000173f78       0x54 /home/bob/ofiles/libcss-parse-properties-autogenerated_stress.o
 .rdata         0x0000000000173fcc       0x54 /home/bob/ofiles/libcss-parse-properties-autogenerated_volume.o
 .rdata         0x0000000000174020       0x54 /home/bob/ofiles/libcss-parse-properties-autogenerated_widows.o
 .rdata         0x0000000000174074       0x58 /home/bob/ofiles/libcss-parse-properties-autogenerated_z_index.o
 .rdata         0x00000000001740cc       0xd8 /home/bob/ofiles/libcss-parse-properties-background_position.o
 .rdata         0x00000000001741a4       0x34 /home/bob/ofiles/libcss-parse-properties-clip.o
 .rdata         0x00000000001741d8       0x74 /home/bob/ofiles/libcss-parse-properties-content.o
 .rdata         0x000000000017424c       0x34 /home/bob/ofiles/libcss-parse-properties-cursor.o
 .rdata         0x0000000000174280       0xac /home/bob/ofiles/libcss-parse-properties-font.o
 .rdata         0x000000000017432c       0x50 /home/bob/ofiles/libcss-parse-properties-font_weight.o
 .rdata         0x000000000017437c       0x48 /home/bob/ofiles/libcss-parse-properties-opacity.o
 *fill*         0x00000000001743c4       0x1c 
 .rdata         0x00000000001743e0      0x220 /home/bob/ofiles/libcss-parse-properties-properties.o
                0x00000000001743e0                property_handlers
 .rdata         0x0000000000174600       0x40 /home/bob/ofiles/libcss-parse-properties-quotes.o
 .rdata         0x0000000000174640      0x3e0 /home/bob/ofiles/libcss-parse-properties-utils.o
 .rdata         0x0000000000174a20     0x2520 /home/bob/ofiles/libcss-parse-propstrings.o
                0x0000000000175e60                stringmap
 .rdata         0x0000000000176f40       0xc0 /home/bob/ofiles/libcss-select-computed.o
 .rdata         0x0000000000177000       0x88 /home/bob/ofiles/libcss-select-font_face.o
 *fill*         0x0000000000177088       0x18 
 .rdata         0x00000000001770a0      0x1c0 /home/bob/ofiles/libcss-select-hash.o
 .rdata         0x0000000000177260       0x80 /home/bob/ofiles/libcss-select-properties-background_attachment.o
 .rdata         0x00000000001772e0       0x80 /home/bob/ofiles/libcss-select-properties-background_color.o
 .rdata         0x0000000000177360      0x120 /home/bob/ofiles/libcss-select-properties-background_image.o
 .rdata         0x0000000000177480       0x80 /home/bob/ofiles/libcss-select-properties-background_position.o
 .rdata         0x0000000000177500       0x80 /home/bob/ofiles/libcss-select-properties-background_repeat.o
 .rdata         0x0000000000177580       0x80 /home/bob/ofiles/libcss-select-properties-border_bottom_color.o
 .rdata         0x0000000000177600       0x80 /home/bob/ofiles/libcss-select-properties-border_bottom_style.o
 .rdata         0x0000000000177680       0x80 /home/bob/ofiles/libcss-select-properties-border_bottom_width.o
 .rdata         0x0000000000177700       0x80 /home/bob/ofiles/libcss-select-properties-border_collapse.o
 .rdata         0x0000000000177780       0x80 /home/bob/ofiles/libcss-select-properties-border_left_color.o
 .rdata         0x0000000000177800       0x80 /home/bob/ofiles/libcss-select-properties-border_left_style.o
 .rdata         0x0000000000177880       0x80 /home/bob/ofiles/libcss-select-properties-border_left_width.o
 .rdata         0x0000000000177900       0x80 /home/bob/ofiles/libcss-select-properties-border_right_color.o
 .rdata         0x0000000000177980       0x80 /home/bob/ofiles/libcss-select-properties-border_right_style.o
 .rdata         0x0000000000177a00       0x80 /home/bob/ofiles/libcss-select-properties-border_right_width.o
 .rdata         0x0000000000177a80       0x80 /home/bob/ofiles/libcss-select-properties-border_spacing.o
 .rdata         0x0000000000177b00       0x80 /home/bob/ofiles/libcss-select-properties-border_top_color.o
 .rdata         0x0000000000177b80       0x80 /home/bob/ofiles/libcss-select-properties-border_top_style.o
 .rdata         0x0000000000177c00       0x80 /home/bob/ofiles/libcss-select-properties-border_top_width.o
 .rdata         0x0000000000177c80       0x80 /home/bob/ofiles/libcss-select-properties-bottom.o
 .rdata         0x0000000000177d00       0x80 /home/bob/ofiles/libcss-select-properties-break_after.o
 .rdata         0x0000000000177d80       0x80 /home/bob/ofiles/libcss-select-properties-break_before.o
 .rdata         0x0000000000177e00       0x80 /home/bob/ofiles/libcss-select-properties-break_inside.o
 .rdata         0x0000000000177e80       0x80 /home/bob/ofiles/libcss-select-properties-caption_side.o
 .rdata         0x0000000000177f00       0x80 /home/bob/ofiles/libcss-select-properties-clear.o
 .rdata         0x0000000000177f80       0x80 /home/bob/ofiles/libcss-select-properties-clip.o
 .rdata         0x0000000000178000       0x80 /home/bob/ofiles/libcss-select-properties-color.o
 .rdata         0x0000000000178080       0x80 /home/bob/ofiles/libcss-select-properties-column_count.o
 .rdata         0x0000000000178100       0x80 /home/bob/ofiles/libcss-select-properties-column_fill.o
 .rdata         0x0000000000178180       0x80 /home/bob/ofiles/libcss-select-properties-column_gap.o
 .rdata         0x0000000000178200       0x80 /home/bob/ofiles/libcss-select-properties-column_rule_color.o
 .rdata         0x0000000000178280       0x80 /home/bob/ofiles/libcss-select-properties-column_rule_style.o
 .rdata         0x0000000000178300       0x80 /home/bob/ofiles/libcss-select-properties-column_rule_width.o
 .rdata         0x0000000000178380       0x80 /home/bob/ofiles/libcss-select-properties-column_span.o
 .rdata         0x0000000000178400       0x80 /home/bob/ofiles/libcss-select-properties-column_width.o
 .rdata         0x0000000000178480      0x120 /home/bob/ofiles/libcss-select-properties-content.o
 .rdata         0x00000000001785a0      0x120 /home/bob/ofiles/libcss-select-properties-counter_increment.o
 .rdata         0x00000000001786c0      0x120 /home/bob/ofiles/libcss-select-properties-counter_reset.o
 .rdata         0x00000000001787e0       0x80 /home/bob/ofiles/libcss-select-properties-cue_after.o
 .rdata         0x0000000000178860       0x80 /home/bob/ofiles/libcss-select-properties-cue_before.o
 .rdata         0x00000000001788e0      0x120 /home/bob/ofiles/libcss-select-properties-cursor.o
 .rdata         0x0000000000178a00       0x80 /home/bob/ofiles/libcss-select-properties-direction.o
 .rdata         0x0000000000178a80       0xc0 /home/bob/ofiles/libcss-select-properties-display.o
 .rdata         0x0000000000178b40       0x80 /home/bob/ofiles/libcss-select-properties-elevation.o
 .rdata         0x0000000000178bc0       0x80 /home/bob/ofiles/libcss-select-properties-empty_cells.o
 .rdata         0x0000000000178c40       0x80 /home/bob/ofiles/libcss-select-properties-float.o
 .rdata         0x0000000000178cc0      0x100 /home/bob/ofiles/libcss-select-properties-font_family.o
 .rdata         0x0000000000178dc0       0x80 /home/bob/ofiles/libcss-select-properties-font_size.o
 .rdata         0x0000000000178e40       0x80 /home/bob/ofiles/libcss-select-properties-font_style.o
 .rdata         0x0000000000178ec0       0x80 /home/bob/ofiles/libcss-select-properties-font_variant.o
 .rdata         0x0000000000178f40       0xa0 /home/bob/ofiles/libcss-select-properties-font_weight.o
 .rdata         0x0000000000178fe0       0x80 /home/bob/ofiles/libcss-select-properties-height.o
 .rdata         0x0000000000179060       0xe0 /home/bob/ofiles/libcss-select-properties-helpers.o
 .rdata         0x0000000000179140       0x80 /home/bob/ofiles/libcss-select-properties-left.o
 .rdata         0x00000000001791c0       0x80 /home/bob/ofiles/libcss-select-properties-letter_spacing.o
 .rdata         0x0000000000179240       0x80 /home/bob/ofiles/libcss-select-properties-line_height.o
 .rdata         0x00000000001792c0      0x120 /home/bob/ofiles/libcss-select-properties-list_style_image.o
 .rdata         0x00000000001793e0       0x80 /home/bob/ofiles/libcss-select-properties-list_style_position.o
 .rdata         0x0000000000179460       0xc0 /home/bob/ofiles/libcss-select-properties-list_style_type.o
 .rdata         0x0000000000179520       0x80 /home/bob/ofiles/libcss-select-properties-margin_bottom.o
 .rdata         0x00000000001795a0       0x80 /home/bob/ofiles/libcss-select-properties-margin_left.o
 .rdata         0x0000000000179620       0x80 /home/bob/ofiles/libcss-select-properties-margin_right.o
 .rdata         0x00000000001796a0       0x80 /home/bob/ofiles/libcss-select-properties-margin_top.o
 .rdata         0x0000000000179720       0x80 /home/bob/ofiles/libcss-select-properties-max_height.o
 .rdata         0x00000000001797a0       0x80 /home/bob/ofiles/libcss-select-properties-max_width.o
 .rdata         0x0000000000179820       0x80 /home/bob/ofiles/libcss-select-properties-min_height.o
 .rdata         0x00000000001798a0       0x80 /home/bob/ofiles/libcss-select-properties-min_width.o
 .rdata         0x0000000000179920       0x80 /home/bob/ofiles/libcss-select-properties-opacity.o
 .rdata         0x00000000001799a0       0x80 /home/bob/ofiles/libcss-select-properties-orphans.o
 .rdata         0x0000000000179a20       0x80 /home/bob/ofiles/libcss-select-properties-outline_color.o
 .rdata         0x0000000000179aa0       0x80 /home/bob/ofiles/libcss-select-properties-outline_style.o
 .rdata         0x0000000000179b20       0x80 /home/bob/ofiles/libcss-select-properties-outline_width.o
 .rdata         0x0000000000179ba0       0x80 /home/bob/ofiles/libcss-select-properties-overflow_x.o
 .rdata         0x0000000000179c20       0x80 /home/bob/ofiles/libcss-select-properties-overflow_y.o
 .rdata         0x0000000000179ca0       0x80 /home/bob/ofiles/libcss-select-properties-padding_bottom.o
 .rdata         0x0000000000179d20       0x80 /home/bob/ofiles/libcss-select-properties-padding_left.o
 .rdata         0x0000000000179da0       0x80 /home/bob/ofiles/libcss-select-properties-padding_right.o
 .rdata         0x0000000000179e20       0x80 /home/bob/ofiles/libcss-select-properties-padding_top.o
 .rdata         0x0000000000179ea0       0x80 /home/bob/ofiles/libcss-select-properties-page_break_after.o
 .rdata         0x0000000000179f20       0x80 /home/bob/ofiles/libcss-select-properties-page_break_before.o
 .rdata         0x0000000000179fa0       0x80 /home/bob/ofiles/libcss-select-properties-page_break_inside.o
 .rdata         0x000000000017a020       0x80 /home/bob/ofiles/libcss-select-properties-pause_after.o
 .rdata         0x000000000017a0a0       0x80 /home/bob/ofiles/libcss-select-properties-pause_before.o
 .rdata         0x000000000017a120       0x80 /home/bob/ofiles/libcss-select-properties-pitch.o
 .rdata         0x000000000017a1a0       0x80 /home/bob/ofiles/libcss-select-properties-pitch_range.o
 .rdata         0x000000000017a220       0x80 /home/bob/ofiles/libcss-select-properties-play_during.o
 .rdata         0x000000000017a2a0       0x80 /home/bob/ofiles/libcss-select-properties-position.o
 .rdata         0x000000000017a320       0xe0 /home/bob/ofiles/libcss-select-properties-quotes.o
 .rdata         0x000000000017a400       0x80 /home/bob/ofiles/libcss-select-properties-richness.o
 .rdata         0x000000000017a480       0x80 /home/bob/ofiles/libcss-select-properties-right.o
 .rdata         0x000000000017a500       0x80 /home/bob/ofiles/libcss-select-properties-speak.o
 .rdata         0x000000000017a580       0x80 /home/bob/ofiles/libcss-select-properties-speak_header.o
 .rdata         0x000000000017a600       0x80 /home/bob/ofiles/libcss-select-properties-speak_numeral.o
 .rdata         0x000000000017a680       0x80 /home/bob/ofiles/libcss-select-properties-speak_punctuation.o
 .rdata         0x000000000017a700       0x80 /home/bob/ofiles/libcss-select-properties-speech_rate.o
 .rdata         0x000000000017a780       0x80 /home/bob/ofiles/libcss-select-properties-stress.o
 .rdata         0x000000000017a800       0x80 /home/bob/ofiles/libcss-select-properties-table_layout.o
 .rdata         0x000000000017a880       0xa0 /home/bob/ofiles/libcss-select-properties-text_align.o
 .rdata         0x000000000017a920       0xc0 /home/bob/ofiles/libcss-select-properties-text_decoration.o
 .rdata         0x000000000017a9e0       0x80 /home/bob/ofiles/libcss-select-properties-text_indent.o
 .rdata         0x000000000017aa60       0x80 /home/bob/ofiles/libcss-select-properties-text_transform.o
 .rdata         0x000000000017aae0       0x80 /home/bob/ofiles/libcss-select-properties-top.o
 .rdata         0x000000000017ab60       0x80 /home/bob/ofiles/libcss-select-properties-unicode_bidi.o
 .rdata         0x000000000017abe0       0x80 /home/bob/ofiles/libcss-select-properties-vertical_align.o
 .rdata         0x000000000017ac60       0x80 /home/bob/ofiles/libcss-select-properties-visibility.o
 .rdata         0x000000000017ace0       0x80 /home/bob/ofiles/libcss-select-properties-voice_family.o
 .rdata         0x000000000017ad60       0x80 /home/bob/ofiles/libcss-select-properties-volume.o
 .rdata         0x000000000017ade0       0x80 /home/bob/ofiles/libcss-select-properties-white_space.o
 .rdata         0x000000000017ae60       0x80 /home/bob/ofiles/libcss-select-properties-widows.o
 .rdata         0x000000000017aee0       0x80 /home/bob/ofiles/libcss-select-properties-width.o
 .rdata         0x000000000017af60       0x80 /home/bob/ofiles/libcss-select-properties-word_spacing.o
 .rdata         0x000000000017afe0       0x80 /home/bob/ofiles/libcss-select-properties-writing_mode.o
 .rdata         0x000000000017b060       0x80 /home/bob/ofiles/libcss-select-properties-z_index.o
 .rdata         0x000000000017b0e0      0x2a0 /home/bob/ofiles/libcss-select-select.o
 .rdata         0x000000000017b380      0x500 /home/bob/ofiles/libcss-stylesheet.o
 .rdata         0x000000000017b880       0xd0 /home/bob/ofiles/libcss-utils-errors.o
 .rdata         0x000000000017b950       0x3c /home/bob/ofiles/libcss-utils-utils.o
 .rdata         0x000000000017b98c      0x348 /home/bob/ofiles/libdom-bindings-parser.o
 .rdata         0x000000000017bcd4       0x54 /home/bob/ofiles/libdom-core-characterdata.o
 .rdata         0x000000000017bd28       0xe8 /home/bob/ofiles/libdom-core-document.o
 .rdata         0x000000000017be10       0x74 /home/bob/ofiles/libdom-core-document_type.o
 *fill*         0x000000000017be84       0x1c 
 .rdata         0x000000000017bea0      0x280 /home/bob/ofiles/libdom-core-element.o
 .rdata         0x000000000017c120      0x200 /home/bob/ofiles/libdom-core-namednodemap.o
 .rdata         0x000000000017c320      0x3dc /home/bob/ofiles/libdom-core-node.o
 .rdata         0x000000000017c6fc       0xf4 /home/bob/ofiles/libdom-core-nodelist.o
 *fill*         0x000000000017c7f0       0x10 
 .rdata         0x000000000017c800      0x120 /home/bob/ofiles/libdom-core-string.o
 .rdata         0x000000000017c920       0xa0 /home/bob/ofiles/libdom-core-text.o
 .rdata         0x000000000017c9c0       0xc0 /home/bob/ofiles/libdom-events-dispatch.o
 .rdata         0x000000000017ca80      0x160 /home/bob/ofiles/libdom-events-document_event.o
 .rdata         0x000000000017cbe0       0x54 /home/bob/ofiles/libdom-events-event_target.o
 .rdata         0x000000000017cc34       0x38 /home/bob/ofiles/libdom-events-keyboard_event.o
 .rdata         0x000000000017cc6c       0x38 /home/bob/ofiles/libdom-events-mouse_event.o
 .rdata         0x000000000017cca4       0x70 /home/bob/ofiles/libdom-html-html_anchor_element.o
 .rdata         0x000000000017cd14       0x10 /home/bob/ofiles/libdom-html-html_applet_element.o
 .rdata         0x000000000017cd24       0x10 /home/bob/ofiles/libdom-html-html_area_element.o
 .rdata         0x000000000017cd34        0x8 /home/bob/ofiles/libdom-html-html_base_element.o
 .rdata         0x000000000017cd3c        0x8 /home/bob/ofiles/libdom-html-html_basefont_element.o
 .rdata         0x000000000017cd44       0x14 /home/bob/ofiles/libdom-html-html_button_element.o
 *fill*         0x000000000017cd58        0x8 
 .rdata         0x000000000017cd60       0x60 /home/bob/ofiles/libdom-html-html_collection.o
 .rdata         0x000000000017cdc0        0x8 /home/bob/ofiles/libdom-html-html_directory_element.o
 .rdata         0x000000000017cdc8        0x8 /home/bob/ofiles/libdom-html-html_dlist_element.o
 .rdata         0x000000000017cdd0      0x404 /home/bob/ofiles/libdom-html-html_document.o
 *fill*         0x000000000017d1d4        0xc 
 .rdata         0x000000000017d1e0       0x80 /home/bob/ofiles/libdom-html-html_element.o
 .rdata         0x000000000017d260      0x120 /home/bob/ofiles/libdom-html-html_form_element.o
 .rdata         0x000000000017d380        0xc /home/bob/ofiles/libdom-html-html_frame_element.o
 .rdata         0x000000000017d38c        0x8 /home/bob/ofiles/libdom-html-html_hr_element.o
 .rdata         0x000000000017d394       0x24 /home/bob/ofiles/libdom-html-html_image_element.o
 .rdata         0x000000000017d3b8       0xd0 /home/bob/ofiles/libdom-html-html_input_element.o
 .rdata         0x000000000017d488        0x8 /home/bob/ofiles/libdom-html-html_legend_element.o
 .rdata         0x000000000017d490        0x8 /home/bob/ofiles/libdom-html-html_li_element.o
 .rdata         0x000000000017d498        0xc /home/bob/ofiles/libdom-html-html_link_element.o
 .rdata         0x000000000017d4a4        0x8 /home/bob/ofiles/libdom-html-html_menu_element.o
 .rdata         0x000000000017d4ac       0x20 /home/bob/ofiles/libdom-html-html_object_element.o
 .rdata         0x000000000017d4cc       0x10 /home/bob/ofiles/libdom-html-html_olist_element.o
 .rdata         0x000000000017d4dc        0xc /home/bob/ofiles/libdom-html-html_opt_group_element.o
 *fill*         0x000000000017d4e8       0x18 
 .rdata         0x000000000017d500       0x80 /home/bob/ofiles/libdom-html-html_option_element.o
 .rdata         0x000000000017d580        0x8 /home/bob/ofiles/libdom-html-html_options_collection.o
 .rdata         0x000000000017d588        0x8 /home/bob/ofiles/libdom-html-html_pre_element.o
 .rdata         0x000000000017d590        0xc /home/bob/ofiles/libdom-html-html_script_element.o
 *fill*         0x000000000017d59c        0x4 
 .rdata         0x000000000017d5a0       0xe0 /home/bob/ofiles/libdom-html-html_select_element.o
 .rdata         0x000000000017d680       0x10 /home/bob/ofiles/libdom-html-html_style_element.o
 .rdata         0x000000000017d690       0x18 /home/bob/ofiles/libdom-html-html_tablecell_element.o
 .rdata         0x000000000017d6a8        0x8 /home/bob/ofiles/libdom-html-html_tablecol_element.o
 *fill*         0x000000000017d6b0       0x10 
 .rdata         0x000000000017d6c0      0x100 /home/bob/ofiles/libdom-html-html_text_area_element.o
 .rdata         0x000000000017d7c0       0xa0 /home/bob/ofiles/libdom-html-html_title_element.o
 .rdata         0x000000000017d860        0x8 /home/bob/ofiles/libdom-html-html_ulist_element.o
 *fill*         0x000000000017d868       0x18 
 .rdata         0x000000000017d880      0xa80 /home/bob/ofiles/libdom-utils-character_valid.o
                0x000000000017ded0                base_char_group
                0x000000000017def0                char_group
                0x000000000017e1f8                combining_char_group
                0x000000000017e278                digit_char_group
                0x000000000017e2d8                extender_group
                0x000000000017e2f8                ideographic_group
 .rdata         0x000000000017e300       0xcc /home/bob/ofiles/libdom-utils-namespace.o
 .rdata         0x000000000017e3cc      0x164 /home/bob/ofiles/libhubbub-charset-detect.o
 .rdata         0x000000000017e530       0x6c /home/bob/ofiles/libhubbub-parser.o
 *fill*         0x000000000017e59c        0x4 
 .rdata         0x000000000017e5a0      0xb20 /home/bob/ofiles/libhubbub-tokeniser-tokeniser.o
 .rdata         0x000000000017f0c0       0x18 /home/bob/ofiles/libhubbub-treebuilder-after_after_body.o
 .rdata         0x000000000017f0d8       0x18 /home/bob/ofiles/libhubbub-treebuilder-after_after_frameset.o
 .rdata         0x000000000017f0f0       0x18 /home/bob/ofiles/libhubbub-treebuilder-after_body.o
 .rdata         0x000000000017f108       0x18 /home/bob/ofiles/libhubbub-treebuilder-after_frameset.o
 .rdata         0x000000000017f120       0x20 /home/bob/ofiles/libhubbub-treebuilder-after_head.o
 .rdata         0x000000000017f140       0x20 /home/bob/ofiles/libhubbub-treebuilder-before_head.o
 .rdata         0x000000000017f160       0x20 /home/bob/ofiles/libhubbub-treebuilder-before_html.o
 .rdata         0x000000000017f180       0x54 /home/bob/ofiles/libhubbub-treebuilder-generic_rcdata.o
 *fill*         0x000000000017f1d4        0xc 
 .rdata         0x000000000017f1e0      0x2c0 /home/bob/ofiles/libhubbub-treebuilder-in_body.o
 .rdata         0x000000000017f4a0       0x18 /home/bob/ofiles/libhubbub-treebuilder-in_caption.o
 .rdata         0x000000000017f4b8       0x18 /home/bob/ofiles/libhubbub-treebuilder-in_cell.o
 .rdata         0x000000000017f4d0       0x18 /home/bob/ofiles/libhubbub-treebuilder-in_column_group.o
 *fill*         0x000000000017f4e8       0x18 
 .rdata         0x000000000017f500      0xf80 /home/bob/ofiles/libhubbub-treebuilder-in_foreign_content.o
 .rdata         0x0000000000180480       0x18 /home/bob/ofiles/libhubbub-treebuilder-in_frameset.o
 .rdata         0x0000000000180498       0xa8 /home/bob/ofiles/libhubbub-treebuilder-in_head.o
 .rdata         0x0000000000180540       0x18 /home/bob/ofiles/libhubbub-treebuilder-in_head_noscript.o
 .rdata         0x0000000000180558       0x18 /home/bob/ofiles/libhubbub-treebuilder-in_row.o
 .rdata         0x0000000000180570       0x18 /home/bob/ofiles/libhubbub-treebuilder-in_select.o
 .rdata         0x0000000000180588       0x30 /home/bob/ofiles/libhubbub-treebuilder-in_table.o
 .rdata         0x00000000001805b8       0x1c /home/bob/ofiles/libhubbub-treebuilder-in_table_body.o
 .rdata         0x00000000001805d4      0x93c /home/bob/ofiles/libhubbub-treebuilder-initial.o
 *fill*         0x0000000000180f10       0x10 
 .rdata         0x0000000000180f20      0xb00 /home/bob/ofiles/libhubbub-treebuilder-treebuilder.o
 .rdata         0x0000000000181a20       0xfc /home/bob/ofiles/libhubbub-utils-errors.o
 .rdata         0x0000000000181b1c       0x24 /home/bob/ofiles/libnsbmp-libnsbmp.o
 .rdata         0x0000000000181b40       0xd8 /home/bob/ofiles/libnsgif-libnsgif.o
 .rdata         0x0000000000181c18     0x2dd8 /home/bob/ofiles/libparserutils-charset-aliases.o
 .rdata         0x00000000001849f0      0x14c /home/bob/ofiles/libparserutils-charset-codecs-codec_8859.o
                0x0000000000184b00                charset_8859_codec_handler
 .rdata         0x0000000000184b3c       0x84 /home/bob/ofiles/libparserutils-charset-codecs-codec_ascii.o
                0x0000000000184b9c                charset_ascii_codec_handler
 .rdata         0x0000000000184bc0      0x114 /home/bob/ofiles/libparserutils-charset-codecs-codec_ext8.o
                0x0000000000184c98                charset_ext8_codec_handler
 .rdata         0x0000000000184cd4       0xe8 /home/bob/ofiles/libparserutils-charset-codecs-codec_utf16.o
                0x0000000000184d60                charset_utf16_codec_handler
 .rdata         0x0000000000184dbc       0xe8 /home/bob/ofiles/libparserutils-charset-codecs-codec_utf8.o
                0x0000000000184e48                charset_utf8_codec_handler
 *fill*         0x0000000000184ea4       0x1c 
 .rdata         0x0000000000184ec0      0x100 /home/bob/ofiles/libparserutils-charset-encodings-utf8.o
                0x0000000000184ec0                numContinuations
 .rdata         0x0000000000184fc0        0x8 /home/bob/ofiles/libparserutils-input-filter.o
 *fill*         0x0000000000184fc8       0x18 
 .rdata         0x0000000000184fe0       0xc0 /home/bob/ofiles/libparserutils-input-inputstream.o
 .rdata         0x00000000001850a0      0x134 /home/bob/ofiles/libparserutils-utils-errors.o
 .rdata         0x00000000001851d4        0xc /home/bob/ofiles/libparserutils-utils-stack.o
 .rdata         0x00000000001851e0        0xc /home/bob/ofiles/libparserutils-utils-vector.o
 *fill*         0x00000000001851ec       0x14 
 .rdata         0x0000000000185200    0x6b340 /home/bob/ofiles/libutf8proc-utf8proc.o
                0x0000000000185200                utf8proc_sequences
                0x00000000001905c0                utf8proc_stage1table
                0x00000000001927c0                utf8proc_stage2table
                0x000000000019ddc0                utf8proc_properties
                0x00000000001da360                utf8proc_combinations
                0x00000000001f0300                utf8proc_utf8class
 .rdata         0x00000000001f0540       0xb0 /home/bob/ofiles/libwapcaplet-libwapcaplet.o
 .rdata         0x00000000001f05f0      0x150 /home/autobuild/tools/win32/lib/libz.a(gzlib.o)
 .rdata         0x00000000001f0740       0xb4 /home/autobuild/tools/win32/lib/libz.a(gzread.o)
 *fill*         0x00000000001f07f4        0xc 
 .rdata         0x00000000001f0800      0xb20 /home/autobuild/tools/win32/lib/libz.a(inflate.o)
 .rdata         0x00000000001f1320       0x64 /home/autobuild/tools/win32/lib/libz.a(gzwrite.o)
 *fill*         0x00000000001f1384       0x1c 
 .rdata         0x00000000001f13a0       0xc0 /home/autobuild/tools/win32/lib/libz.a(zutil.o)
                0x00000000001f1420                z_errmsg
 .rdata         0x00000000001f1460     0x2000 /home/autobuild/tools/win32/lib/libz.a(crc32.o)
 .rdata         0x00000000001f3460      0x140 /home/autobuild/tools/win32/lib/libz.a(inftrees.o)
                0x00000000001f3560                inflate_copyright
 .rdata         0x00000000001f35a0       0x50 /home/autobuild/tools/win32/lib/libz.a(inffast.o)
 *fill*         0x00000000001f35f0       0x10 
 .rdata         0x00000000001f3600       0xe0 /home/autobuild/tools/win32/lib/libz.a(deflate.o)
                0x00000000001f3680                deflate_copyright
 .rdata         0x00000000001f36e0      0xa80 /home/autobuild/tools/win32/lib/libz.a(trees.o)
                0x00000000001f37e0                _length_code
                0x00000000001f38e0                _dist_code
 .rdata         0x00000000001f4160       0x18 /home/autobuild/tools/win32/lib/libapp.a(crtloader.o)
 *fill*         0x00000000001f4178        0x8 
 .rdata         0x00000000001f4180       0x50 ../../inst/lib/libnsfb.a(src_plot_generic.o)
 *fill*         0x00000000001f41d0       0x10 
 .rdata         0x00000000001f41e0       0x60 ../../inst/lib/libnsfb.a(src_plot_16bpp.o)
                0x00000000001f41e0                _nsfb_16bpp_plotters
 .rdata         0x00000000001f4240       0x60 ../../inst/lib/libnsfb.a(src_plot_32bpp-xrgb8888.o)
                0x00000000001f4240                _nsfb_32bpp_xrgb8888_plotters
 .rdata         0x00000000001f42a0       0x60 ../../inst/lib/libnsfb.a(src_plot_32bpp-xbgr8888.o)
                0x00000000001f42a0                _nsfb_32bpp_xbgr8888_plotters
 .rdata         0x00000000001f4300       0x60 ../../inst/lib/libnsfb.a(src_plot_8bpp.o)
                0x00000000001f4300                _nsfb_8bpp_plotters
 *(SORT(.rdata$*))
 .rdata$zzz     0x00000000001f4360       0x14 content_content.o
 .rdata$zzz     0x00000000001f4374       0x14 content_content_factory.o
 .rdata$zzz     0x00000000001f4388       0x14 content_dirlist.o
 .rdata$zzz     0x00000000001f439c       0x14 content_fetch.o
 .rdata$zzz     0x00000000001f43b0       0x14 content_fetchers_about.o
 .rdata$zzz     0x00000000001f43c4       0x14 content_fetchers_data.o
 .rdata$zzz     0x00000000001f43d8       0x14 content_fetchers_file.o
 .rdata$zzz     0x00000000001f43ec       0x14 content_fetchers_http_kolibri.o
 .rdata$zzz     0x00000000001f4400       0x14 content_fetchers_resource.o
 .rdata$zzz     0x00000000001f4414       0x14 content_hlcache.o
 .rdata$zzz     0x00000000001f4428       0x14 content_llcache.o
 .rdata$zzz     0x00000000001f443c       0x14 content_mimesniff.o
 .rdata$zzz     0x00000000001f4450       0x14 content_no_backing_store.o
 .rdata$zzz     0x00000000001f4464       0x14 content_urldb.o
 .rdata$zzz     0x00000000001f4478       0x14 css_css.o
 .rdata$zzz     0x00000000001f448c       0x14 css_dump.o
 .rdata$zzz     0x00000000001f44a0       0x14 css_internal.o
 .rdata$zzz     0x00000000001f44b4       0x14 css_select.o
 .rdata$zzz     0x00000000001f44c8       0x14 css_utils.o
 .rdata$zzz     0x00000000001f44dc       0x14 desktop_browser.o
 .rdata$zzz     0x00000000001f44f0       0x14 desktop_browser_history.o
 .rdata$zzz     0x00000000001f4504       0x14 desktop_cookie_manager.o
 .rdata$zzz     0x00000000001f4518       0x14 desktop_download.o
 .rdata$zzz     0x00000000001f452c       0x14 desktop_font_haru.o
 .rdata$zzz     0x00000000001f4540       0x14 desktop_frames.o
 .rdata$zzz     0x00000000001f4554       0x14 desktop_global_history.o
 .rdata$zzz     0x00000000001f4568       0x14 desktop_gui_factory.o
 .rdata$zzz     0x00000000001f457c       0x14 desktop_hotlist.o
 .rdata$zzz     0x00000000001f4590       0x14 desktop_knockout.o
 .rdata$zzz     0x00000000001f45a4       0x14 desktop_mouse.o
 .rdata$zzz     0x00000000001f45b8       0x14 desktop_netsurf.o
 .rdata$zzz     0x00000000001f45cc       0x14 desktop_plot_style.o
 .rdata$zzz     0x00000000001f45e0       0x14 desktop_print.o
 .rdata$zzz     0x00000000001f45f4       0x14 desktop_save_complete.o
 .rdata$zzz     0x00000000001f4608       0x14 desktop_save_pdf.o
 .rdata$zzz     0x00000000001f461c       0x14 desktop_save_text.o
 .rdata$zzz     0x00000000001f4630       0x14 desktop_scrollbar.o
 .rdata$zzz     0x00000000001f4644       0x14 desktop_search.o
 .rdata$zzz     0x00000000001f4658       0x14 desktop_searchweb.o
 .rdata$zzz     0x00000000001f466c       0x14 desktop_selection.o
 .rdata$zzz     0x00000000001f4680       0x14 desktop_sslcert_viewer.o
 .rdata$zzz     0x00000000001f4694       0x14 desktop_system_colour.o
 .rdata$zzz     0x00000000001f46a8       0x14 desktop_textarea.o
 .rdata$zzz     0x00000000001f46bc       0x14 desktop_textinput.o
 .rdata$zzz     0x00000000001f46d0       0x14 desktop_tree.o
 .rdata$zzz     0x00000000001f46e4       0x14 desktop_treeview.o
 .rdata$zzz     0x00000000001f46f8       0x14 desktop_version.o
 .rdata$zzz     0x00000000001f470c       0x14 image_image.o
 .rdata$zzz     0x00000000001f4720       0x14 image_image_cache.o
 .rdata$zzz     0x00000000001f4734       0x14 javascript_fetcher.o
 .rdata$zzz     0x00000000001f4748       0x14 javascript_none_none.o
 .rdata$zzz     0x00000000001f475c       0x14 kolibrios_fb_bitmap.o
 .rdata$zzz     0x00000000001f4770       0x14 kolibrios_fb_clipboard.o
 .rdata$zzz     0x00000000001f4784       0x14 kolibrios_fb_fbtk_bitmap.o
 .rdata$zzz     0x00000000001f4798       0x14 kolibrios_fb_fbtk_event.o
 .rdata$zzz     0x00000000001f47ac       0x14 kolibrios_fb_fbtk_fbtk.o
 .rdata$zzz     0x00000000001f47c0       0x14 kolibrios_fb_fbtk_fill.o
 .rdata$zzz     0x00000000001f47d4       0x14 kolibrios_fb_fbtk_osk.o
 .rdata$zzz     0x00000000001f47e8       0x14 kolibrios_fb_fbtk_scroll.o
 .rdata$zzz     0x00000000001f47fc       0x14 kolibrios_fb_fbtk_text.o
 .rdata$zzz     0x00000000001f4810       0x14 kolibrios_fb_fbtk_user.o
 .rdata$zzz     0x00000000001f4824       0x14 kolibrios_fb_fbtk_window.o
 .rdata$zzz     0x00000000001f4838       0x14 kolibrios_fb_fetch.o
 .rdata$zzz     0x00000000001f484c       0x14 kolibrios_fb_findfile.o
 .rdata$zzz     0x00000000001f4860       0x14 kolibrios_fb_font_freetype.o
 .rdata$zzz     0x00000000001f4874       0x14 kolibrios_fb_framebuffer.o
 .rdata$zzz     0x00000000001f4888       0x14 kolibrios_fb_gui.o
 .rdata$zzz     0x00000000001f489c       0x14 kolibrios_fb_localhistory.o
 .rdata$zzz     0x00000000001f48b0       0x14 kolibrios_fb_misc.o
 .rdata$zzz     0x00000000001f48c4       0x14 kolibrios_fb_schedule.o
 .rdata$zzz     0x00000000001f48d8       0x14 kolibrios_kolibri_debug.o
 .rdata$zzz     0x00000000001f48ec       0x14 kolibrios_kolibri_filesystem.o
 .rdata$zzz     0x00000000001f4900       0x14 kolibrios_kolibri_http.o
 .rdata$zzz     0x00000000001f4914       0x14 kolibrios_kolibri_iconv.o
 .rdata$zzz     0x00000000001f4928       0x14 kolibrios_kolibri_misc.o
 .rdata$zzz     0x00000000001f493c       0x14 kolibrios_kolibri_regex.o
 .rdata$zzz     0x00000000001f4950       0x14 kolibrios_main.o
 .rdata$zzz     0x00000000001f4964       0x14 render_box.o
 .rdata$zzz     0x00000000001f4978       0x14 render_box_construct.o
 .rdata$zzz     0x00000000001f498c       0x14 render_box_normalise.o
 .rdata$zzz     0x00000000001f49a0       0x14 render_box_textarea.o
 .rdata$zzz     0x00000000001f49b4       0x14 render_font.o
 .rdata$zzz     0x00000000001f49c8       0x14 render_form.o
 .rdata$zzz     0x00000000001f49dc       0x14 render_html.o
 .rdata$zzz     0x00000000001f49f0       0x14 render_html_css.o
 .rdata$zzz     0x00000000001f4a04       0x14 render_html_css_fetcher.o
 .rdata$zzz     0x00000000001f4a18       0x14 render_html_forms.o
 .rdata$zzz     0x00000000001f4a2c       0x14 render_html_interaction.o
 .rdata$zzz     0x00000000001f4a40       0x14 render_html_object.o
 .rdata$zzz     0x00000000001f4a54       0x14 render_html_redraw.o
 .rdata$zzz     0x00000000001f4a68       0x14 render_html_script.o
 .rdata$zzz     0x00000000001f4a7c       0x14 render_imagemap.o
 .rdata$zzz     0x00000000001f4a90       0x14 render_layout.o
 .rdata$zzz     0x00000000001f4aa4       0x14 render_search.o
 .rdata$zzz     0x00000000001f4ab8       0x14 render_table.o
 .rdata$zzz     0x00000000001f4acc       0x14 render_textplain.o
 .rdata$zzz     0x00000000001f4ae0       0x14 utils_base64.o
 .rdata$zzz     0x00000000001f4af4       0x14 utils_bloom.o
 .rdata$zzz     0x00000000001f4b08       0x14 utils_corestrings.o
 .rdata$zzz     0x00000000001f4b1c       0x14 utils_file.o
 .rdata$zzz     0x00000000001f4b30       0x14 utils_filename.o
 .rdata$zzz     0x00000000001f4b44       0x14 utils_filepath.o
 .rdata$zzz     0x00000000001f4b58       0x14 utils_hashtable.o
 .rdata$zzz     0x00000000001f4b6c       0x14 utils_http_challenge.o
 .rdata$zzz     0x00000000001f4b80       0x14 utils_http_content-disposition.o
 .rdata$zzz     0x00000000001f4b94       0x14 utils_http_content-type.o
 .rdata$zzz     0x00000000001f4ba8       0x14 utils_http_generics.o
 .rdata$zzz     0x00000000001f4bbc       0x14 utils_http_parameter.o
 .rdata$zzz     0x00000000001f4bd0       0x14 utils_http_primitives.o
 .rdata$zzz     0x00000000001f4be4       0x14 utils_http_www-authenticate.o
 .rdata$zzz     0x00000000001f4bf8       0x14 utils_idna.o
 .rdata$zzz     0x00000000001f4c0c       0x14 utils_libdom.o
 .rdata$zzz     0x00000000001f4c20       0x14 utils_locale.o
 .rdata$zzz     0x00000000001f4c34       0x14 utils_log.o
 .rdata$zzz     0x00000000001f4c48       0x14 utils_messages.o
 .rdata$zzz     0x00000000001f4c5c       0x14 utils_nsoption.o
 .rdata$zzz     0x00000000001f4c70       0x14 utils_nsurl.o
 .rdata$zzz     0x00000000001f4c84       0x14 utils_punycode.o
 .rdata$zzz     0x00000000001f4c98       0x14 utils_talloc.o
 .rdata$zzz     0x00000000001f4cac       0x14 utils_url.o
 .rdata$zzz     0x00000000001f4cc0       0x14 utils_useragent.o
 .rdata$zzz     0x00000000001f4cd4       0x14 utils_utf8.o
 .rdata$zzz     0x00000000001f4ce8       0x14 utils_utils.o
 .rdata$zzz     0x00000000001f4cfc       0x14 /home/bob/ofiles/libcss-charset-detect.o
 .rdata$zzz     0x00000000001f4d10       0x14 /home/bob/ofiles/libcss-lex-lex.o
 .rdata$zzz     0x00000000001f4d24       0x14 /home/bob/ofiles/libcss-parse-font_face.o
 .rdata$zzz     0x00000000001f4d38       0x14 /home/bob/ofiles/libcss-parse-important.o
 .rdata$zzz     0x00000000001f4d4c       0x14 /home/bob/ofiles/libcss-parse-language.o
 .rdata$zzz     0x00000000001f4d60       0x14 /home/bob/ofiles/libcss-parse-parse.o
 .rdata$zzz     0x00000000001f4d74       0x14 /home/bob/ofiles/libcss-parse-properties-autogenerated_background_attachment.o
 .rdata$zzz     0x00000000001f4d88       0x14 /home/bob/ofiles/libcss-parse-properties-autogenerated_background_color.o
 .rdata$zzz     0x00000000001f4d9c       0x14 /home/bob/ofiles/libcss-parse-properties-autogenerated_background_image.o
 .rdata$zzz     0x00000000001f4db0       0x14 /home/bob/ofiles/libcss-parse-properties-autogenerated_background_repeat.o
 .rdata$zzz     0x00000000001f4dc4       0x14 /home/bob/ofiles/libcss-parse-properties-autogenerated_border_bottom.o
 .rdata$zzz     0x00000000001f4dd8       0x14 /home/bob/ofiles/libcss-parse-properties-autogenerated_border_bottom_color.o
 .rdata$zzz     0x00000000001f4dec       0x14 /home/bob/ofiles/libcss-parse-properties-autogenerated_border_bottom_style.o
 .rdata$zzz     0x00000000001f4e00       0x14 /home/bob/ofiles/libcss-parse-properties-autogenerated_border_bottom_width.o
 .rdata$zzz     0x00000000001f4e14       0x14 /home/bob/ofiles/libcss-parse-properties-autogenerated_border_collapse.o
 .rdata$zzz     0x00000000001f4e28       0x14 /home/bob/ofiles/libcss-parse-properties-autogenerated_border_left.o
 .rdata$zzz     0x00000000001f4e3c       0x14 /home/bob/ofiles/libcss-parse-properties-autogenerated_border_left_color.o
 .rdata$zzz     0x00000000001f4e50       0x14 /home/bob/ofiles/libcss-parse-properties-autogenerated_border_left_style.o
 .rdata$zzz     0x00000000001f4e64       0x14 /home/bob/ofiles/libcss-parse-properties-autogenerated_border_left_width.o
 .rdata$zzz     0x00000000001f4e78       0x14 /home/bob/ofiles/libcss-parse-properties-autogenerated_border_right.o
 .rdata$zzz     0x00000000001f4e8c       0x14 /home/bob/ofiles/libcss-parse-properties-autogenerated_border_right_color.o
 .rdata$zzz     0x00000000001f4ea0       0x14 /home/bob/ofiles/libcss-parse-properties-autogenerated_border_right_style.o
 .rdata$zzz     0x00000000001f4eb4       0x14 /home/bob/ofiles/libcss-parse-properties-autogenerated_border_right_width.o
 .rdata$zzz     0x00000000001f4ec8       0x14 /home/bob/ofiles/libcss-parse-properties-autogenerated_border_side_color.o
 .rdata$zzz     0x00000000001f4edc       0x14 /home/bob/ofiles/libcss-parse-properties-autogenerated_border_side_style.o
 .rdata$zzz     0x00000000001f4ef0       0x14 /home/bob/ofiles/libcss-parse-properties-autogenerated_border_side_width.o
 .rdata$zzz     0x00000000001f4f04       0x14 /home/bob/ofiles/libcss-parse-properties-autogenerated_border_top.o
 .rdata$zzz     0x00000000001f4f18       0x14 /home/bob/ofiles/libcss-parse-properties-autogenerated_border_top_color.o
 .rdata$zzz     0x00000000001f4f2c       0x14 /home/bob/ofiles/libcss-parse-properties-autogenerated_border_top_style.o
 .rdata$zzz     0x00000000001f4f40       0x14 /home/bob/ofiles/libcss-parse-properties-autogenerated_border_top_width.o
 .rdata$zzz     0x00000000001f4f54       0x14 /home/bob/ofiles/libcss-parse-properties-autogenerated_bottom.o
 .rdata$zzz     0x00000000001f4f68       0x14 /home/bob/ofiles/libcss-parse-properties-autogenerated_break_after.o
 .rdata$zzz     0x00000000001f4f7c       0x14 /home/bob/ofiles/libcss-parse-properties-autogenerated_break_before.o
 .rdata$zzz     0x00000000001f4f90       0x14 /home/bob/ofiles/libcss-parse-properties-autogenerated_break_inside.o
 .rdata$zzz     0x00000000001f4fa4       0x14 /home/bob/ofiles/libcss-parse-properties-autogenerated_caption_side.o
 .rdata$zzz     0x00000000001f4fb8       0x14 /home/bob/ofiles/libcss-parse-properties-autogenerated_clear.o
 .rdata$zzz     0x00000000001f4fcc       0x14 /home/bob/ofiles/libcss-parse-properties-autogenerated_color.o
 .rdata$zzz     0x00000000001f4fe0       0x14 /home/bob/ofiles/libcss-parse-properties-autogenerated_column_count.o
 .rdata$zzz     0x00000000001f4ff4       0x14 /home/bob/ofiles/libcss-parse-properties-autogenerated_column_fill.o
 .rdata$zzz     0x00000000001f5008       0x14 /home/bob/ofiles/libcss-parse-properties-autogenerated_column_gap.o
 .rdata$zzz     0x00000000001f501c       0x14 /home/bob/ofiles/libcss-parse-properties-autogenerated_column_rule_color.o
 .rdata$zzz     0x00000000001f5030       0x14 /home/bob/ofiles/libcss-parse-properties-autogenerated_column_rule_style.o
 .rdata$zzz     0x00000000001f5044       0x14 /home/bob/ofiles/libcss-parse-properties-autogenerated_column_rule_width.o
 .rdata$zzz     0x00000000001f5058       0x14 /home/bob/ofiles/libcss-parse-properties-autogenerated_column_span.o
 .rdata$zzz     0x00000000001f506c       0x14 /home/bob/ofiles/libcss-parse-properties-autogenerated_column_width.o
 .rdata$zzz     0x00000000001f5080       0x14 /home/bob/ofiles/libcss-parse-properties-autogenerated_counter_increment.o
 .rdata$zzz     0x00000000001f5094       0x14 /home/bob/ofiles/libcss-parse-properties-autogenerated_counter_reset.o
 .rdata$zzz     0x00000000001f50a8       0x14 /home/bob/ofiles/libcss-parse-properties-autogenerated_cue_after.o
 .rdata$zzz     0x00000000001f50bc       0x14 /home/bob/ofiles/libcss-parse-properties-autogenerated_cue_before.o
 .rdata$zzz     0x00000000001f50d0       0x14 /home/bob/ofiles/libcss-parse-properties-autogenerated_direction.o
 .rdata$zzz     0x00000000001f50e4       0x14 /home/bob/ofiles/libcss-parse-properties-autogenerated_display.o
 .rdata$zzz     0x00000000001f50f8       0x14 /home/bob/ofiles/libcss-parse-properties-autogenerated_empty_cells.o
 .rdata$zzz     0x00000000001f510c       0x14 /home/bob/ofiles/libcss-parse-properties-autogenerated_float.o
 .rdata$zzz     0x00000000001f5120       0x14 /home/bob/ofiles/libcss-parse-properties-autogenerated_font_size.o
 .rdata$zzz     0x00000000001f5134       0x14 /home/bob/ofiles/libcss-parse-properties-autogenerated_font_style.o
 .rdata$zzz     0x00000000001f5148       0x14 /home/bob/ofiles/libcss-parse-properties-autogenerated_font_variant.o
 .rdata$zzz     0x00000000001f515c       0x14 /home/bob/ofiles/libcss-parse-properties-autogenerated_height.o
 .rdata$zzz     0x00000000001f5170       0x14 /home/bob/ofiles/libcss-parse-properties-autogenerated_left.o
 .rdata$zzz     0x00000000001f5184       0x14 /home/bob/ofiles/libcss-parse-properties-autogenerated_letter_spacing.o
 .rdata$zzz     0x00000000001f5198       0x14 /home/bob/ofiles/libcss-parse-properties-autogenerated_line_height.o
 .rdata$zzz     0x00000000001f51ac       0x14 /home/bob/ofiles/libcss-parse-properties-autogenerated_list_style_image.o
 .rdata$zzz     0x00000000001f51c0       0x14 /home/bob/ofiles/libcss-parse-properties-autogenerated_list_style_position.o
 .rdata$zzz     0x00000000001f51d4       0x14 /home/bob/ofiles/libcss-parse-properties-autogenerated_margin_bottom.o
 .rdata$zzz     0x00000000001f51e8       0x14 /home/bob/ofiles/libcss-parse-properties-autogenerated_margin_left.o
 .rdata$zzz     0x00000000001f51fc       0x14 /home/bob/ofiles/libcss-parse-properties-autogenerated_margin_right.o
 .rdata$zzz     0x00000000001f5210       0x14 /home/bob/ofiles/libcss-parse-properties-autogenerated_margin_side.o
 .rdata$zzz     0x00000000001f5224       0x14 /home/bob/ofiles/libcss-parse-properties-autogenerated_margin_top.o
 .rdata$zzz     0x00000000001f5238       0x14 /home/bob/ofiles/libcss-parse-properties-autogenerated_max_height.o
 .rdata$zzz     0x00000000001f524c       0x14 /home/bob/ofiles/libcss-parse-properties-autogenerated_max_width.o
 .rdata$zzz     0x00000000001f5260       0x14 /home/bob/ofiles/libcss-parse-properties-autogenerated_min_height.o
 .rdata$zzz     0x00000000001f5274       0x14 /home/bob/ofiles/libcss-parse-properties-autogenerated_min_width.o
 .rdata$zzz     0x00000000001f5288       0x14 /home/bob/ofiles/libcss-parse-properties-autogenerated_orphans.o
 .rdata$zzz     0x00000000001f529c       0x14 /home/bob/ofiles/libcss-parse-properties-autogenerated_outline_color.o
 .rdata$zzz     0x00000000001f52b0       0x14 /home/bob/ofiles/libcss-parse-properties-autogenerated_outline_style.o
 .rdata$zzz     0x00000000001f52c4       0x14 /home/bob/ofiles/libcss-parse-properties-autogenerated_outline_width.o
 .rdata$zzz     0x00000000001f52d8       0x14 /home/bob/ofiles/libcss-parse-properties-autogenerated_overflow_x.o
 .rdata$zzz     0x00000000001f52ec       0x14 /home/bob/ofiles/libcss-parse-properties-autogenerated_overflow_y.o
 .rdata$zzz     0x00000000001f5300       0x14 /home/bob/ofiles/libcss-parse-properties-autogenerated_padding_bottom.o
 .rdata$zzz     0x00000000001f5314       0x14 /home/bob/ofiles/libcss-parse-properties-autogenerated_padding_left.o
 .rdata$zzz     0x00000000001f5328       0x14 /home/bob/ofiles/libcss-parse-properties-autogenerated_padding_right.o
 .rdata$zzz     0x00000000001f533c       0x14 /home/bob/ofiles/libcss-parse-properties-autogenerated_padding_side.o
 .rdata$zzz     0x00000000001f5350       0x14 /home/bob/ofiles/libcss-parse-properties-autogenerated_padding_top.o
 .rdata$zzz     0x00000000001f5364       0x14 /home/bob/ofiles/libcss-parse-properties-autogenerated_page_break_after.o
 .rdata$zzz     0x00000000001f5378       0x14 /home/bob/ofiles/libcss-parse-properties-autogenerated_page_break_before.o
 .rdata$zzz     0x00000000001f538c       0x14 /home/bob/ofiles/libcss-parse-properties-autogenerated_page_break_inside.o
 .rdata$zzz     0x00000000001f53a0       0x14 /home/bob/ofiles/libcss-parse-properties-autogenerated_pause_after.o
 .rdata$zzz     0x00000000001f53b4       0x14 /home/bob/ofiles/libcss-parse-properties-autogenerated_pause_before.o
 .rdata$zzz     0x00000000001f53c8       0x14 /home/bob/ofiles/libcss-parse-properties-autogenerated_pitch.o
 .rdata$zzz     0x00000000001f53dc       0x14 /home/bob/ofiles/libcss-parse-properties-autogenerated_pitch_range.o
 .rdata$zzz     0x00000000001f53f0       0x14 /home/bob/ofiles/libcss-parse-properties-autogenerated_position.o
 .rdata$zzz     0x00000000001f5404       0x14 /home/bob/ofiles/libcss-parse-properties-autogenerated_richness.o
 .rdata$zzz     0x00000000001f5418       0x14 /home/bob/ofiles/libcss-parse-properties-autogenerated_right.o
 .rdata$zzz     0x00000000001f542c       0x14 /home/bob/ofiles/libcss-parse-properties-autogenerated_side.o
 .rdata$zzz     0x00000000001f5440       0x14 /home/bob/ofiles/libcss-parse-properties-autogenerated_speak.o
 .rdata$zzz     0x00000000001f5454       0x14 /home/bob/ofiles/libcss-parse-properties-autogenerated_speak_header.o
 .rdata$zzz     0x00000000001f5468       0x14 /home/bob/ofiles/libcss-parse-properties-autogenerated_speak_numeral.o
 .rdata$zzz     0x00000000001f547c       0x14 /home/bob/ofiles/libcss-parse-properties-autogenerated_speak_punctuation.o
 .rdata$zzz     0x00000000001f5490       0x14 /home/bob/ofiles/libcss-parse-properties-autogenerated_speech_rate.o
 .rdata$zzz     0x00000000001f54a4       0x14 /home/bob/ofiles/libcss-parse-properties-autogenerated_stress.o
 .rdata$zzz     0x00000000001f54b8       0x14 /home/bob/ofiles/libcss-parse-properties-autogenerated_table_layout.o
 .rdata$zzz     0x00000000001f54cc       0x14 /home/bob/ofiles/libcss-parse-properties-autogenerated_text_align.o
 .rdata$zzz     0x00000000001f54e0       0x14 /home/bob/ofiles/libcss-parse-properties-autogenerated_text_indent.o
 .rdata$zzz     0x00000000001f54f4       0x14 /home/bob/ofiles/libcss-parse-properties-autogenerated_text_transform.o
 .rdata$zzz     0x00000000001f5508       0x14 /home/bob/ofiles/libcss-parse-properties-autogenerated_top.o
 .rdata$zzz     0x00000000001f551c       0x14 /home/bob/ofiles/libcss-parse-properties-autogenerated_unicode_bidi.o
 .rdata$zzz     0x00000000001f5530       0x14 /home/bob/ofiles/libcss-parse-properties-autogenerated_vertical_align.o
 .rdata$zzz     0x00000000001f5544       0x14 /home/bob/ofiles/libcss-parse-properties-autogenerated_visibility.o
 .rdata$zzz     0x00000000001f5558       0x14 /home/bob/ofiles/libcss-parse-properties-autogenerated_volume.o
 .rdata$zzz     0x00000000001f556c       0x14 /home/bob/ofiles/libcss-parse-properties-autogenerated_white_space.o
 .rdata$zzz     0x00000000001f5580       0x14 /home/bob/ofiles/libcss-parse-properties-autogenerated_widows.o
 .rdata$zzz     0x00000000001f5594       0x14 /home/bob/ofiles/libcss-parse-properties-autogenerated_width.o
 .rdata$zzz     0x00000000001f55a8       0x14 /home/bob/ofiles/libcss-parse-properties-autogenerated_word_spacing.o
 .rdata$zzz     0x00000000001f55bc       0x14 /home/bob/ofiles/libcss-parse-properties-autogenerated_writing_mode.o
 .rdata$zzz     0x00000000001f55d0       0x14 /home/bob/ofiles/libcss-parse-properties-autogenerated_z_index.o
 .rdata$zzz     0x00000000001f55e4       0x14 /home/bob/ofiles/libcss-parse-properties-azimuth.o
 .rdata$zzz     0x00000000001f55f8       0x14 /home/bob/ofiles/libcss-parse-properties-background.o
 .rdata$zzz     0x00000000001f560c       0x14 /home/bob/ofiles/libcss-parse-properties-background_position.o
 .rdata$zzz     0x00000000001f5620       0x14 /home/bob/ofiles/libcss-parse-properties-border.o
 .rdata$zzz     0x00000000001f5634       0x14 /home/bob/ofiles/libcss-parse-properties-border_color.o
 .rdata$zzz     0x00000000001f5648       0x14 /home/bob/ofiles/libcss-parse-properties-border_spacing.o
 .rdata$zzz     0x00000000001f565c       0x14 /home/bob/ofiles/libcss-parse-properties-border_style.o
 .rdata$zzz     0x00000000001f5670       0x14 /home/bob/ofiles/libcss-parse-properties-border_width.o
 .rdata$zzz     0x00000000001f5684       0x14 /home/bob/ofiles/libcss-parse-properties-clip.o
 .rdata$zzz     0x00000000001f5698       0x14 /home/bob/ofiles/libcss-parse-properties-column_rule.o
 .rdata$zzz     0x00000000001f56ac       0x14 /home/bob/ofiles/libcss-parse-properties-columns.o
 .rdata$zzz     0x00000000001f56c0       0x14 /home/bob/ofiles/libcss-parse-properties-content.o
 .rdata$zzz     0x00000000001f56d4       0x14 /home/bob/ofiles/libcss-parse-properties-cue.o
 .rdata$zzz     0x00000000001f56e8       0x14 /home/bob/ofiles/libcss-parse-properties-cursor.o
 .rdata$zzz     0x00000000001f56fc       0x14 /home/bob/ofiles/libcss-parse-properties-elevation.o
 .rdata$zzz     0x00000000001f5710       0x14 /home/bob/ofiles/libcss-parse-properties-font.o
 .rdata$zzz     0x00000000001f5724       0x14 /home/bob/ofiles/libcss-parse-properties-font_family.o
 .rdata$zzz     0x00000000001f5738       0x14 /home/bob/ofiles/libcss-parse-properties-font_weight.o
 .rdata$zzz     0x00000000001f574c       0x14 /home/bob/ofiles/libcss-parse-properties-list_style.o
 .rdata$zzz     0x00000000001f5760       0x14 /home/bob/ofiles/libcss-parse-properties-list_style_type.o
 .rdata$zzz     0x00000000001f5774       0x14 /home/bob/ofiles/libcss-parse-properties-margin.o
 .rdata$zzz     0x00000000001f5788       0x14 /home/bob/ofiles/libcss-parse-properties-opacity.o
 .rdata$zzz     0x00000000001f579c       0x14 /home/bob/ofiles/libcss-parse-properties-outline.o
 .rdata$zzz     0x00000000001f57b0       0x14 /home/bob/ofiles/libcss-parse-properties-overflow.o
 .rdata$zzz     0x00000000001f57c4       0x14 /home/bob/ofiles/libcss-parse-properties-padding.o
 .rdata$zzz     0x00000000001f57d8       0x14 /home/bob/ofiles/libcss-parse-properties-pause.o
 .rdata$zzz     0x00000000001f57ec       0x14 /home/bob/ofiles/libcss-parse-properties-play_during.o
 .rdata$zzz     0x00000000001f5800       0x14 /home/bob/ofiles/libcss-parse-properties-properties.o
 .rdata$zzz     0x00000000001f5814       0x14 /home/bob/ofiles/libcss-parse-properties-quotes.o
 .rdata$zzz     0x00000000001f5828       0x14 /home/bob/ofiles/libcss-parse-properties-text_decoration.o
 .rdata$zzz     0x00000000001f583c       0x14 /home/bob/ofiles/libcss-parse-properties-utils.o
 .rdata$zzz     0x00000000001f5850       0x14 /home/bob/ofiles/libcss-parse-properties-voice_family.o
 .rdata$zzz     0x00000000001f5864       0x14 /home/bob/ofiles/libcss-parse-propstrings.o
 .rdata$zzz     0x00000000001f5878       0x14 /home/bob/ofiles/libcss-select-computed.o
 .rdata$zzz     0x00000000001f588c       0x14 /home/bob/ofiles/libcss-select-dispatch.o
 .rdata$zzz     0x00000000001f58a0       0x14 /home/bob/ofiles/libcss-select-font_face.o
 .rdata$zzz     0x00000000001f58b4       0x14 /home/bob/ofiles/libcss-select-hash.o
 .rdata$zzz     0x00000000001f58c8       0x14 /home/bob/ofiles/libcss-select-properties-azimuth.o
 .rdata$zzz     0x00000000001f58dc       0x14 /home/bob/ofiles/libcss-select-properties-background_attachment.o
 .rdata$zzz     0x00000000001f58f0       0x14 /home/bob/ofiles/libcss-select-properties-background_color.o
 .rdata$zzz     0x00000000001f5904       0x14 /home/bob/ofiles/libcss-select-properties-background_image.o
 .rdata$zzz     0x00000000001f5918       0x14 /home/bob/ofiles/libcss-select-properties-background_position.o
 .rdata$zzz     0x00000000001f592c       0x14 /home/bob/ofiles/libcss-select-properties-background_repeat.o
 .rdata$zzz     0x00000000001f5940       0x14 /home/bob/ofiles/libcss-select-properties-border_bottom_color.o
 .rdata$zzz     0x00000000001f5954       0x14 /home/bob/ofiles/libcss-select-properties-border_bottom_style.o
 .rdata$zzz     0x00000000001f5968       0x14 /home/bob/ofiles/libcss-select-properties-border_bottom_width.o
 .rdata$zzz     0x00000000001f597c       0x14 /home/bob/ofiles/libcss-select-properties-border_collapse.o
 .rdata$zzz     0x00000000001f5990       0x14 /home/bob/ofiles/libcss-select-properties-border_left_color.o
 .rdata$zzz     0x00000000001f59a4       0x14 /home/bob/ofiles/libcss-select-properties-border_left_style.o
 .rdata$zzz     0x00000000001f59b8       0x14 /home/bob/ofiles/libcss-select-properties-border_left_width.o
 .rdata$zzz     0x00000000001f59cc       0x14 /home/bob/ofiles/libcss-select-properties-border_right_color.o
 .rdata$zzz     0x00000000001f59e0       0x14 /home/bob/ofiles/libcss-select-properties-border_right_style.o
 .rdata$zzz     0x00000000001f59f4       0x14 /home/bob/ofiles/libcss-select-properties-border_right_width.o
 .rdata$zzz     0x00000000001f5a08       0x14 /home/bob/ofiles/libcss-select-properties-border_spacing.o
 .rdata$zzz     0x00000000001f5a1c       0x14 /home/bob/ofiles/libcss-select-properties-border_top_color.o
 .rdata$zzz     0x00000000001f5a30       0x14 /home/bob/ofiles/libcss-select-properties-border_top_style.o
 .rdata$zzz     0x00000000001f5a44       0x14 /home/bob/ofiles/libcss-select-properties-border_top_width.o
 .rdata$zzz     0x00000000001f5a58       0x14 /home/bob/ofiles/libcss-select-properties-bottom.o
 .rdata$zzz     0x00000000001f5a6c       0x14 /home/bob/ofiles/libcss-select-properties-break_after.o
 .rdata$zzz     0x00000000001f5a80       0x14 /home/bob/ofiles/libcss-select-properties-break_before.o
 .rdata$zzz     0x00000000001f5a94       0x14 /home/bob/ofiles/libcss-select-properties-break_inside.o
 .rdata$zzz     0x00000000001f5aa8       0x14 /home/bob/ofiles/libcss-select-properties-caption_side.o
 .rdata$zzz     0x00000000001f5abc       0x14 /home/bob/ofiles/libcss-select-properties-clear.o
 .rdata$zzz     0x00000000001f5ad0       0x14 /home/bob/ofiles/libcss-select-properties-clip.o
 .rdata$zzz     0x00000000001f5ae4       0x14 /home/bob/ofiles/libcss-select-properties-color.o
 .rdata$zzz     0x00000000001f5af8       0x14 /home/bob/ofiles/libcss-select-properties-column_count.o
 .rdata$zzz     0x00000000001f5b0c       0x14 /home/bob/ofiles/libcss-select-properties-column_fill.o
 .rdata$zzz     0x00000000001f5b20       0x14 /home/bob/ofiles/libcss-select-properties-column_gap.o
 .rdata$zzz     0x00000000001f5b34       0x14 /home/bob/ofiles/libcss-select-properties-column_rule_color.o
 .rdata$zzz     0x00000000001f5b48       0x14 /home/bob/ofiles/libcss-select-properties-column_rule_style.o
 .rdata$zzz     0x00000000001f5b5c       0x14 /home/bob/ofiles/libcss-select-properties-column_rule_width.o
 .rdata$zzz     0x00000000001f5b70       0x14 /home/bob/ofiles/libcss-select-properties-column_span.o
 .rdata$zzz     0x00000000001f5b84       0x14 /home/bob/ofiles/libcss-select-properties-column_width.o
 .rdata$zzz     0x00000000001f5b98       0x14 /home/bob/ofiles/libcss-select-properties-content.o
 .rdata$zzz     0x00000000001f5bac       0x14 /home/bob/ofiles/libcss-select-properties-counter_increment.o
 .rdata$zzz     0x00000000001f5bc0       0x14 /home/bob/ofiles/libcss-select-properties-counter_reset.o
 .rdata$zzz     0x00000000001f5bd4       0x14 /home/bob/ofiles/libcss-select-properties-cue_after.o
 .rdata$zzz     0x00000000001f5be8       0x14 /home/bob/ofiles/libcss-select-properties-cue_before.o
 .rdata$zzz     0x00000000001f5bfc       0x14 /home/bob/ofiles/libcss-select-properties-cursor.o
 .rdata$zzz     0x00000000001f5c10       0x14 /home/bob/ofiles/libcss-select-properties-direction.o
 .rdata$zzz     0x00000000001f5c24       0x14 /home/bob/ofiles/libcss-select-properties-display.o
 .rdata$zzz     0x00000000001f5c38       0x14 /home/bob/ofiles/libcss-select-properties-elevation.o
 .rdata$zzz     0x00000000001f5c4c       0x14 /home/bob/ofiles/libcss-select-properties-empty_cells.o
 .rdata$zzz     0x00000000001f5c60       0x14 /home/bob/ofiles/libcss-select-properties-float.o
 .rdata$zzz     0x00000000001f5c74       0x14 /home/bob/ofiles/libcss-select-properties-font_family.o
 .rdata$zzz     0x00000000001f5c88       0x14 /home/bob/ofiles/libcss-select-properties-font_size.o
 .rdata$zzz     0x00000000001f5c9c       0x14 /home/bob/ofiles/libcss-select-properties-font_style.o
 .rdata$zzz     0x00000000001f5cb0       0x14 /home/bob/ofiles/libcss-select-properties-font_variant.o
 .rdata$zzz     0x00000000001f5cc4       0x14 /home/bob/ofiles/libcss-select-properties-font_weight.o
 .rdata$zzz     0x00000000001f5cd8       0x14 /home/bob/ofiles/libcss-select-properties-height.o
 .rdata$zzz     0x00000000001f5cec       0x14 /home/bob/ofiles/libcss-select-properties-helpers.o
 .rdata$zzz     0x00000000001f5d00       0x14 /home/bob/ofiles/libcss-select-properties-left.o
 .rdata$zzz     0x00000000001f5d14       0x14 /home/bob/ofiles/libcss-select-properties-letter_spacing.o
 .rdata$zzz     0x00000000001f5d28       0x14 /home/bob/ofiles/libcss-select-properties-line_height.o
 .rdata$zzz     0x00000000001f5d3c       0x14 /home/bob/ofiles/libcss-select-properties-list_style_image.o
 .rdata$zzz     0x00000000001f5d50       0x14 /home/bob/ofiles/libcss-select-properties-list_style_position.o
 .rdata$zzz     0x00000000001f5d64       0x14 /home/bob/ofiles/libcss-select-properties-list_style_type.o
 .rdata$zzz     0x00000000001f5d78       0x14 /home/bob/ofiles/libcss-select-properties-margin_bottom.o
 .rdata$zzz     0x00000000001f5d8c       0x14 /home/bob/ofiles/libcss-select-properties-margin_left.o
 .rdata$zzz     0x00000000001f5da0       0x14 /home/bob/ofiles/libcss-select-properties-margin_right.o
 .rdata$zzz     0x00000000001f5db4       0x14 /home/bob/ofiles/libcss-select-properties-margin_top.o
 .rdata$zzz     0x00000000001f5dc8       0x14 /home/bob/ofiles/libcss-select-properties-max_height.o
 .rdata$zzz     0x00000000001f5ddc       0x14 /home/bob/ofiles/libcss-select-properties-max_width.o
 .rdata$zzz     0x00000000001f5df0       0x14 /home/bob/ofiles/libcss-select-properties-min_height.o
 .rdata$zzz     0x00000000001f5e04       0x14 /home/bob/ofiles/libcss-select-properties-min_width.o
 .rdata$zzz     0x00000000001f5e18       0x14 /home/bob/ofiles/libcss-select-properties-opacity.o
 .rdata$zzz     0x00000000001f5e2c       0x14 /home/bob/ofiles/libcss-select-properties-orphans.o
 .rdata$zzz     0x00000000001f5e40       0x14 /home/bob/ofiles/libcss-select-properties-outline_color.o
 .rdata$zzz     0x00000000001f5e54       0x14 /home/bob/ofiles/libcss-select-properties-outline_style.o
 .rdata$zzz     0x00000000001f5e68       0x14 /home/bob/ofiles/libcss-select-properties-outline_width.o
 .rdata$zzz     0x00000000001f5e7c       0x14 /home/bob/ofiles/libcss-select-properties-overflow_x.o
 .rdata$zzz     0x00000000001f5e90       0x14 /home/bob/ofiles/libcss-select-properties-overflow_y.o
 .rdata$zzz     0x00000000001f5ea4       0x14 /home/bob/ofiles/libcss-select-properties-padding_bottom.o
 .rdata$zzz     0x00000000001f5eb8       0x14 /home/bob/ofiles/libcss-select-properties-padding_left.o
 .rdata$zzz     0x00000000001f5ecc       0x14 /home/bob/ofiles/libcss-select-properties-padding_right.o
 .rdata$zzz     0x00000000001f5ee0       0x14 /home/bob/ofiles/libcss-select-properties-padding_top.o
 .rdata$zzz     0x00000000001f5ef4       0x14 /home/bob/ofiles/libcss-select-properties-page_break_after.o
 .rdata$zzz     0x00000000001f5f08       0x14 /home/bob/ofiles/libcss-select-properties-page_break_before.o
 .rdata$zzz     0x00000000001f5f1c       0x14 /home/bob/ofiles/libcss-select-properties-page_break_inside.o
 .rdata$zzz     0x00000000001f5f30       0x14 /home/bob/ofiles/libcss-select-properties-pause_after.o
 .rdata$zzz     0x00000000001f5f44       0x14 /home/bob/ofiles/libcss-select-properties-pause_before.o
 .rdata$zzz     0x00000000001f5f58       0x14 /home/bob/ofiles/libcss-select-properties-pitch.o
 .rdata$zzz     0x00000000001f5f6c       0x14 /home/bob/ofiles/libcss-select-properties-pitch_range.o
 .rdata$zzz     0x00000000001f5f80       0x14 /home/bob/ofiles/libcss-select-properties-play_during.o
 .rdata$zzz     0x00000000001f5f94       0x14 /home/bob/ofiles/libcss-select-properties-position.o
 .rdata$zzz     0x00000000001f5fa8       0x14 /home/bob/ofiles/libcss-select-properties-quotes.o
 .rdata$zzz     0x00000000001f5fbc       0x14 /home/bob/ofiles/libcss-select-properties-richness.o
 .rdata$zzz     0x00000000001f5fd0       0x14 /home/bob/ofiles/libcss-select-properties-right.o
 .rdata$zzz     0x00000000001f5fe4       0x14 /home/bob/ofiles/libcss-select-properties-speak.o
 .rdata$zzz     0x00000000001f5ff8       0x14 /home/bob/ofiles/libcss-select-properties-speak_header.o
 .rdata$zzz     0x00000000001f600c       0x14 /home/bob/ofiles/libcss-select-properties-speak_numeral.o
 .rdata$zzz     0x00000000001f6020       0x14 /home/bob/ofiles/libcss-select-properties-speak_punctuation.o
 .rdata$zzz     0x00000000001f6034       0x14 /home/bob/ofiles/libcss-select-properties-speech_rate.o
 .rdata$zzz     0x00000000001f6048       0x14 /home/bob/ofiles/libcss-select-properties-stress.o
 .rdata$zzz     0x00000000001f605c       0x14 /home/bob/ofiles/libcss-select-properties-table_layout.o
 .rdata$zzz     0x00000000001f6070       0x14 /home/bob/ofiles/libcss-select-properties-text_align.o
 .rdata$zzz     0x00000000001f6084       0x14 /home/bob/ofiles/libcss-select-properties-text_decoration.o
 .rdata$zzz     0x00000000001f6098       0x14 /home/bob/ofiles/libcss-select-properties-text_indent.o
 .rdata$zzz     0x00000000001f60ac       0x14 /home/bob/ofiles/libcss-select-properties-text_transform.o
 .rdata$zzz     0x00000000001f60c0       0x14 /home/bob/ofiles/libcss-select-properties-top.o
 .rdata$zzz     0x00000000001f60d4       0x14 /home/bob/ofiles/libcss-select-properties-unicode_bidi.o
 .rdata$zzz     0x00000000001f60e8       0x14 /home/bob/ofiles/libcss-select-properties-vertical_align.o
 .rdata$zzz     0x00000000001f60fc       0x14 /home/bob/ofiles/libcss-select-properties-visibility.o
 .rdata$zzz     0x00000000001f6110       0x14 /home/bob/ofiles/libcss-select-properties-voice_family.o
 .rdata$zzz     0x00000000001f6124       0x14 /home/bob/ofiles/libcss-select-properties-volume.o
 .rdata$zzz     0x00000000001f6138       0x14 /home/bob/ofiles/libcss-select-properties-white_space.o
 .rdata$zzz     0x00000000001f614c       0x14 /home/bob/ofiles/libcss-select-properties-widows.o
 .rdata$zzz     0x00000000001f6160       0x14 /home/bob/ofiles/libcss-select-properties-width.o
 .rdata$zzz     0x00000000001f6174       0x14 /home/bob/ofiles/libcss-select-properties-word_spacing.o
 .rdata$zzz     0x00000000001f6188       0x14 /home/bob/ofiles/libcss-select-properties-writing_mode.o
 .rdata$zzz     0x00000000001f619c       0x14 /home/bob/ofiles/libcss-select-properties-z_index.o
 .rdata$zzz     0x00000000001f61b0       0x14 /home/bob/ofiles/libcss-select-select.o
 .rdata$zzz     0x00000000001f61c4       0x14 /home/bob/ofiles/libcss-stylesheet.o
 .rdata$zzz     0x00000000001f61d8       0x14 /home/bob/ofiles/libcss-utils-errors.o
 .rdata$zzz     0x00000000001f61ec       0x14 /home/bob/ofiles/libcss-utils-utils.o
 .rdata$zzz     0x00000000001f6200       0x14 /home/bob/ofiles/libdom-bindings-parser.o
 .rdata$zzz     0x00000000001f6214       0x14 /home/bob/ofiles/libdom-core-attr.o
 .rdata$zzz     0x00000000001f6228       0x14 /home/bob/ofiles/libdom-core-cdatasection.o
 .rdata$zzz     0x00000000001f623c       0x14 /home/bob/ofiles/libdom-core-characterdata.o
 .rdata$zzz     0x00000000001f6250       0x14 /home/bob/ofiles/libdom-core-comment.o
 .rdata$zzz     0x00000000001f6264       0x14 /home/bob/ofiles/libdom-core-doc_fragment.o
 .rdata$zzz     0x00000000001f6278       0x14 /home/bob/ofiles/libdom-core-document.o
 .rdata$zzz     0x00000000001f628c       0x14 /home/bob/ofiles/libdom-core-document_type.o
 .rdata$zzz     0x00000000001f62a0       0x14 /home/bob/ofiles/libdom-core-element.o
 .rdata$zzz     0x00000000001f62b4       0x14 /home/bob/ofiles/libdom-core-entity_ref.o
 .rdata$zzz     0x00000000001f62c8       0x14 /home/bob/ofiles/libdom-core-implementation.o
 .rdata$zzz     0x00000000001f62dc       0x14 /home/bob/ofiles/libdom-core-namednodemap.o
 .rdata$zzz     0x00000000001f62f0       0x14 /home/bob/ofiles/libdom-core-node.o
 .rdata$zzz     0x00000000001f6304       0x14 /home/bob/ofiles/libdom-core-nodelist.o
 .rdata$zzz     0x00000000001f6318       0x14 /home/bob/ofiles/libdom-core-pi.o
 .rdata$zzz     0x00000000001f632c       0x14 /home/bob/ofiles/libdom-core-string.o
 .rdata$zzz     0x00000000001f6340       0x14 /home/bob/ofiles/libdom-core-text.o
 .rdata$zzz     0x00000000001f6354       0x14 /home/bob/ofiles/libdom-core-typeinfo.o
 .rdata$zzz     0x00000000001f6368       0x14 /home/bob/ofiles/libdom-events-custom_event.o
 .rdata$zzz     0x00000000001f637c       0x14 /home/bob/ofiles/libdom-events-dispatch.o
 .rdata$zzz     0x00000000001f6390       0x14 /home/bob/ofiles/libdom-events-document_event.o
 .rdata$zzz     0x00000000001f63a4       0x14 /home/bob/ofiles/libdom-events-event.o
 .rdata$zzz     0x00000000001f63b8       0x14 /home/bob/ofiles/libdom-events-event_listener.o
 .rdata$zzz     0x00000000001f63cc       0x14 /home/bob/ofiles/libdom-events-event_target.o
 .rdata$zzz     0x00000000001f63e0       0x14 /home/bob/ofiles/libdom-events-keyboard_event.o
 .rdata$zzz     0x00000000001f63f4       0x14 /home/bob/ofiles/libdom-events-mouse_event.o
 .rdata$zzz     0x00000000001f6408       0x14 /home/bob/ofiles/libdom-events-mouse_multi_wheel_event.o
 .rdata$zzz     0x00000000001f641c       0x14 /home/bob/ofiles/libdom-events-mouse_wheel_event.o
 .rdata$zzz     0x00000000001f6430       0x14 /home/bob/ofiles/libdom-events-mutation_event.o
 .rdata$zzz     0x00000000001f6444       0x14 /home/bob/ofiles/libdom-events-mutation_name_event.o
 .rdata$zzz     0x00000000001f6458       0x14 /home/bob/ofiles/libdom-events-text_event.o
 .rdata$zzz     0x00000000001f646c       0x14 /home/bob/ofiles/libdom-events-ui_event.o
 .rdata$zzz     0x00000000001f6480       0x14 /home/bob/ofiles/libdom-html-html_anchor_element.o
 .rdata$zzz     0x00000000001f6494       0x14 /home/bob/ofiles/libdom-html-html_applet_element.o
 .rdata$zzz     0x00000000001f64a8       0x14 /home/bob/ofiles/libdom-html-html_area_element.o
 .rdata$zzz     0x00000000001f64bc       0x14 /home/bob/ofiles/libdom-html-html_base_element.o
 .rdata$zzz     0x00000000001f64d0       0x14 /home/bob/ofiles/libdom-html-html_basefont_element.o
 .rdata$zzz     0x00000000001f64e4       0x14 /home/bob/ofiles/libdom-html-html_body_element.o
 .rdata$zzz     0x00000000001f64f8       0x14 /home/bob/ofiles/libdom-html-html_br_element.o
 .rdata$zzz     0x00000000001f650c       0x14 /home/bob/ofiles/libdom-html-html_button_element.o
 .rdata$zzz     0x00000000001f6520       0x14 /home/bob/ofiles/libdom-html-html_collection.o
 .rdata$zzz     0x00000000001f6534       0x14 /home/bob/ofiles/libdom-html-html_directory_element.o
 .rdata$zzz     0x00000000001f6548       0x14 /home/bob/ofiles/libdom-html-html_div_element.o
 .rdata$zzz     0x00000000001f655c       0x14 /home/bob/ofiles/libdom-html-html_dlist_element.o
 .rdata$zzz     0x00000000001f6570       0x14 /home/bob/ofiles/libdom-html-html_document.o
 .rdata$zzz     0x00000000001f6584       0x14 /home/bob/ofiles/libdom-html-html_element.o
 .rdata$zzz     0x00000000001f6598       0x14 /home/bob/ofiles/libdom-html-html_fieldset_element.o
 .rdata$zzz     0x00000000001f65ac       0x14 /home/bob/ofiles/libdom-html-html_font_element.o
 .rdata$zzz     0x00000000001f65c0       0x14 /home/bob/ofiles/libdom-html-html_form_element.o
 .rdata$zzz     0x00000000001f65d4       0x14 /home/bob/ofiles/libdom-html-html_frame_element.o
 .rdata$zzz     0x00000000001f65e8       0x14 /home/bob/ofiles/libdom-html-html_frameset_element.o
 .rdata$zzz     0x00000000001f65fc       0x14 /home/bob/ofiles/libdom-html-html_head_element.o
 .rdata$zzz     0x00000000001f6610       0x14 /home/bob/ofiles/libdom-html-html_heading_element.o
 .rdata$zzz     0x00000000001f6624       0x14 /home/bob/ofiles/libdom-html-html_hr_element.o
 .rdata$zzz     0x00000000001f6638       0x14 /home/bob/ofiles/libdom-html-html_html_element.o
 .rdata$zzz     0x00000000001f664c       0x14 /home/bob/ofiles/libdom-html-html_iframe_element.o
 .rdata$zzz     0x00000000001f6660       0x14 /home/bob/ofiles/libdom-html-html_image_element.o
 .rdata$zzz     0x00000000001f6674       0x14 /home/bob/ofiles/libdom-html-html_input_element.o
 .rdata$zzz     0x00000000001f6688       0x14 /home/bob/ofiles/libdom-html-html_isindex_element.o
 .rdata$zzz     0x00000000001f669c       0x14 /home/bob/ofiles/libdom-html-html_label_element.o
 .rdata$zzz     0x00000000001f66b0       0x14 /home/bob/ofiles/libdom-html-html_legend_element.o
 .rdata$zzz     0x00000000001f66c4       0x14 /home/bob/ofiles/libdom-html-html_li_element.o
 .rdata$zzz     0x00000000001f66d8       0x14 /home/bob/ofiles/libdom-html-html_link_element.o
 .rdata$zzz     0x00000000001f66ec       0x14 /home/bob/ofiles/libdom-html-html_map_element.o
 .rdata$zzz     0x00000000001f6700       0x14 /home/bob/ofiles/libdom-html-html_menu_element.o
 .rdata$zzz     0x00000000001f6714       0x14 /home/bob/ofiles/libdom-html-html_meta_element.o
 .rdata$zzz     0x00000000001f6728       0x14 /home/bob/ofiles/libdom-html-html_mod_element.o
 .rdata$zzz     0x00000000001f673c       0x14 /home/bob/ofiles/libdom-html-html_object_element.o
 .rdata$zzz     0x00000000001f6750       0x14 /home/bob/ofiles/libdom-html-html_olist_element.o
 .rdata$zzz     0x00000000001f6764       0x14 /home/bob/ofiles/libdom-html-html_opt_group_element.o
 .rdata$zzz     0x00000000001f6778       0x14 /home/bob/ofiles/libdom-html-html_option_element.o
 .rdata$zzz     0x00000000001f678c       0x14 /home/bob/ofiles/libdom-html-html_options_collection.o
 .rdata$zzz     0x00000000001f67a0       0x14 /home/bob/ofiles/libdom-html-html_paragraph_element.o
 .rdata$zzz     0x00000000001f67b4       0x14 /home/bob/ofiles/libdom-html-html_param_element.o
 .rdata$zzz     0x00000000001f67c8       0x14 /home/bob/ofiles/libdom-html-html_pre_element.o
 .rdata$zzz     0x00000000001f67dc       0x14 /home/bob/ofiles/libdom-html-html_quote_element.o
 .rdata$zzz     0x00000000001f67f0       0x14 /home/bob/ofiles/libdom-html-html_script_element.o
 .rdata$zzz     0x00000000001f6804       0x14 /home/bob/ofiles/libdom-html-html_select_element.o
 .rdata$zzz     0x00000000001f6818       0x14 /home/bob/ofiles/libdom-html-html_style_element.o
 .rdata$zzz     0x00000000001f682c       0x14 /home/bob/ofiles/libdom-html-html_table_element.o
 .rdata$zzz     0x00000000001f6840       0x14 /home/bob/ofiles/libdom-html-html_tablecaption_element.o
 .rdata$zzz     0x00000000001f6854       0x14 /home/bob/ofiles/libdom-html-html_tablecell_element.o
 .rdata$zzz     0x00000000001f6868       0x14 /home/bob/ofiles/libdom-html-html_tablecol_element.o
 .rdata$zzz     0x00000000001f687c       0x14 /home/bob/ofiles/libdom-html-html_tablerow_element.o
 .rdata$zzz     0x00000000001f6890       0x14 /home/bob/ofiles/libdom-html-html_tablesection_element.o
 .rdata$zzz     0x00000000001f68a4       0x14 /home/bob/ofiles/libdom-html-html_text_area_element.o
 .rdata$zzz     0x00000000001f68b8       0x14 /home/bob/ofiles/libdom-html-html_title_element.o
 .rdata$zzz     0x00000000001f68cc       0x14 /home/bob/ofiles/libdom-html-html_ulist_element.o
 .rdata$zzz     0x00000000001f68e0       0x14 /home/bob/ofiles/libdom-utils-character_valid.o
 .rdata$zzz     0x00000000001f68f4       0x14 /home/bob/ofiles/libdom-utils-hashtable.o
 .rdata$zzz     0x00000000001f6908       0x14 /home/bob/ofiles/libdom-utils-namespace.o
 .rdata$zzz     0x00000000001f691c       0x14 /home/bob/ofiles/libdom-utils-validate.o
 .rdata$zzz     0x00000000001f6930       0x14 /home/bob/ofiles/libhubbub-charset-detect.o
 .rdata$zzz     0x00000000001f6944       0x14 /home/bob/ofiles/libhubbub-parser.o
 .rdata$zzz     0x00000000001f6958       0x14 /home/bob/ofiles/libhubbub-tokeniser-entities.o
 .rdata$zzz     0x00000000001f696c       0x14 /home/bob/ofiles/libhubbub-tokeniser-tokeniser.o
 .rdata$zzz     0x00000000001f6980       0x14 /home/bob/ofiles/libhubbub-treebuilder-after_after_body.o
 .rdata$zzz     0x00000000001f6994       0x14 /home/bob/ofiles/libhubbub-treebuilder-after_after_frameset.o
 .rdata$zzz     0x00000000001f69a8       0x14 /home/bob/ofiles/libhubbub-treebuilder-after_body.o
 .rdata$zzz     0x00000000001f69bc       0x14 /home/bob/ofiles/libhubbub-treebuilder-after_frameset.o
 .rdata$zzz     0x00000000001f69d0       0x14 /home/bob/ofiles/libhubbub-treebuilder-after_head.o
 .rdata$zzz     0x00000000001f69e4       0x14 /home/bob/ofiles/libhubbub-treebuilder-before_head.o
 .rdata$zzz     0x00000000001f69f8       0x14 /home/bob/ofiles/libhubbub-treebuilder-before_html.o
 .rdata$zzz     0x00000000001f6a0c       0x14 /home/bob/ofiles/libhubbub-treebuilder-generic_rcdata.o
 .rdata$zzz     0x00000000001f6a20       0x14 /home/bob/ofiles/libhubbub-treebuilder-in_body.o
 .rdata$zzz     0x00000000001f6a34       0x14 /home/bob/ofiles/libhubbub-treebuilder-in_caption.o
 .rdata$zzz     0x00000000001f6a48       0x14 /home/bob/ofiles/libhubbub-treebuilder-in_cell.o
 .rdata$zzz     0x00000000001f6a5c       0x14 /home/bob/ofiles/libhubbub-treebuilder-in_column_group.o
 .rdata$zzz     0x00000000001f6a70       0x14 /home/bob/ofiles/libhubbub-treebuilder-in_foreign_content.o
 .rdata$zzz     0x00000000001f6a84       0x14 /home/bob/ofiles/libhubbub-treebuilder-in_frameset.o
 .rdata$zzz     0x00000000001f6a98       0x14 /home/bob/ofiles/libhubbub-treebuilder-in_head.o
 .rdata$zzz     0x00000000001f6aac       0x14 /home/bob/ofiles/libhubbub-treebuilder-in_head_noscript.o
 .rdata$zzz     0x00000000001f6ac0       0x14 /home/bob/ofiles/libhubbub-treebuilder-in_row.o
 .rdata$zzz     0x00000000001f6ad4       0x14 /home/bob/ofiles/libhubbub-treebuilder-in_select.o
 .rdata$zzz     0x00000000001f6ae8       0x14 /home/bob/ofiles/libhubbub-treebuilder-in_select_in_table.o
 .rdata$zzz     0x00000000001f6afc       0x14 /home/bob/ofiles/libhubbub-treebuilder-in_table.o
 .rdata$zzz     0x00000000001f6b10       0x14 /home/bob/ofiles/libhubbub-treebuilder-in_table_body.o
 .rdata$zzz     0x00000000001f6b24       0x14 /home/bob/ofiles/libhubbub-treebuilder-initial.o
 .rdata$zzz     0x00000000001f6b38       0x14 /home/bob/ofiles/libhubbub-treebuilder-treebuilder.o
 .rdata$zzz     0x00000000001f6b4c       0x14 /home/bob/ofiles/libhubbub-utils-errors.o
 .rdata$zzz     0x00000000001f6b60       0x14 /home/bob/ofiles/libhubbub-utils-string.o
 .rdata$zzz     0x00000000001f6b74       0x14 /home/bob/ofiles/libnsbmp-libnsbmp.o
 .rdata$zzz     0x00000000001f6b88       0x14 /home/bob/ofiles/libnsgif-libnsgif.o
 .rdata$zzz     0x00000000001f6b9c       0x14 /home/bob/ofiles/libnsutils-base64.o
 .rdata$zzz     0x00000000001f6bb0       0x14 /home/bob/ofiles/libnsutils-time.o
 .rdata$zzz     0x00000000001f6bc4       0x14 /home/bob/ofiles/libnsutils-unistd.o
 .rdata$zzz     0x00000000001f6bd8       0x14 /home/bob/ofiles/libparserutils-charset-aliases.o
 .rdata$zzz     0x00000000001f6bec       0x14 /home/bob/ofiles/libparserutils-charset-codec.o
 .rdata$zzz     0x00000000001f6c00       0x14 /home/bob/ofiles/libparserutils-charset-codecs-codec_8859.o
 .rdata$zzz     0x00000000001f6c14       0x14 /home/bob/ofiles/libparserutils-charset-codecs-codec_ascii.o
 .rdata$zzz     0x00000000001f6c28       0x14 /home/bob/ofiles/libparserutils-charset-codecs-codec_ext8.o
 .rdata$zzz     0x00000000001f6c3c       0x14 /home/bob/ofiles/libparserutils-charset-codecs-codec_utf16.o
 .rdata$zzz     0x00000000001f6c50       0x14 /home/bob/ofiles/libparserutils-charset-codecs-codec_utf8.o
 .rdata$zzz     0x00000000001f6c64       0x14 /home/bob/ofiles/libparserutils-charset-encodings-utf16.o
 .rdata$zzz     0x00000000001f6c78       0x14 /home/bob/ofiles/libparserutils-charset-encodings-utf8.o
 .rdata$zzz     0x00000000001f6c8c       0x14 /home/bob/ofiles/libparserutils-input-filter.o
 .rdata$zzz     0x00000000001f6ca0       0x14 /home/bob/ofiles/libparserutils-input-inputstream.o
 .rdata$zzz     0x00000000001f6cb4       0x14 /home/bob/ofiles/libparserutils-utils-buffer.o
 .rdata$zzz     0x00000000001f6cc8       0x14 /home/bob/ofiles/libparserutils-utils-errors.o
 .rdata$zzz     0x00000000001f6cdc       0x14 /home/bob/ofiles/libparserutils-utils-stack.o
 .rdata$zzz     0x00000000001f6cf0       0x14 /home/bob/ofiles/libparserutils-utils-vector.o
 .rdata$zzz     0x00000000001f6d04       0x14 /home/bob/ofiles/libutf8proc-utf8proc.o
 .rdata$zzz     0x00000000001f6d18       0x14 /home/bob/ofiles/libwapcaplet-libwapcaplet.o
 .rdata$zzz     0x00000000001f6d2c       0x14 /home/autobuild/tools/win32/mingw32/lib/libgcc.a(_udivdi3.o)
 .rdata$zzz     0x00000000001f6d40       0x14 /home/autobuild/tools/win32/mingw32/lib/libgcc.a(_divdi3.o)
 .rdata$zzz     0x00000000001f6d54       0x14 /home/autobuild/tools/win32/mingw32/lib/libgcc.a(__main.o)
 .rdata$zzz     0x00000000001f6d68       0x14 /home/autobuild/tools/win32/mingw32/lib/libgcc.a(_ctors.o)
 .rdata$zzz     0x00000000001f6d7c       0x14 ../../inst/lib/libnsfb.a(src_libnsfb.o)
 .rdata$zzz     0x00000000001f6d90       0x14 ../../inst/lib/libnsfb.a(src_plot_api.o)
 .rdata$zzz     0x00000000001f6da4       0x14 ../../inst/lib/libnsfb.a(src_cursor.o)
 .rdata$zzz     0x00000000001f6db8       0x14 ../../inst/lib/libnsfb.a(src_surface_surface.o)
 .rdata$zzz     0x00000000001f6dcc       0x14 ../../inst/lib/libnsfb.a(src_palette.o)
 .rdata$zzz     0x00000000001f6de0       0x14 ../../inst/lib/libnsfb.a(src_plot_generic.o)
 .rdata$zzz     0x00000000001f6df4       0x14 ../../inst/lib/libnsfb.a(src_plot_16bpp.o)
 .rdata$zzz     0x00000000001f6e08       0x14 ../../inst/lib/libnsfb.a(src_plot_32bpp-xrgb8888.o)
 .rdata$zzz     0x00000000001f6e1c       0x14 ../../inst/lib/libnsfb.a(src_plot_32bpp-xbgr8888.o)
 .rdata$zzz     0x00000000001f6e30       0x14 ../../inst/lib/libnsfb.a(src_plot_8bpp.o)
 .rdata$zzz     0x00000000001f6e44       0x14 ../../inst/lib/libnsfb.a(src_plot_util.o)
                0x00000000001f6e58                ___RUNTIME_PSEUDO_RELOC_LIST__ = .
                0x00000000001f6e58                __RUNTIME_PSEUDO_RELOC_LIST__ = .
 *(.rdata_runtime_pseudo_reloc)
                0x00000000001f6e58                ___RUNTIME_PSEUDO_RELOC_LIST_END__ = .
                0x00000000001f6e58                __RUNTIME_PSEUDO_RELOC_LIST_END__ = .

.eh_frame       0x00000000001f6e60    0x38a00
                0x00000000001f6e60                ___EH_FRAME_BEGIN___ = .
 *(.eh_frame*)
 .eh_frame      0x00000000001f6e60      0x9d4 content_content.o
 .eh_frame      0x00000000001f7834       0xbc content_content_factory.o
 .eh_frame      0x00000000001f78f0      0x17c content_dirlist.o
 .eh_frame      0x00000000001f7a6c      0x380 content_fetch.o
 .eh_frame      0x00000000001f7dec      0x30c content_fetchers_about.o
 .eh_frame      0x00000000001f80f8      0x184 content_fetchers_data.o
 .eh_frame      0x00000000001f827c      0x270 content_fetchers_file.o
 .eh_frame      0x00000000001f84ec      0x198 content_fetchers_http_kolibri.o
 .eh_frame      0x00000000001f8684      0x1e0 content_fetchers_resource.o
 .eh_frame      0x00000000001f8864      0x234 content_hlcache.o
 .eh_frame      0x00000000001f8a98      0x7f8 content_llcache.o
 .eh_frame      0x00000000001f9290      0x1d8 content_mimesniff.o
 .eh_frame      0x00000000001f9468       0xd8 content_no_backing_store.o
 .eh_frame      0x00000000001f9540      0x940 content_urldb.o
 .eh_frame      0x00000000001f9e80      0x2c4 css_css.o
 .eh_frame      0x00000000001fa144       0xc0 css_dump.o
 .eh_frame      0x00000000001fa204       0x40 css_internal.o
 .eh_frame      0x00000000001fa244      0xbd8 css_select.o
 .eh_frame      0x00000000001fae1c       0xcc css_utils.o
 .eh_frame      0x00000000001faee8      0xac8 desktop_browser.o
 .eh_frame      0x00000000001fb9b0      0x3c0 desktop_browser_history.o
 .eh_frame      0x00000000001fbd70      0x334 desktop_cookie_manager.o
 .eh_frame      0x00000000001fc0a4      0x180 desktop_download.o
 .eh_frame      0x00000000001fc224      0x188 desktop_frames.o
 .eh_frame      0x00000000001fc3ac      0x36c desktop_global_history.o
 .eh_frame      0x00000000001fc718      0x6b8 desktop_gui_factory.o
 .eh_frame      0x00000000001fcdd0      0x66c desktop_hotlist.o
 .eh_frame      0x00000000001fd43c      0x260 desktop_knockout.o
 .eh_frame      0x00000000001fd69c       0x48 desktop_mouse.o
 .eh_frame      0x00000000001fd6e4       0xac desktop_netsurf.o
 .eh_frame      0x00000000001fd790      0x140 desktop_print.o
 .eh_frame      0x00000000001fd8d0      0x5dc desktop_save_complete.o
 .eh_frame      0x00000000001fdeac       0x38 desktop_save_pdf.o
 .eh_frame      0x00000000001fdee4       0xb4 desktop_save_text.o
 .eh_frame      0x00000000001fdf98      0x248 desktop_scrollbar.o
 .eh_frame      0x00000000001fe1e0       0x58 desktop_search.o
 .eh_frame      0x00000000001fe238      0x170 desktop_searchweb.o
 .eh_frame      0x00000000001fe3a8      0x324 desktop_selection.o
 .eh_frame      0x00000000001fe6cc      0x244 desktop_sslcert_viewer.o
 .eh_frame      0x00000000001fe910       0x98 desktop_system_colour.o
 .eh_frame      0x00000000001fe9a8      0x5bc desktop_textarea.o
 .eh_frame      0x00000000001fef64       0x80 desktop_textinput.o
 .eh_frame      0x00000000001fefe4      0x244 desktop_tree.o
 .eh_frame      0x00000000001ff228      0x918 desktop_treeview.o
 .eh_frame      0x00000000001ffb40       0x68 image_image.o
 .eh_frame      0x00000000001ffba8      0x314 image_image_cache.o
 .eh_frame      0x00000000001ffebc      0x178 javascript_fetcher.o
 .eh_frame      0x0000000000200034      0x138 javascript_none_none.o
 .eh_frame      0x000000000020016c      0x1c0 kolibrios_fb_bitmap.o
 .eh_frame      0x000000000020032c       0x58 kolibrios_fb_clipboard.o
 .eh_frame      0x0000000000200384       0xa4 kolibrios_fb_fbtk_bitmap.o
 .eh_frame      0x0000000000200428       0xd8 kolibrios_fb_fbtk_event.o
 .eh_frame      0x0000000000200500      0x3a4 kolibrios_fb_fbtk_fbtk.o
 .eh_frame      0x00000000002008a4       0x58 kolibrios_fb_fbtk_fill.o
 .eh_frame      0x00000000002008fc       0xa8 kolibrios_fb_fbtk_osk.o
 .eh_frame      0x00000000002009a4      0x254 kolibrios_fb_fbtk_scroll.o
 .eh_frame      0x0000000000200bf8      0x1e8 kolibrios_fb_fbtk_text.o
 .eh_frame      0x0000000000200de0       0x58 kolibrios_fb_fbtk_user.o
 .eh_frame      0x0000000000200e38       0x58 kolibrios_fb_fbtk_window.o
 .eh_frame      0x0000000000200e90       0x58 kolibrios_fb_fetch.o
 .eh_frame      0x0000000000200ee8       0x38 kolibrios_fb_findfile.o
 .eh_frame      0x0000000000200f20      0x13c kolibrios_fb_font_freetype.o
 .eh_frame      0x000000000020105c      0x21c kolibrios_fb_framebuffer.o
 .eh_frame      0x0000000000201278      0x784 kolibrios_fb_gui.o
 .eh_frame      0x00000000002019fc       0xb0 kolibrios_fb_localhistory.o
 .eh_frame      0x0000000000201aac       0x38 kolibrios_fb_misc.o
 .eh_frame      0x0000000000201ae4      0x120 kolibrios_fb_schedule.o
 .eh_frame      0x0000000000201c04       0x5c kolibrios_kolibri_debug.o
 .eh_frame      0x0000000000201c60      0x158 kolibrios_kolibri_filesystem.o
 .eh_frame      0x0000000000201db8       0x38 kolibrios_kolibri_http.o
 .eh_frame      0x0000000000201df0       0x78 kolibrios_kolibri_iconv.o
 .eh_frame      0x0000000000201e68       0xd8 kolibrios_kolibri_misc.o
 .eh_frame      0x0000000000201f40       0x98 kolibrios_kolibri_regex.o
 .eh_frame      0x0000000000201fd8      0x2f4 kolibrios_main.o
 .eh_frame      0x00000000002022cc      0x344 render_box.o
 .eh_frame      0x0000000000202610      0x784 render_box_construct.o
 .eh_frame      0x0000000000202d94      0x128 render_box_normalise.o
 .eh_frame      0x0000000000202ebc       0x8c render_box_textarea.o
 .eh_frame      0x0000000000202f48       0xec render_font.o
 .eh_frame      0x0000000000203034      0x4ec render_form.o
 .eh_frame      0x0000000000203520      0x890 render_html.o
 .eh_frame      0x0000000000203db0      0x2e4 render_html_css.o
 .eh_frame      0x0000000000204094      0x1c0 render_html_css_fetcher.o
 .eh_frame      0x0000000000204254      0x200 render_html_forms.o
 .eh_frame      0x0000000000204454      0x210 render_html_interaction.o
 .eh_frame      0x0000000000204664      0x1c0 render_html_object.o
 .eh_frame      0x0000000000204824      0x31c render_html_redraw.o
 .eh_frame      0x0000000000204b40      0x240 render_html_script.o
 .eh_frame      0x0000000000204d80      0x2d8 render_imagemap.o
 .eh_frame      0x0000000000205058      0x5ac render_layout.o
 .eh_frame      0x0000000000205604      0x180 render_search.o
 .eh_frame      0x0000000000205784      0x160 render_table.o
 .eh_frame      0x00000000002058e4      0x4e8 render_textplain.o
 .eh_frame      0x0000000000205dcc       0xf0 utils_base64.o
 .eh_frame      0x0000000000205ebc      0x11c utils_bloom.o
 .eh_frame      0x0000000000205fd8       0x78 utils_corestrings.o
 .eh_frame      0x0000000000206050      0x138 utils_file.o
 .eh_frame      0x0000000000206188      0x13c utils_filename.o
 .eh_frame      0x00000000002062c4      0x174 utils_filepath.o
 .eh_frame      0x0000000000206438       0xb8 utils_hashtable.o
 .eh_frame      0x00000000002064f0       0x98 utils_http_challenge.o
 .eh_frame      0x0000000000206588       0x58 utils_http_content-disposition.o
 .eh_frame      0x00000000002065e0       0x60 utils_http_content-type.o
 .eh_frame      0x0000000000206640       0x58 utils_http_generics.o
 .eh_frame      0x0000000000206698       0xb8 utils_http_parameter.o
 .eh_frame      0x0000000000206750       0x98 utils_http_primitives.o
 .eh_frame      0x00000000002067e8       0x58 utils_http_www-authenticate.o
 .eh_frame      0x0000000000206840      0x218 utils_idna.o
 .eh_frame      0x0000000000206a58      0x300 utils_libdom.o
 .eh_frame      0x0000000000206d58      0x1b8 utils_locale.o
 .eh_frame      0x0000000000206f10       0xb8 utils_log.o
 .eh_frame      0x0000000000206fc8      0x118 utils_messages.o
 .eh_frame      0x00000000002070e0      0x230 utils_nsoption.o
 .eh_frame      0x0000000000207310      0x42c utils_nsurl.o
 .eh_frame      0x000000000020773c       0xfc utils_punycode.o
 .eh_frame      0x0000000000207838      0x814 utils_talloc.o
 .eh_frame      0x000000000020804c       0x5c utils_url.o
 .eh_frame      0x00000000002080a8       0x5c utils_useragent.o
 .eh_frame      0x0000000000208104      0x220 utils_utf8.o
 .eh_frame      0x0000000000208324      0x22c utils_utils.o
 .eh_frame      0x0000000000208550       0xb8 /home/bob/ofiles/libcss-charset-detect.o
 .eh_frame      0x0000000000208608      0x520 /home/bob/ofiles/libcss-lex-lex.o
 .eh_frame      0x0000000000208b28      0x164 /home/bob/ofiles/libcss-parse-font_face.o
 .eh_frame      0x0000000000208c8c      0x140 /home/bob/ofiles/libcss-parse-important.o
 .eh_frame      0x0000000000208dcc      0x450 /home/bob/ofiles/libcss-parse-language.o
 .eh_frame      0x000000000020921c      0x5b8 /home/bob/ofiles/libcss-parse-parse.o
 .eh_frame      0x00000000002097d4       0x98 /home/bob/ofiles/libcss-parse-properties-autogenerated_background_attachment.o
 .eh_frame      0x000000000020986c       0x98 /home/bob/ofiles/libcss-parse-properties-autogenerated_background_color.o
 .eh_frame      0x0000000000209904       0xa4 /home/bob/ofiles/libcss-parse-properties-autogenerated_background_image.o
 .eh_frame      0x00000000002099a8       0x98 /home/bob/ofiles/libcss-parse-properties-autogenerated_background_repeat.o
 .eh_frame      0x0000000000209a40       0x38 /home/bob/ofiles/libcss-parse-properties-autogenerated_border_bottom.o
 .eh_frame      0x0000000000209a78       0x38 /home/bob/ofiles/libcss-parse-properties-autogenerated_border_bottom_color.o
 .eh_frame      0x0000000000209ab0       0x38 /home/bob/ofiles/libcss-parse-properties-autogenerated_border_bottom_style.o
 .eh_frame      0x0000000000209ae8       0x38 /home/bob/ofiles/libcss-parse-properties-autogenerated_border_bottom_width.o
 .eh_frame      0x0000000000209b20       0x98 /home/bob/ofiles/libcss-parse-properties-autogenerated_border_collapse.o
 .eh_frame      0x0000000000209bb8       0x38 /home/bob/ofiles/libcss-parse-properties-autogenerated_border_left.o
 .eh_frame      0x0000000000209bf0       0x38 /home/bob/ofiles/libcss-parse-properties-autogenerated_border_left_color.o
 .eh_frame      0x0000000000209c28       0x38 /home/bob/ofiles/libcss-parse-properties-autogenerated_border_left_style.o
 .eh_frame      0x0000000000209c60       0x38 /home/bob/ofiles/libcss-parse-properties-autogenerated_border_left_width.o
 .eh_frame      0x0000000000209c98       0x38 /home/bob/ofiles/libcss-parse-properties-autogenerated_border_right.o
 .eh_frame      0x0000000000209cd0       0x38 /home/bob/ofiles/libcss-parse-properties-autogenerated_border_right_color.o
 .eh_frame      0x0000000000209d08       0x38 /home/bob/ofiles/libcss-parse-properties-autogenerated_border_right_style.o
 .eh_frame      0x0000000000209d40       0x38 /home/bob/ofiles/libcss-parse-properties-autogenerated_border_right_width.o
 .eh_frame      0x0000000000209d78       0x98 /home/bob/ofiles/libcss-parse-properties-autogenerated_border_side_color.o
 .eh_frame      0x0000000000209e10       0x98 /home/bob/ofiles/libcss-parse-properties-autogenerated_border_side_style.o
 .eh_frame      0x0000000000209ea8       0x98 /home/bob/ofiles/libcss-parse-properties-autogenerated_border_side_width.o
 .eh_frame      0x0000000000209f40       0x38 /home/bob/ofiles/libcss-parse-properties-autogenerated_border_top.o
 .eh_frame      0x0000000000209f78       0x38 /home/bob/ofiles/libcss-parse-properties-autogenerated_border_top_color.o
 .eh_frame      0x0000000000209fb0       0x38 /home/bob/ofiles/libcss-parse-properties-autogenerated_border_top_style.o
 .eh_frame      0x0000000000209fe8       0x38 /home/bob/ofiles/libcss-parse-properties-autogenerated_border_top_width.o
 .eh_frame      0x000000000020a020       0x38 /home/bob/ofiles/libcss-parse-properties-autogenerated_bottom.o
 .eh_frame      0x000000000020a058       0x98 /home/bob/ofiles/libcss-parse-properties-autogenerated_break_after.o
 .eh_frame      0x000000000020a0f0       0x98 /home/bob/ofiles/libcss-parse-properties-autogenerated_break_before.o
 .eh_frame      0x000000000020a188       0x98 /home/bob/ofiles/libcss-parse-properties-autogenerated_break_inside.o
 .eh_frame      0x000000000020a220       0x98 /home/bob/ofiles/libcss-parse-properties-autogenerated_caption_side.o
 .eh_frame      0x000000000020a2b8       0x98 /home/bob/ofiles/libcss-parse-properties-autogenerated_clear.o
 .eh_frame      0x000000000020a350       0x98 /home/bob/ofiles/libcss-parse-properties-autogenerated_color.o
 .eh_frame      0x000000000020a3e8       0x98 /home/bob/ofiles/libcss-parse-properties-autogenerated_column_count.o
 .eh_frame      0x000000000020a480       0x98 /home/bob/ofiles/libcss-parse-properties-autogenerated_column_fill.o
 .eh_frame      0x000000000020a518       0x98 /home/bob/ofiles/libcss-parse-properties-autogenerated_column_gap.o
 .eh_frame      0x000000000020a5b0       0x98 /home/bob/ofiles/libcss-parse-properties-autogenerated_column_rule_color.o
 .eh_frame      0x000000000020a648       0x98 /home/bob/ofiles/libcss-parse-properties-autogenerated_column_rule_style.o
 .eh_frame      0x000000000020a6e0       0x38 /home/bob/ofiles/libcss-parse-properties-autogenerated_column_rule_width.o
 .eh_frame      0x000000000020a718       0x98 /home/bob/ofiles/libcss-parse-properties-autogenerated_column_span.o
 .eh_frame      0x000000000020a7b0       0x98 /home/bob/ofiles/libcss-parse-properties-autogenerated_column_width.o
 .eh_frame      0x000000000020a848       0xd8 /home/bob/ofiles/libcss-parse-properties-autogenerated_counter_increment.o
 .eh_frame      0x000000000020a920       0xd8 /home/bob/ofiles/libcss-parse-properties-autogenerated_counter_reset.o
 .eh_frame      0x000000000020a9f8       0xa4 /home/bob/ofiles/libcss-parse-properties-autogenerated_cue_after.o
 .eh_frame      0x000000000020aa9c       0xa4 /home/bob/ofiles/libcss-parse-properties-autogenerated_cue_before.o
 .eh_frame      0x000000000020ab40       0x98 /home/bob/ofiles/libcss-parse-properties-autogenerated_direction.o
 .eh_frame      0x000000000020abd8       0x98 /home/bob/ofiles/libcss-parse-properties-autogenerated_display.o
 .eh_frame      0x000000000020ac70       0x98 /home/bob/ofiles/libcss-parse-properties-autogenerated_empty_cells.o
 .eh_frame      0x000000000020ad08       0x98 /home/bob/ofiles/libcss-parse-properties-autogenerated_float.o
 .eh_frame      0x000000000020ada0       0x98 /home/bob/ofiles/libcss-parse-properties-autogenerated_font_size.o
 .eh_frame      0x000000000020ae38       0x98 /home/bob/ofiles/libcss-parse-properties-autogenerated_font_style.o
 .eh_frame      0x000000000020aed0       0x98 /home/bob/ofiles/libcss-parse-properties-autogenerated_font_variant.o
 .eh_frame      0x000000000020af68       0x98 /home/bob/ofiles/libcss-parse-properties-autogenerated_height.o
 .eh_frame      0x000000000020b000       0x38 /home/bob/ofiles/libcss-parse-properties-autogenerated_left.o
 .eh_frame      0x000000000020b038       0x98 /home/bob/ofiles/libcss-parse-properties-autogenerated_letter_spacing.o
 .eh_frame      0x000000000020b0d0       0x98 /home/bob/ofiles/libcss-parse-properties-autogenerated_line_height.o
 .eh_frame      0x000000000020b168       0xa4 /home/bob/ofiles/libcss-parse-properties-autogenerated_list_style_image.o
 .eh_frame      0x000000000020b20c       0x98 /home/bob/ofiles/libcss-parse-properties-autogenerated_list_style_position.o
 .eh_frame      0x000000000020b2a4       0x38 /home/bob/ofiles/libcss-parse-properties-autogenerated_margin_bottom.o
 .eh_frame      0x000000000020b2dc       0x38 /home/bob/ofiles/libcss-parse-properties-autogenerated_margin_left.o
 .eh_frame      0x000000000020b314       0x38 /home/bob/ofiles/libcss-parse-properties-autogenerated_margin_right.o
 .eh_frame      0x000000000020b34c       0x98 /home/bob/ofiles/libcss-parse-properties-autogenerated_margin_side.o
 .eh_frame      0x000000000020b3e4       0x38 /home/bob/ofiles/libcss-parse-properties-autogenerated_margin_top.o
 .eh_frame      0x000000000020b41c       0x98 /home/bob/ofiles/libcss-parse-properties-autogenerated_max_height.o
 .eh_frame      0x000000000020b4b4       0x98 /home/bob/ofiles/libcss-parse-properties-autogenerated_max_width.o
 .eh_frame      0x000000000020b54c       0x98 /home/bob/ofiles/libcss-parse-properties-autogenerated_min_height.o
 .eh_frame      0x000000000020b5e4       0x98 /home/bob/ofiles/libcss-parse-properties-autogenerated_min_width.o
 .eh_frame      0x000000000020b67c       0x98 /home/bob/ofiles/libcss-parse-properties-autogenerated_orphans.o
 .eh_frame      0x000000000020b714       0x98 /home/bob/ofiles/libcss-parse-properties-autogenerated_outline_color.o
 .eh_frame      0x000000000020b7ac       0x98 /home/bob/ofiles/libcss-parse-properties-autogenerated_outline_style.o
 .eh_frame      0x000000000020b844       0x38 /home/bob/ofiles/libcss-parse-properties-autogenerated_outline_width.o
 .eh_frame      0x000000000020b87c       0x98 /home/bob/ofiles/libcss-parse-properties-autogenerated_overflow_x.o
 .eh_frame      0x000000000020b914       0x98 /home/bob/ofiles/libcss-parse-properties-autogenerated_overflow_y.o
 .eh_frame      0x000000000020b9ac       0x38 /home/bob/ofiles/libcss-parse-properties-autogenerated_padding_bottom.o
 .eh_frame      0x000000000020b9e4       0x38 /home/bob/ofiles/libcss-parse-properties-autogenerated_padding_left.o
 .eh_frame      0x000000000020ba1c       0x38 /home/bob/ofiles/libcss-parse-properties-autogenerated_padding_right.o
 .eh_frame      0x000000000020ba54       0x98 /home/bob/ofiles/libcss-parse-properties-autogenerated_padding_side.o
 .eh_frame      0x000000000020baec       0x38 /home/bob/ofiles/libcss-parse-properties-autogenerated_padding_top.o
 .eh_frame      0x000000000020bb24       0x98 /home/bob/ofiles/libcss-parse-properties-autogenerated_page_break_after.o
 .eh_frame      0x000000000020bbbc       0x98 /home/bob/ofiles/libcss-parse-properties-autogenerated_page_break_before.o
 .eh_frame      0x000000000020bc54       0x98 /home/bob/ofiles/libcss-parse-properties-autogenerated_page_break_inside.o
 .eh_frame      0x000000000020bcec       0x98 /home/bob/ofiles/libcss-parse-properties-autogenerated_pause_after.o
 .eh_frame      0x000000000020bd84       0x98 /home/bob/ofiles/libcss-parse-properties-autogenerated_pause_before.o
 .eh_frame      0x000000000020be1c       0x98 /home/bob/ofiles/libcss-parse-properties-autogenerated_pitch.o
 .eh_frame      0x000000000020beb4       0x98 /home/bob/ofiles/libcss-parse-properties-autogenerated_pitch_range.o
 .eh_frame      0x000000000020bf4c       0x98 /home/bob/ofiles/libcss-parse-properties-autogenerated_position.o
 .eh_frame      0x000000000020bfe4       0x98 /home/bob/ofiles/libcss-parse-properties-autogenerated_richness.o
 .eh_frame      0x000000000020c07c       0x38 /home/bob/ofiles/libcss-parse-properties-autogenerated_right.o
 .eh_frame      0x000000000020c0b4       0x98 /home/bob/ofiles/libcss-parse-properties-autogenerated_side.o
 .eh_frame      0x000000000020c14c       0x98 /home/bob/ofiles/libcss-parse-properties-autogenerated_speak.o
 .eh_frame      0x000000000020c1e4       0x98 /home/bob/ofiles/libcss-parse-properties-autogenerated_speak_header.o
 .eh_frame      0x000000000020c27c       0x98 /home/bob/ofiles/libcss-parse-properties-autogenerated_speak_numeral.o
 .eh_frame      0x000000000020c314       0x98 /home/bob/ofiles/libcss-parse-properties-autogenerated_speak_punctuation.o
 .eh_frame      0x000000000020c3ac       0x98 /home/bob/ofiles/libcss-parse-properties-autogenerated_speech_rate.o
 .eh_frame      0x000000000020c444       0xb8 /home/bob/ofiles/libcss-parse-properties-autogenerated_stress.o
 .eh_frame      0x000000000020c4fc       0x98 /home/bob/ofiles/libcss-parse-properties-autogenerated_table_layout.o
 .eh_frame      0x000000000020c594       0x98 /home/bob/ofiles/libcss-parse-properties-autogenerated_text_align.o
 .eh_frame      0x000000000020c62c       0x98 /home/bob/ofiles/libcss-parse-properties-autogenerated_text_indent.o
 .eh_frame      0x000000000020c6c4       0x98 /home/bob/ofiles/libcss-parse-properties-autogenerated_text_transform.o
 .eh_frame      0x000000000020c75c       0x38 /home/bob/ofiles/libcss-parse-properties-autogenerated_top.o
 .eh_frame      0x000000000020c794       0x98 /home/bob/ofiles/libcss-parse-properties-autogenerated_unicode_bidi.o
 .eh_frame      0x000000000020c82c       0x98 /home/bob/ofiles/libcss-parse-properties-autogenerated_vertical_align.o
 .eh_frame      0x000000000020c8c4       0x98 /home/bob/ofiles/libcss-parse-properties-autogenerated_visibility.o
 .eh_frame      0x000000000020c95c       0x98 /home/bob/ofiles/libcss-parse-properties-autogenerated_volume.o
 .eh_frame      0x000000000020c9f4       0x98 /home/bob/ofiles/libcss-parse-properties-autogenerated_white_space.o
 .eh_frame      0x000000000020ca8c       0x98 /home/bob/ofiles/libcss-parse-properties-autogenerated_widows.o
 .eh_frame      0x000000000020cb24       0x98 /home/bob/ofiles/libcss-parse-properties-autogenerated_width.o
 .eh_frame      0x000000000020cbbc       0x98 /home/bob/ofiles/libcss-parse-properties-autogenerated_word_spacing.o
 .eh_frame      0x000000000020cc54       0x98 /home/bob/ofiles/libcss-parse-properties-autogenerated_writing_mode.o
 .eh_frame      0x000000000020ccec       0x98 /home/bob/ofiles/libcss-parse-properties-autogenerated_z_index.o
 .eh_frame      0x000000000020cd84       0x98 /home/bob/ofiles/libcss-parse-properties-azimuth.o
 .eh_frame      0x000000000020ce1c       0xd8 /home/bob/ofiles/libcss-parse-properties-background.o
 .eh_frame      0x000000000020cef4       0x98 /home/bob/ofiles/libcss-parse-properties-background_position.o
 .eh_frame      0x000000000020cf8c       0x38 /home/bob/ofiles/libcss-parse-properties-border.o
 .eh_frame      0x000000000020cfc4       0xd8 /home/bob/ofiles/libcss-parse-properties-border_color.o
 .eh_frame      0x000000000020d09c       0xa0 /home/bob/ofiles/libcss-parse-properties-border_spacing.o
 .eh_frame      0x000000000020d13c       0xd8 /home/bob/ofiles/libcss-parse-properties-border_style.o
 .eh_frame      0x000000000020d214       0xd8 /home/bob/ofiles/libcss-parse-properties-border_width.o
 .eh_frame      0x000000000020d2ec       0xb8 /home/bob/ofiles/libcss-parse-properties-clip.o
 .eh_frame      0x000000000020d3a4       0xd8 /home/bob/ofiles/libcss-parse-properties-column_rule.o
 .eh_frame      0x000000000020d47c       0xd8 /home/bob/ofiles/libcss-parse-properties-columns.o
 .eh_frame      0x000000000020d554       0xe4 /home/bob/ofiles/libcss-parse-properties-content.o
 .eh_frame      0x000000000020d638       0x78 /home/bob/ofiles/libcss-parse-properties-cue.o
 .eh_frame      0x000000000020d6b0       0xc4 /home/bob/ofiles/libcss-parse-properties-cursor.o
 .eh_frame      0x000000000020d774       0x78 /home/bob/ofiles/libcss-parse-properties-elevation.o
 .eh_frame      0x000000000020d7ec      0x120 /home/bob/ofiles/libcss-parse-properties-font.o
 .eh_frame      0x000000000020d90c       0xb8 /home/bob/ofiles/libcss-parse-properties-font_family.o
 .eh_frame      0x000000000020d9c4       0x78 /home/bob/ofiles/libcss-parse-properties-font_weight.o
 .eh_frame      0x000000000020da3c       0xd8 /home/bob/ofiles/libcss-parse-properties-list_style.o
 .eh_frame      0x000000000020db14       0x78 /home/bob/ofiles/libcss-parse-properties-list_style_type.o
 .eh_frame      0x000000000020db8c       0xd8 /home/bob/ofiles/libcss-parse-properties-margin.o
 .eh_frame      0x000000000020dc64       0xb8 /home/bob/ofiles/libcss-parse-properties-opacity.o
 .eh_frame      0x000000000020dd1c       0xd8 /home/bob/ofiles/libcss-parse-properties-outline.o
 .eh_frame      0x000000000020ddf4       0x98 /home/bob/ofiles/libcss-parse-properties-overflow.o
 .eh_frame      0x000000000020de8c       0xd8 /home/bob/ofiles/libcss-parse-properties-padding.o
 .eh_frame      0x000000000020df64       0x78 /home/bob/ofiles/libcss-parse-properties-pause.o
 .eh_frame      0x000000000020dfdc       0xa4 /home/bob/ofiles/libcss-parse-properties-play_during.o
 .eh_frame      0x000000000020e080       0xb8 /home/bob/ofiles/libcss-parse-properties-quotes.o
 .eh_frame      0x000000000020e138       0xb8 /home/bob/ofiles/libcss-parse-properties-text_decoration.o
 .eh_frame      0x000000000020e1f0      0x390 /home/bob/ofiles/libcss-parse-properties-utils.o
 .eh_frame      0x000000000020e580       0xb8 /home/bob/ofiles/libcss-parse-properties-voice_family.o
 .eh_frame      0x000000000020e638       0x58 /home/bob/ofiles/libcss-parse-propstrings.o
 .eh_frame      0x000000000020e690     0x203c /home/bob/ofiles/libcss-select-computed.o
 .eh_frame      0x00000000002106cc      0x1b8 /home/bob/ofiles/libcss-select-font_face.o
 .eh_frame      0x0000000000210884      0x348 /home/bob/ofiles/libcss-select-hash.o
 .eh_frame      0x0000000000210bcc      0x160 /home/bob/ofiles/libcss-select-properties-azimuth.o
 .eh_frame      0x0000000000210d2c      0x180 /home/bob/ofiles/libcss-select-properties-background_attachment.o
 .eh_frame      0x0000000000210eac       0xd8 /home/bob/ofiles/libcss-select-properties-background_color.o
 .eh_frame      0x0000000000210f84       0xd8 /home/bob/ofiles/libcss-select-properties-background_image.o
 .eh_frame      0x000000000021105c      0x1d4 /home/bob/ofiles/libcss-select-properties-background_position.o
 .eh_frame      0x0000000000211230      0x180 /home/bob/ofiles/libcss-select-properties-background_repeat.o
 .eh_frame      0x00000000002113b0       0xd8 /home/bob/ofiles/libcss-select-properties-border_bottom_color.o
 .eh_frame      0x0000000000211488       0xd8 /home/bob/ofiles/libcss-select-properties-border_bottom_style.o
 .eh_frame      0x0000000000211560       0xd8 /home/bob/ofiles/libcss-select-properties-border_bottom_width.o
 .eh_frame      0x0000000000211638      0x180 /home/bob/ofiles/libcss-select-properties-border_collapse.o
 .eh_frame      0x00000000002117b8       0xd8 /home/bob/ofiles/libcss-select-properties-border_left_color.o
 .eh_frame      0x0000000000211890       0xd8 /home/bob/ofiles/libcss-select-properties-border_left_style.o
 .eh_frame      0x0000000000211968       0xd8 /home/bob/ofiles/libcss-select-properties-border_left_width.o
 .eh_frame      0x0000000000211a40       0xd8 /home/bob/ofiles/libcss-select-properties-border_right_color.o
 .eh_frame      0x0000000000211b18       0xd8 /home/bob/ofiles/libcss-select-properties-border_right_style.o
 .eh_frame      0x0000000000211bf0       0xd8 /home/bob/ofiles/libcss-select-properties-border_right_width.o
 .eh_frame      0x0000000000211cc8      0x198 /home/bob/ofiles/libcss-select-properties-border_spacing.o
 .eh_frame      0x0000000000211e60       0xd8 /home/bob/ofiles/libcss-select-properties-border_top_color.o
 .eh_frame      0x0000000000211f38       0xd8 /home/bob/ofiles/libcss-select-properties-border_top_style.o
 .eh_frame      0x0000000000212010       0xd8 /home/bob/ofiles/libcss-select-properties-border_top_width.o
 .eh_frame      0x00000000002120e8       0xd8 /home/bob/ofiles/libcss-select-properties-bottom.o
 .eh_frame      0x00000000002121c0       0xd8 /home/bob/ofiles/libcss-select-properties-break_after.o
 .eh_frame      0x0000000000212298       0xd8 /home/bob/ofiles/libcss-select-properties-break_before.o
 .eh_frame      0x0000000000212370      0x180 /home/bob/ofiles/libcss-select-properties-break_inside.o
 .eh_frame      0x00000000002124f0      0x180 /home/bob/ofiles/libcss-select-properties-caption_side.o
 .eh_frame      0x0000000000212670      0x180 /home/bob/ofiles/libcss-select-properties-clear.o
 .eh_frame      0x00000000002127f0      0x1b8 /home/bob/ofiles/libcss-select-properties-clip.o
 .eh_frame      0x00000000002129a8      0x1a0 /home/bob/ofiles/libcss-select-properties-color.o
 .eh_frame      0x0000000000212b48      0x1a0 /home/bob/ofiles/libcss-select-properties-column_count.o
 .eh_frame      0x0000000000212ce8      0x180 /home/bob/ofiles/libcss-select-properties-column_fill.o
 .eh_frame      0x0000000000212e68       0xf8 /home/bob/ofiles/libcss-select-properties-column_gap.o
 .eh_frame      0x0000000000212f60      0x1a0 /home/bob/ofiles/libcss-select-properties-column_rule_color.o
 .eh_frame      0x0000000000213100       0xd8 /home/bob/ofiles/libcss-select-properties-column_rule_style.o
 .eh_frame      0x00000000002131d8       0xd8 /home/bob/ofiles/libcss-select-properties-column_rule_width.o
 .eh_frame      0x00000000002132b0      0x180 /home/bob/ofiles/libcss-select-properties-column_span.o
 .eh_frame      0x0000000000213430       0xf8 /home/bob/ofiles/libcss-select-properties-column_width.o
 .eh_frame      0x0000000000213528      0x1a4 /home/bob/ofiles/libcss-select-properties-content.o
 .eh_frame      0x00000000002136cc       0xd8 /home/bob/ofiles/libcss-select-properties-counter_increment.o
 .eh_frame      0x00000000002137a4       0xd8 /home/bob/ofiles/libcss-select-properties-counter_reset.o
 .eh_frame      0x000000000021387c       0x98 /home/bob/ofiles/libcss-select-properties-cue_after.o
 .eh_frame      0x0000000000213914       0x98 /home/bob/ofiles/libcss-select-properties-cue_before.o
 .eh_frame      0x00000000002139ac      0x1a4 /home/bob/ofiles/libcss-select-properties-cursor.o
 .eh_frame      0x0000000000213b50      0x180 /home/bob/ofiles/libcss-select-properties-direction.o
 .eh_frame      0x0000000000213cd0      0x184 /home/bob/ofiles/libcss-select-properties-display.o
 .eh_frame      0x0000000000213e54      0x160 /home/bob/ofiles/libcss-select-properties-elevation.o
 .eh_frame      0x0000000000213fb4      0x180 /home/bob/ofiles/libcss-select-properties-empty_cells.o
 .eh_frame      0x0000000000214134      0x180 /home/bob/ofiles/libcss-select-properties-float.o
 .eh_frame      0x00000000002142b4      0x1a4 /home/bob/ofiles/libcss-select-properties-font_family.o
 .eh_frame      0x0000000000214458      0x1a4 /home/bob/ofiles/libcss-select-properties-font_size.o
 .eh_frame      0x00000000002145fc      0x180 /home/bob/ofiles/libcss-select-properties-font_style.o
 .eh_frame      0x000000000021477c      0x180 /home/bob/ofiles/libcss-select-properties-font_variant.o
 .eh_frame      0x00000000002148fc      0x184 /home/bob/ofiles/libcss-select-properties-font_weight.o
 .eh_frame      0x0000000000214a80       0xd8 /home/bob/ofiles/libcss-select-properties-height.o
 .eh_frame      0x0000000000214b58      0x2ec /home/bob/ofiles/libcss-select-properties-helpers.o
 .eh_frame      0x0000000000214e44       0xd8 /home/bob/ofiles/libcss-select-properties-left.o
 .eh_frame      0x0000000000214f1c       0xd8 /home/bob/ofiles/libcss-select-properties-letter_spacing.o
 .eh_frame      0x0000000000214ff4      0x1a4 /home/bob/ofiles/libcss-select-properties-line_height.o
 .eh_frame      0x0000000000215198       0xd8 /home/bob/ofiles/libcss-select-properties-list_style_image.o
 .eh_frame      0x0000000000215270      0x180 /home/bob/ofiles/libcss-select-properties-list_style_position.o
 .eh_frame      0x00000000002153f0      0x184 /home/bob/ofiles/libcss-select-properties-list_style_type.o
 .eh_frame      0x0000000000215574       0xd8 /home/bob/ofiles/libcss-select-properties-margin_bottom.o
 .eh_frame      0x000000000021564c       0xd8 /home/bob/ofiles/libcss-select-properties-margin_left.o
 .eh_frame      0x0000000000215724       0xd8 /home/bob/ofiles/libcss-select-properties-margin_right.o
 .eh_frame      0x00000000002157fc       0xd8 /home/bob/ofiles/libcss-select-properties-margin_top.o
 .eh_frame      0x00000000002158d4       0xd8 /home/bob/ofiles/libcss-select-properties-max_height.o
 .eh_frame      0x00000000002159ac       0xd8 /home/bob/ofiles/libcss-select-properties-max_width.o
 .eh_frame      0x0000000000215a84       0xd8 /home/bob/ofiles/libcss-select-properties-min_height.o
 .eh_frame      0x0000000000215b5c       0xd8 /home/bob/ofiles/libcss-select-properties-min_width.o
 .eh_frame      0x0000000000215c34      0x1a0 /home/bob/ofiles/libcss-select-properties-opacity.o
 .eh_frame      0x0000000000215dd4       0xd8 /home/bob/ofiles/libcss-select-properties-orphans.o
 .eh_frame      0x0000000000215eac      0x1a0 /home/bob/ofiles/libcss-select-properties-outline_color.o
 .eh_frame      0x000000000021604c       0xd8 /home/bob/ofiles/libcss-select-properties-outline_style.o
 .eh_frame      0x0000000000216124       0xd8 /home/bob/ofiles/libcss-select-properties-outline_width.o
 .eh_frame      0x00000000002161fc      0x180 /home/bob/ofiles/libcss-select-properties-overflow_x.o
 .eh_frame      0x000000000021637c      0x180 /home/bob/ofiles/libcss-select-properties-overflow_y.o
 .eh_frame      0x00000000002164fc       0xd8 /home/bob/ofiles/libcss-select-properties-padding_bottom.o
 .eh_frame      0x00000000002165d4       0xd8 /home/bob/ofiles/libcss-select-properties-padding_left.o
 .eh_frame      0x00000000002166ac       0xd8 /home/bob/ofiles/libcss-select-properties-padding_right.o
 .eh_frame      0x0000000000216784       0xd8 /home/bob/ofiles/libcss-select-properties-padding_top.o
 .eh_frame      0x000000000021685c       0xd8 /home/bob/ofiles/libcss-select-properties-page_break_after.o
 .eh_frame      0x0000000000216934       0xd8 /home/bob/ofiles/libcss-select-properties-page_break_before.o
 .eh_frame      0x0000000000216a0c       0xd8 /home/bob/ofiles/libcss-select-properties-page_break_inside.o
 .eh_frame      0x0000000000216ae4       0x98 /home/bob/ofiles/libcss-select-properties-pause_after.o
 .eh_frame      0x0000000000216b7c       0x98 /home/bob/ofiles/libcss-select-properties-pause_before.o
 .eh_frame      0x0000000000216c14      0x160 /home/bob/ofiles/libcss-select-properties-pitch.o
 .eh_frame      0x0000000000216d74       0x98 /home/bob/ofiles/libcss-select-properties-pitch_range.o
 .eh_frame      0x0000000000216e0c      0x160 /home/bob/ofiles/libcss-select-properties-play_during.o
 .eh_frame      0x0000000000216f6c      0x180 /home/bob/ofiles/libcss-select-properties-position.o
 .eh_frame      0x00000000002170ec      0x1a4 /home/bob/ofiles/libcss-select-properties-quotes.o
 .eh_frame      0x0000000000217290       0x98 /home/bob/ofiles/libcss-select-properties-richness.o
 .eh_frame      0x0000000000217328       0xd8 /home/bob/ofiles/libcss-select-properties-right.o
 .eh_frame      0x0000000000217400      0x140 /home/bob/ofiles/libcss-select-properties-speak.o
 .eh_frame      0x0000000000217540      0x140 /home/bob/ofiles/libcss-select-properties-speak_header.o
 .eh_frame      0x0000000000217680      0x140 /home/bob/ofiles/libcss-select-properties-speak_numeral.o
 .eh_frame      0x00000000002177c0      0x140 /home/bob/ofiles/libcss-select-properties-speak_punctuation.o
 .eh_frame      0x0000000000217900      0x160 /home/bob/ofiles/libcss-select-properties-speech_rate.o
 .eh_frame      0x0000000000217a60       0x98 /home/bob/ofiles/libcss-select-properties-stress.o
 .eh_frame      0x0000000000217af8      0x180 /home/bob/ofiles/libcss-select-properties-table_layout.o
 .eh_frame      0x0000000000217c78      0x180 /home/bob/ofiles/libcss-select-properties-text_align.o
 .eh_frame      0x0000000000217df8      0x184 /home/bob/ofiles/libcss-select-properties-text_decoration.o
 .eh_frame      0x0000000000217f7c       0xd8 /home/bob/ofiles/libcss-select-properties-text_indent.o
 .eh_frame      0x0000000000218054      0x180 /home/bob/ofiles/libcss-select-properties-text_transform.o
 .eh_frame      0x00000000002181d4       0xd8 /home/bob/ofiles/libcss-select-properties-top.o
 .eh_frame      0x00000000002182ac      0x180 /home/bob/ofiles/libcss-select-properties-unicode_bidi.o
 .eh_frame      0x000000000021842c      0x1a4 /home/bob/ofiles/libcss-select-properties-vertical_align.o
 .eh_frame      0x00000000002185d0      0x180 /home/bob/ofiles/libcss-select-properties-visibility.o
 .eh_frame      0x0000000000218750      0x164 /home/bob/ofiles/libcss-select-properties-voice_family.o
 .eh_frame      0x00000000002188b4      0x164 /home/bob/ofiles/libcss-select-properties-volume.o
 .eh_frame      0x0000000000218a18      0x180 /home/bob/ofiles/libcss-select-properties-white_space.o
 .eh_frame      0x0000000000218b98       0xd8 /home/bob/ofiles/libcss-select-properties-widows.o
 .eh_frame      0x0000000000218c70       0xd8 /home/bob/ofiles/libcss-select-properties-width.o
 .eh_frame      0x0000000000218d48       0xd8 /home/bob/ofiles/libcss-select-properties-word_spacing.o
 .eh_frame      0x0000000000218e20      0x180 /home/bob/ofiles/libcss-select-properties-writing_mode.o
 .eh_frame      0x0000000000218fa0      0x1a0 /home/bob/ofiles/libcss-select-properties-z_index.o
 .eh_frame      0x0000000000219140      0x56c /home/bob/ofiles/libcss-select-select.o
 .eh_frame      0x00000000002196ac      0x530 /home/bob/ofiles/libcss-stylesheet.o
 .eh_frame      0x0000000000219bdc       0x38 /home/bob/ofiles/libcss-utils-errors.o
 .eh_frame      0x0000000000219c14       0x5c /home/bob/ofiles/libcss-utils-utils.o
 .eh_frame      0x0000000000219c70      0x620 /home/bob/ofiles/libdom-bindings-parser.o
 .eh_frame      0x000000000021a290      0x558 /home/bob/ofiles/libdom-core-attr.o
 .eh_frame      0x000000000021a7e8       0x98 /home/bob/ofiles/libdom-core-cdatasection.o
 .eh_frame      0x000000000021a880      0x294 /home/bob/ofiles/libdom-core-characterdata.o
 .eh_frame      0x000000000021ab14       0x98 /home/bob/ofiles/libdom-core-comment.o
 .eh_frame      0x000000000021abac       0x98 /home/bob/ofiles/libdom-core-doc_fragment.o
 .eh_frame      0x000000000021ac44      0x740 /home/bob/ofiles/libdom-core-document.o
 .eh_frame      0x000000000021b384      0x238 /home/bob/ofiles/libdom-core-document_type.o
 .eh_frame      0x000000000021b5bc      0xb98 /home/bob/ofiles/libdom-core-element.o
 .eh_frame      0x000000000021c154       0xb8 /home/bob/ofiles/libdom-core-entity_ref.o
 .eh_frame      0x000000000021c20c      0x148 /home/bob/ofiles/libdom-core-implementation.o
 .eh_frame      0x000000000021c354      0x1b8 /home/bob/ofiles/libdom-core-namednodemap.o
 .eh_frame      0x000000000021c50c      0xaf8 /home/bob/ofiles/libdom-core-node.o
 .eh_frame      0x000000000021d004      0x1a0 /home/bob/ofiles/libdom-core-nodelist.o
 .eh_frame      0x000000000021d1a4       0x98 /home/bob/ofiles/libdom-core-pi.o
 .eh_frame      0x000000000021d23c      0x368 /home/bob/ofiles/libdom-core-string.o
 .eh_frame      0x000000000021d5a4      0x300 /home/bob/ofiles/libdom-core-text.o
 .eh_frame      0x000000000021d8a4       0x78 /home/bob/ofiles/libdom-core-typeinfo.o
 .eh_frame      0x000000000021d91c       0xf8 /home/bob/ofiles/libdom-events-custom_event.o
 .eh_frame      0x000000000021da14      0x138 /home/bob/ofiles/libdom-events-dispatch.o
 .eh_frame      0x000000000021db4c       0x9c /home/bob/ofiles/libdom-events-document_event.o
 .eh_frame      0x000000000021dbe8      0x358 /home/bob/ofiles/libdom-events-event.o
 .eh_frame      0x000000000021df40       0x78 /home/bob/ofiles/libdom-events-event_listener.o
 .eh_frame      0x000000000021dfb8      0x1b8 /home/bob/ofiles/libdom-events-event_target.o
 .eh_frame      0x000000000021e170      0x220 /home/bob/ofiles/libdom-events-keyboard_event.o
 .eh_frame      0x000000000021e390      0x258 /home/bob/ofiles/libdom-events-mouse_event.o
 .eh_frame      0x000000000021e5e8      0x120 /home/bob/ofiles/libdom-events-mouse_multi_wheel_event.o
 .eh_frame      0x000000000021e708       0xe0 /home/bob/ofiles/libdom-events-mouse_wheel_event.o
 .eh_frame      0x000000000021e7e8      0x238 /home/bob/ofiles/libdom-events-mutation_event.o
 .eh_frame      0x000000000021ea20      0x178 /home/bob/ofiles/libdom-events-mutation_name_event.o
 .eh_frame      0x000000000021eb98      0x160 /home/bob/ofiles/libdom-events-text_event.o
 .eh_frame      0x000000000021ecf8      0x138 /home/bob/ofiles/libdom-events-ui_event.o
 .eh_frame      0x000000000021ee30      0x498 /home/bob/ofiles/libdom-html-html_anchor_element.o
 .eh_frame      0x000000000021f2c8      0x418 /home/bob/ofiles/libdom-html-html_applet_element.o
 .eh_frame      0x000000000021f6e0      0x358 /home/bob/ofiles/libdom-html-html_area_element.o
 .eh_frame      0x000000000021fa38      0x1f8 /home/bob/ofiles/libdom-html-html_base_element.o
 .eh_frame      0x000000000021fc30      0x218 /home/bob/ofiles/libdom-html-html_basefont_element.o
 .eh_frame      0x000000000021fe48      0x2d8 /home/bob/ofiles/libdom-html-html_body_element.o
 .eh_frame      0x0000000000220120      0x198 /home/bob/ofiles/libdom-html-html_br_element.o
 .eh_frame      0x00000000002202b8      0x318 /home/bob/ofiles/libdom-html-html_button_element.o
 .eh_frame      0x00000000002205d0      0x1b8 /home/bob/ofiles/libdom-html-html_collection.o
 .eh_frame      0x0000000000220788      0x158 /home/bob/ofiles/libdom-html-html_directory_element.o
 .eh_frame      0x00000000002208e0      0x198 /home/bob/ofiles/libdom-html-html_div_element.o
 .eh_frame      0x0000000000220a78      0x158 /home/bob/ofiles/libdom-html-html_dlist_element.o
 .eh_frame      0x0000000000220bd0      0x5b8 /home/bob/ofiles/libdom-html-html_document.o
 .eh_frame      0x0000000000221188      0x4c8 /home/bob/ofiles/libdom-html-html_element.o
 .eh_frame      0x0000000000221650      0x138 /home/bob/ofiles/libdom-html-html_fieldset_element.o
 .eh_frame      0x0000000000221788      0x218 /home/bob/ofiles/libdom-html-html_font_element.o
 .eh_frame      0x00000000002219a0      0x338 /home/bob/ofiles/libdom-html-html_form_element.o
 .eh_frame      0x0000000000221cd8      0x378 /home/bob/ofiles/libdom-html-html_frame_element.o
 .eh_frame      0x0000000000222050      0x1d8 /home/bob/ofiles/libdom-html-html_frameset_element.o
 .eh_frame      0x0000000000222228      0x198 /home/bob/ofiles/libdom-html-html_head_element.o
 .eh_frame      0x00000000002223c0      0x198 /home/bob/ofiles/libdom-html-html_heading_element.o
 .eh_frame      0x0000000000222558      0x258 /home/bob/ofiles/libdom-html-html_hr_element.o
 .eh_frame      0x00000000002227b0      0x198 /home/bob/ofiles/libdom-html-html_html_element.o
 .eh_frame      0x0000000000222948      0x3f8 /home/bob/ofiles/libdom-html-html_iframe_element.o
 .eh_frame      0x0000000000222d40      0x458 /home/bob/ofiles/libdom-html-html_image_element.o
 .eh_frame      0x0000000000223198      0x678 /home/bob/ofiles/libdom-html-html_input_element.o
 .eh_frame      0x0000000000223810      0x1b8 /home/bob/ofiles/libdom-html-html_isindex_element.o
 .eh_frame      0x00000000002239c8      0x1f8 /home/bob/ofiles/libdom-html-html_label_element.o
 .eh_frame      0x0000000000223bc0      0x1f8 /home/bob/ofiles/libdom-html-html_legend_element.o
 .eh_frame      0x0000000000223db8      0x1d8 /home/bob/ofiles/libdom-html-html_li_element.o
 .eh_frame      0x0000000000223f90      0x398 /home/bob/ofiles/libdom-html-html_link_element.o
 .eh_frame      0x0000000000224328      0x1d8 /home/bob/ofiles/libdom-html-html_map_element.o
 .eh_frame      0x0000000000224500      0x158 /home/bob/ofiles/libdom-html-html_menu_element.o
 .eh_frame      0x0000000000224658      0x258 /home/bob/ofiles/libdom-html-html_meta_element.o
 .eh_frame      0x00000000002248b0      0x1d8 /home/bob/ofiles/libdom-html-html_mod_element.o
 .eh_frame      0x0000000000224a88      0x5d8 /home/bob/ofiles/libdom-html-html_object_element.o
 .eh_frame      0x0000000000225060      0x218 /home/bob/ofiles/libdom-html-html_olist_element.o
 .eh_frame      0x0000000000225278      0x1d8 /home/bob/ofiles/libdom-html-html_opt_group_element.o
 .eh_frame      0x0000000000225450      0x3b8 /home/bob/ofiles/libdom-html-html_option_element.o
 .eh_frame      0x0000000000225808      0x1b8 /home/bob/ofiles/libdom-html-html_options_collection.o
 .eh_frame      0x00000000002259c0      0x198 /home/bob/ofiles/libdom-html-html_paragraph_element.o
 .eh_frame      0x0000000000225b58      0x258 /home/bob/ofiles/libdom-html-html_param_element.o
 .eh_frame      0x0000000000225db0      0x158 /home/bob/ofiles/libdom-html-html_pre_element.o
 .eh_frame      0x0000000000225f08      0x198 /home/bob/ofiles/libdom-html-html_quote_element.o
 .eh_frame      0x00000000002260a0      0x358 /home/bob/ofiles/libdom-html-html_script_element.o
 .eh_frame      0x00000000002263f8      0x538 /home/bob/ofiles/libdom-html-html_select_element.o
 .eh_frame      0x0000000000226930      0x238 /home/bob/ofiles/libdom-html-html_style_element.o
 .eh_frame      0x0000000000226b68      0x6a8 /home/bob/ofiles/libdom-html-html_table_element.o
 .eh_frame      0x0000000000227210      0x198 /home/bob/ofiles/libdom-html-html_tablecaption_element.o
 .eh_frame      0x00000000002273a8      0x4f8 /home/bob/ofiles/libdom-html-html_tablecell_element.o
 .eh_frame      0x00000000002278a0      0x2d8 /home/bob/ofiles/libdom-html-html_tablecol_element.o
 .eh_frame      0x0000000000227b78      0x400 /home/bob/ofiles/libdom-html-html_tablerow_element.o
 .eh_frame      0x0000000000227f78      0x378 /home/bob/ofiles/libdom-html-html_tablesection_element.o
 .eh_frame      0x00000000002282f0      0x4b8 /home/bob/ofiles/libdom-html-html_text_area_element.o
 .eh_frame      0x00000000002287a8      0x198 /home/bob/ofiles/libdom-html-html_title_element.o
 .eh_frame      0x0000000000228940      0x1d8 /home/bob/ofiles/libdom-html-html_ulist_element.o
 .eh_frame      0x0000000000228b18       0x58 /home/bob/ofiles/libdom-utils-character_valid.o
 .eh_frame      0x0000000000228b70      0x118 /home/bob/ofiles/libdom-utils-hashtable.o
 .eh_frame      0x0000000000228c88      0x100 /home/bob/ofiles/libdom-utils-namespace.o
 .eh_frame      0x0000000000228d88       0x98 /home/bob/ofiles/libdom-utils-validate.o
 .eh_frame      0x0000000000228e20      0x100 /home/bob/ofiles/libhubbub-charset-detect.o
 .eh_frame      0x0000000000228f20      0x118 /home/bob/ofiles/libhubbub-parser.o
 .eh_frame      0x0000000000229038       0x58 /home/bob/ofiles/libhubbub-tokeniser-entities.o
 .eh_frame      0x0000000000229090      0x700 /home/bob/ofiles/libhubbub-tokeniser-tokeniser.o
 .eh_frame      0x0000000000229790       0x38 /home/bob/ofiles/libhubbub-treebuilder-after_after_body.o
 .eh_frame      0x00000000002297c8       0x38 /home/bob/ofiles/libhubbub-treebuilder-after_after_frameset.o
 .eh_frame      0x0000000000229800       0x38 /home/bob/ofiles/libhubbub-treebuilder-after_body.o
 .eh_frame      0x0000000000229838       0x38 /home/bob/ofiles/libhubbub-treebuilder-after_frameset.o
 .eh_frame      0x0000000000229870       0x38 /home/bob/ofiles/libhubbub-treebuilder-after_head.o
 .eh_frame      0x00000000002298a8       0x40 /home/bob/ofiles/libhubbub-treebuilder-before_head.o
 .eh_frame      0x00000000002298e8       0x44 /home/bob/ofiles/libhubbub-treebuilder-before_html.o
 .eh_frame      0x000000000022992c       0x38 /home/bob/ofiles/libhubbub-treebuilder-generic_rcdata.o
 .eh_frame      0x0000000000229964      0x5c8 /home/bob/ofiles/libhubbub-treebuilder-in_body.o
 .eh_frame      0x0000000000229f2c       0x38 /home/bob/ofiles/libhubbub-treebuilder-in_caption.o
 .eh_frame      0x0000000000229f64       0x58 /home/bob/ofiles/libhubbub-treebuilder-in_cell.o
 .eh_frame      0x0000000000229fbc       0x38 /home/bob/ofiles/libhubbub-treebuilder-in_column_group.o
 .eh_frame      0x0000000000229ff4      0x118 /home/bob/ofiles/libhubbub-treebuilder-in_foreign_content.o
 .eh_frame      0x000000000022a10c       0x38 /home/bob/ofiles/libhubbub-treebuilder-in_frameset.o
 .eh_frame      0x000000000022a144       0x58 /home/bob/ofiles/libhubbub-treebuilder-in_head.o
 .eh_frame      0x000000000022a19c       0x38 /home/bob/ofiles/libhubbub-treebuilder-in_head_noscript.o
 .eh_frame      0x000000000022a1d4       0x80 /home/bob/ofiles/libhubbub-treebuilder-in_row.o
 .eh_frame      0x000000000022a254       0x38 /home/bob/ofiles/libhubbub-treebuilder-in_select.o
 .eh_frame      0x000000000022a28c       0x38 /home/bob/ofiles/libhubbub-treebuilder-in_select_in_table.o
 .eh_frame      0x000000000022a2c4       0x80 /home/bob/ofiles/libhubbub-treebuilder-in_table.o
 .eh_frame      0x000000000022a344       0x78 /home/bob/ofiles/libhubbub-treebuilder-in_table_body.o
 .eh_frame      0x000000000022a3bc       0xa4 /home/bob/ofiles/libhubbub-treebuilder-initial.o
 .eh_frame      0x000000000022a460      0x4e8 /home/bob/ofiles/libhubbub-treebuilder-treebuilder.o
 .eh_frame      0x000000000022a948       0x38 /home/bob/ofiles/libhubbub-utils-errors.o
 .eh_frame      0x000000000022a980       0x58 /home/bob/ofiles/libhubbub-utils-string.o
 .eh_frame      0x000000000022a9d8      0x308 /home/bob/ofiles/libnsbmp-libnsbmp.o
 .eh_frame      0x000000000022ace0      0x1ac /home/bob/ofiles/libnsgif-libnsgif.o
 .eh_frame      0x000000000022ae8c       0x58 /home/bob/ofiles/libnsutils-base64.o
 .eh_frame      0x000000000022aee4       0x3c /home/bob/ofiles/libnsutils-time.o
 .eh_frame      0x000000000022af20       0x58 /home/bob/ofiles/libnsutils-unistd.o
 .eh_frame      0x000000000022af78       0xb8 /home/bob/ofiles/libparserutils-charset-aliases.o
 .eh_frame      0x000000000022b030       0xd8 /home/bob/ofiles/libparserutils-charset-codec.o
 .eh_frame      0x000000000022b108      0x1e4 /home/bob/ofiles/libparserutils-charset-codecs-codec_8859.o
 .eh_frame      0x000000000022b2ec      0x1e4 /home/bob/ofiles/libparserutils-charset-codecs-codec_ascii.o
 .eh_frame      0x000000000022b4d0      0x1e4 /home/bob/ofiles/libparserutils-charset-codecs-codec_ext8.o
 .eh_frame      0x000000000022b6b4      0x1a8 /home/bob/ofiles/libparserutils-charset-codecs-codec_utf16.o
 .eh_frame      0x000000000022b85c      0x1a8 /home/bob/ofiles/libparserutils-charset-codecs-codec_utf8.o
 .eh_frame      0x000000000022ba04       0xf8 /home/bob/ofiles/libparserutils-charset-encodings-utf16.o
 .eh_frame      0x000000000022bafc       0xf8 /home/bob/ofiles/libparserutils-charset-encodings-utf8.o
 .eh_frame      0x000000000022bbf4       0xfc /home/bob/ofiles/libparserutils-input-filter.o
 .eh_frame      0x000000000022bcf0      0x144 /home/bob/ofiles/libparserutils-input-inputstream.o
 .eh_frame      0x000000000022be34      0x104 /home/bob/ofiles/libparserutils-utils-buffer.o
 .eh_frame      0x000000000022bf38       0x58 /home/bob/ofiles/libparserutils-utils-errors.o
 .eh_frame      0x000000000022bf90       0xe0 /home/bob/ofiles/libparserutils-utils-stack.o
 .eh_frame      0x000000000022c070      0x13c /home/bob/ofiles/libparserutils-utils-vector.o
 .eh_frame      0x000000000022c1ac      0x20c /home/bob/ofiles/libutf8proc-utf8proc.o
 .eh_frame      0x000000000022c3b8      0x1a4 /home/bob/ofiles/libwapcaplet-libwapcaplet.o
 .eh_frame      0x000000000022c55c       0x98 /home/autobuild/tools/win32/mingw32/lib/libgcc.a(_udivdi3.o)
 .eh_frame      0x000000000022c5f4       0x58 /home/autobuild/tools/win32/mingw32/lib/libgcc.a(_divdi3.o)
 .eh_frame      0x000000000022c64c       0x68 /home/autobuild/tools/win32/mingw32/lib/libgcc.a(__main.o)
 .eh_frame      0x000000000022c6b4      0x28c /home/autobuild/tools/win32/lib/libz.a(gzlib.o)
 .eh_frame      0x000000000022c940       0x2c /home/autobuild/tools/win32/lib/libz.a(gzclose.o)
 .eh_frame      0x000000000022c96c      0x3a8 /home/autobuild/tools/win32/lib/libz.a(gzread.o)
 .eh_frame      0x000000000022cd14      0x3d0 /home/autobuild/tools/win32/lib/libz.a(inflate.o)
 .eh_frame      0x000000000022d0e4      0x314 /home/autobuild/tools/win32/lib/libz.a(gzwrite.o)
 .eh_frame      0x000000000022d3f8       0x7c /home/autobuild/tools/win32/lib/libz.a(zutil.o)
 .eh_frame      0x000000000022d474       0xec /home/autobuild/tools/win32/lib/libz.a(adler32.o)
 .eh_frame      0x000000000022d560      0x118 /home/autobuild/tools/win32/lib/libz.a(crc32.o)
 .eh_frame      0x000000000022d678       0x88 /home/autobuild/tools/win32/lib/libz.a(inftrees.o)
 .eh_frame      0x000000000022d700       0x58 /home/autobuild/tools/win32/lib/libz.a(inffast.o)
 .eh_frame      0x000000000022d758      0x51c /home/autobuild/tools/win32/lib/libz.a(deflate.o)
 .eh_frame      0x000000000022dc74      0x2ec /home/autobuild/tools/win32/lib/libz.a(trees.o)
 .eh_frame      0x000000000022df60       0x48 /home/autobuild/tools/win32/lib/libapp.a(crt3.o)
 .eh_frame      0x000000000022dfa8       0xd4 /home/autobuild/tools/win32/lib/libapp.a(crtloader.o)
 .eh_frame      0x000000000022e07c      0x158 ../../inst/lib/libnsfb.a(src_libnsfb.o)
 .eh_frame      0x000000000022e1d4      0x218 ../../inst/lib/libnsfb.a(src_plot_api.o)
 .eh_frame      0x000000000022e3ec      0x13c ../../inst/lib/libnsfb.a(src_cursor.o)
 .eh_frame      0x000000000022e528      0x15c ../../inst/lib/libnsfb.a(src_surface_surface.o)
 .eh_frame      0x000000000022e684       0xe4 ../../inst/lib/libnsfb.a(src_palette.o)
 .eh_frame      0x000000000022e768      0x4e8 ../../inst/lib/libnsfb.a(src_plot_generic.o)
 .eh_frame      0x000000000022ec50      0x278 ../../inst/lib/libnsfb.a(src_plot_16bpp.o)
 .eh_frame      0x000000000022eec8      0x25c ../../inst/lib/libnsfb.a(src_plot_32bpp-xrgb8888.o)
 .eh_frame      0x000000000022f124      0x25c ../../inst/lib/libnsfb.a(src_plot_32bpp-xbgr8888.o)
 .eh_frame      0x000000000022f380      0x2c0 ../../inst/lib/libnsfb.a(src_plot_8bpp.o)
 .eh_frame      0x000000000022f640      0x118 ../../inst/lib/libnsfb.a(src_plot_util.o)
                0x000000000022f758                __EH_FRAME_END__ = .

.CRT            0x000000000022f760        0x0
                0x000000000022f760                ___crt_xc_start__ = .
 *(SORT(.CRT$XC*))
                0x000000000022f760                ___crt_xc_end__ = .
                0x000000000022f760                ___crt_xi_start__ = .
 *(SORT(.CRT$XI*))
                0x000000000022f760                ___crt_xi_end__ = .
                0x000000000022f760                ___crt_xl_start__ = .
 *(SORT(.CRT$XL*))
                0x000000000022f760                ___crt_xp_start__ = .
 *(SORT(.CRT$XP*))
                0x000000000022f760                ___crt_xp_end__ = .
                0x000000000022f760                ___crt_xt_start__ = .
 *(SORT(.CRT$XT*))
                0x000000000022f760                ___crt_xt_end__ = .

.data           0x000000000022f780    0x49c00
                0x000000000022f780                PROVIDE (__data_start__, .)
 *(.data)
 .data          0x000000000022f780        0x0 content_content.o
 .data          0x000000000022f780        0x0 content_content_factory.o
 .data          0x000000000022f780        0x0 content_dirlist.o
 .data          0x000000000022f780        0x0 content_fetch.o
 .data          0x000000000022f780      0x320 content_fetchers_about.o
                0x000000000022f780                about_handler_list
 .data          0x000000000022faa0        0x0 content_fetchers_data.o
 .data          0x000000000022faa0        0x0 content_fetchers_file.o
 .data          0x000000000022faa0        0x0 content_fetchers_http_kolibri.o
 .data          0x000000000022faa0       0x60 content_fetchers_resource.o
 .data          0x000000000022fb00        0x0 content_hlcache.o
 .data          0x000000000022fb00        0x0 content_llcache.o
 .data          0x000000000022fb00        0x0 content_mimesniff.o
 .data          0x000000000022fb00       0x1c content_no_backing_store.o
                0x000000000022fb18                null_llcache_table
 *fill*         0x000000000022fb1c        0x4 
 .data          0x000000000022fb20       0xa0 content_urldb.o
 .data          0x000000000022fbc0        0x0 css_css.o
 .data          0x000000000022fbc0        0x0 css_dump.o
 .data          0x000000000022fbc0        0x0 css_internal.o
 .data          0x000000000022fbc0       0xa0 css_select.o
 .data          0x000000000022fc60        0x4 css_utils.o
                0x000000000022fc60                nscss_screen_dpi
 .data          0x000000000022fc64        0x0 desktop_browser.o
 .data          0x000000000022fc64        0x0 desktop_browser_history.o
 .data          0x000000000022fc64        0x8 desktop_cookie_manager.o
                0x000000000022fc64                cm_tree_cb_t
 .data          0x000000000022fc6c        0x0 desktop_download.o
 .data          0x000000000022fc6c        0x0 desktop_font_haru.o
 .data          0x000000000022fc6c        0x0 desktop_frames.o
 .data          0x000000000022fc6c        0x8 desktop_global_history.o
                0x000000000022fc6c                gh_tree_cb_t
 .data          0x000000000022fc74       0x38 desktop_gui_factory.o
 .data          0x000000000022fcac        0x8 desktop_hotlist.o
                0x000000000022fcac                hl_tree_cb_t
 .data          0x000000000022fcb4        0x0 desktop_knockout.o
 .data          0x000000000022fcb4        0x0 desktop_mouse.o
 .data          0x000000000022fcb4        0x0 desktop_netsurf.o
 .data          0x000000000022fcb4      0x120 desktop_plot_style.o
                0x000000000022fcc8                plot_style_fill_white
                0x000000000022fce0                plot_style_fill_black
                0x000000000022fcf8                plot_style_fill_red
                0x000000000022fd10                plot_style_caret
                0x000000000022fd28                plot_style_fill_wbasec
                0x000000000022fd40                plot_style_fill_darkwbasec
                0x000000000022fd58                plot_style_fill_lightwbasec
                0x000000000022fd70                plot_style_fill_wblobc
                0x000000000022fd88                plot_style_stroke_wblobc
                0x000000000022fda0                plot_style_stroke_darkwbasec
                0x000000000022fdb8                plot_style_stroke_lightwbasec
                0x000000000022fdd0                plot_style_stroke_history
 .data          0x000000000022fdd4        0x0 desktop_print.o
 .data          0x000000000022fdd4        0x0 desktop_save_complete.o
 .data          0x000000000022fdd4        0x0 desktop_save_pdf.o
 .data          0x000000000022fdd4        0x0 desktop_save_text.o
 .data          0x000000000022fdd4       0x3c desktop_scrollbar.o
 .data          0x000000000022fe10        0x0 desktop_search.o
 .data          0x000000000022fe10        0x8 desktop_searchweb.o
 .data          0x000000000022fe18        0x0 desktop_selection.o
 .data          0x000000000022fe18        0x8 desktop_sslcert_viewer.o
                0x000000000022fe18                sslv_tree_cb_t
 .data          0x000000000022fe20        0x0 desktop_system_colour.o
 .data          0x000000000022fe20       0x1c desktop_textarea.o
 .data          0x000000000022fe3c        0x0 desktop_textinput.o
 .data          0x000000000022fe3c       0x14 desktop_tree.o
                0x000000000022fe3c                cw_t
 *fill*         0x000000000022fe50       0x10 
 .data          0x000000000022fe60       0x60 desktop_treeview.o
 .data          0x000000000022fec0        0x0 desktop_version.o
 .data          0x000000000022fec0        0x0 image_image.o
 .data          0x000000000022fec0        0x0 image_image_cache.o
 .data          0x000000000022fec0        0x0 javascript_fetcher.o
 .data          0x000000000022fec0        0x0 javascript_none_none.o
 .data          0x000000000022fec0       0x40 kolibrios_fb_bitmap.o
                0x000000000022fef4                framebuffer_bitmap_table
 .data          0x000000000022ff00        0xc kolibrios_fb_clipboard.o
                0x000000000022ff08                framebuffer_clipboard_table
 .data          0x000000000022ff0c        0x0 kolibrios_fb_fbtk_bitmap.o
 *fill*         0x000000000022ff0c       0x14 
 .data          0x000000000022ff20      0x440 kolibrios_fb_fbtk_event.o
 .data          0x0000000000230360        0x0 kolibrios_fb_fbtk_fbtk.o
 .data          0x0000000000230360        0x0 kolibrios_fb_fbtk_fill.o
 .data          0x0000000000230360      0x580 kolibrios_fb_fbtk_osk.o
 .data          0x00000000002308e0        0x0 kolibrios_fb_fbtk_scroll.o
 .data          0x00000000002308e0        0x0 kolibrios_fb_fbtk_text.o
 .data          0x00000000002308e0        0x0 kolibrios_fb_fbtk_user.o
 .data          0x00000000002308e0        0x0 kolibrios_fb_fbtk_window.o
 .data          0x00000000002308e0       0x18 kolibrios_fb_fetch.o
                0x00000000002308e0                framebuffer_fetch_table
 .data          0x00000000002308f8        0x0 kolibrios_fb_findfile.o
 .data          0x00000000002308f8        0x0 kolibrios_fb_font_freetype.o
 .data          0x00000000002308f8        0x0 kolibrios_fb_framebuffer.o
 *fill*         0x00000000002308f8        0x8 
 .data          0x0000000000230900       0xa0 kolibrios_fb_gui.o
 .data          0x00000000002309a0        0x0 kolibrios_fb_localhistory.o
 .data          0x00000000002309a0        0x0 kolibrios_fb_misc.o
 .data          0x00000000002309a0        0x0 kolibrios_fb_schedule.o
 .data          0x00000000002309a0        0x0 kolibrios_kolibri_debug.o
 .data          0x00000000002309a0        0x0 kolibrios_kolibri_filesystem.o
 .data          0x00000000002309a0        0x0 kolibrios_kolibri_http.o
 .data          0x00000000002309a0        0x0 kolibrios_kolibri_iconv.o
 .data          0x00000000002309a0        0x0 kolibrios_kolibri_misc.o
 .data          0x00000000002309a0        0x0 kolibrios_kolibri_regex.o
 .data          0x00000000002309a0        0x0 kolibrios_main.o
 .data          0x00000000002309a0        0x0 render_box.o
 .data          0x00000000002309a0       0x10 render_box_construct.o
                0x00000000002309a0                TARGET_SELF
                0x00000000002309a4                TARGET_PARENT
                0x00000000002309a8                TARGET_TOP
                0x00000000002309ac                TARGET_BLANK
 .data          0x00000000002309b0        0x0 render_box_normalise.o
 .data          0x00000000002309b0        0x0 render_box_textarea.o
 .data          0x00000000002309b0        0x0 render_font.o
 .data          0x00000000002309b0       0x2c render_form.o
 .data          0x00000000002309dc       0x14 render_html.o
 .data          0x00000000002309f0        0x0 render_html_css.o
 .data          0x00000000002309f0        0x0 render_html_css_fetcher.o
 .data          0x00000000002309f0        0x0 render_html_forms.o
 .data          0x00000000002309f0        0x0 render_html_interaction.o
 .data          0x00000000002309f0        0x0 render_html_object.o
 .data          0x00000000002309f0       0x78 render_html_redraw.o
 .data          0x0000000000230a68        0x0 render_html_script.o
 .data          0x0000000000230a68        0x0 render_imagemap.o
 *fill*         0x0000000000230a68       0x18 
 .data          0x0000000000230a80       0x60 render_layout.o
 .data          0x0000000000230ae0        0x0 render_search.o
 .data          0x0000000000230ae0        0x0 render_table.o
 .data          0x0000000000230ae0       0x20 render_textplain.o
 .data          0x0000000000230b00        0x0 utils_base64.o
 .data          0x0000000000230b00        0x0 utils_bloom.o
 .data          0x0000000000230b00        0x0 utils_corestrings.o
 .data          0x0000000000230b00       0x18 utils_file.o
                0x0000000000230b00                default_file_table
 .data          0x0000000000230b18        0x0 utils_filename.o
 .data          0x0000000000230b18        0x0 utils_filepath.o
 .data          0x0000000000230b18        0x0 utils_hashtable.o
 .data          0x0000000000230b18        0x0 utils_http_challenge.o
 .data          0x0000000000230b18        0x0 utils_http_content-disposition.o
 .data          0x0000000000230b18        0x0 utils_http_content-type.o
 .data          0x0000000000230b18        0x0 utils_http_generics.o
 .data          0x0000000000230b18        0x0 utils_http_parameter.o
 .data          0x0000000000230b18        0x0 utils_http_primitives.o
 .data          0x0000000000230b18        0x0 utils_http_www-authenticate.o
 *fill*         0x0000000000230b18        0x8 
 .data          0x0000000000230b20     0x7a40 utils_idna.o
                0x0000000000230b20                idna_derived
                0x0000000000237800                idna_joiningtype
                0x00000000002384e0                idna_contexto
 .data          0x0000000000238560        0x0 utils_libdom.o
 .data          0x0000000000238560        0x0 utils_locale.o
 .data          0x0000000000238560        0x0 utils_log.o
 .data          0x0000000000238560        0x0 utils_messages.o
 .data          0x0000000000238560      0x760 utils_nsoption.o
 .data          0x0000000000238cc0        0x0 utils_nsurl.o
 .data          0x0000000000238cc0        0x0 utils_punycode.o
 .data          0x0000000000238cc0        0x0 utils_talloc.o
 .data          0x0000000000238cc0        0x0 utils_url.o
 .data          0x0000000000238cc0        0x0 utils_useragent.o
 .data          0x0000000000238cc0        0x0 utils_utf8.o
 .data          0x0000000000238cc0       0x20 utils_utils.o
 .data          0x0000000000238ce0        0x0 /home/bob/ofiles/libcss-charset-detect.o
 .data          0x0000000000238ce0        0x0 /home/bob/ofiles/libcss-lex-lex.o
 .data          0x0000000000238ce0        0x0 /home/bob/ofiles/libcss-parse-font_face.o
 .data          0x0000000000238ce0        0x0 /home/bob/ofiles/libcss-parse-important.o
 .data          0x0000000000238ce0        0x0 /home/bob/ofiles/libcss-parse-language.o
 .data          0x0000000000238ce0       0x80 /home/bob/ofiles/libcss-parse-parse.o
 .data          0x0000000000238d60        0x0 /home/bob/ofiles/libcss-parse-properties-autogenerated_background_attachment.o
 .data          0x0000000000238d60        0x0 /home/bob/ofiles/libcss-parse-properties-autogenerated_background_color.o
 .data          0x0000000000238d60        0x0 /home/bob/ofiles/libcss-parse-properties-autogenerated_background_image.o
 .data          0x0000000000238d60        0x0 /home/bob/ofiles/libcss-parse-properties-autogenerated_background_repeat.o
 .data          0x0000000000238d60        0x0 /home/bob/ofiles/libcss-parse-properties-autogenerated_border_bottom.o
 .data          0x0000000000238d60        0x0 /home/bob/ofiles/libcss-parse-properties-autogenerated_border_bottom_color.o
 .data          0x0000000000238d60        0x0 /home/bob/ofiles/libcss-parse-properties-autogenerated_border_bottom_style.o
 .data          0x0000000000238d60        0x0 /home/bob/ofiles/libcss-parse-properties-autogenerated_border_bottom_width.o
 .data          0x0000000000238d60        0x0 /home/bob/ofiles/libcss-parse-properties-autogenerated_border_collapse.o
 .data          0x0000000000238d60        0x0 /home/bob/ofiles/libcss-parse-properties-autogenerated_border_left.o
 .data          0x0000000000238d60        0x0 /home/bob/ofiles/libcss-parse-properties-autogenerated_border_left_color.o
 .data          0x0000000000238d60        0x0 /home/bob/ofiles/libcss-parse-properties-autogenerated_border_left_style.o
 .data          0x0000000000238d60        0x0 /home/bob/ofiles/libcss-parse-properties-autogenerated_border_left_width.o
 .data          0x0000000000238d60        0x0 /home/bob/ofiles/libcss-parse-properties-autogenerated_border_right.o
 .data          0x0000000000238d60        0x0 /home/bob/ofiles/libcss-parse-properties-autogenerated_border_right_color.o
 .data          0x0000000000238d60        0x0 /home/bob/ofiles/libcss-parse-properties-autogenerated_border_right_style.o
 .data          0x0000000000238d60        0x0 /home/bob/ofiles/libcss-parse-properties-autogenerated_border_right_width.o
 .data          0x0000000000238d60        0x0 /home/bob/ofiles/libcss-parse-properties-autogenerated_border_side_color.o
 .data          0x0000000000238d60        0x0 /home/bob/ofiles/libcss-parse-properties-autogenerated_border_side_style.o
 .data          0x0000000000238d60        0x0 /home/bob/ofiles/libcss-parse-properties-autogenerated_border_side_width.o
 .data          0x0000000000238d60        0x0 /home/bob/ofiles/libcss-parse-properties-autogenerated_border_top.o
 .data          0x0000000000238d60        0x0 /home/bob/ofiles/libcss-parse-properties-autogenerated_border_top_color.o
 .data          0x0000000000238d60        0x0 /home/bob/ofiles/libcss-parse-properties-autogenerated_border_top_style.o
 .data          0x0000000000238d60        0x0 /home/bob/ofiles/libcss-parse-properties-autogenerated_border_top_width.o
 .data          0x0000000000238d60        0x0 /home/bob/ofiles/libcss-parse-properties-autogenerated_bottom.o
 .data          0x0000000000238d60        0x0 /home/bob/ofiles/libcss-parse-properties-autogenerated_break_after.o
 .data          0x0000000000238d60        0x0 /home/bob/ofiles/libcss-parse-properties-autogenerated_break_before.o
 .data          0x0000000000238d60        0x0 /home/bob/ofiles/libcss-parse-properties-autogenerated_break_inside.o
 .data          0x0000000000238d60        0x0 /home/bob/ofiles/libcss-parse-properties-autogenerated_caption_side.o
 .data          0x0000000000238d60        0x0 /home/bob/ofiles/libcss-parse-properties-autogenerated_clear.o
 .data          0x0000000000238d60        0x0 /home/bob/ofiles/libcss-parse-properties-autogenerated_color.o
 .data          0x0000000000238d60        0x0 /home/bob/ofiles/libcss-parse-properties-autogenerated_column_count.o
 .data          0x0000000000238d60        0x0 /home/bob/ofiles/libcss-parse-properties-autogenerated_column_fill.o
 .data          0x0000000000238d60        0x0 /home/bob/ofiles/libcss-parse-properties-autogenerated_column_gap.o
 .data          0x0000000000238d60        0x0 /home/bob/ofiles/libcss-parse-properties-autogenerated_column_rule_color.o
 .data          0x0000000000238d60        0x0 /home/bob/ofiles/libcss-parse-properties-autogenerated_column_rule_style.o
 .data          0x0000000000238d60        0x0 /home/bob/ofiles/libcss-parse-properties-autogenerated_column_rule_width.o
 .data          0x0000000000238d60        0x0 /home/bob/ofiles/libcss-parse-properties-autogenerated_column_span.o
 .data          0x0000000000238d60        0x0 /home/bob/ofiles/libcss-parse-properties-autogenerated_column_width.o
 .data          0x0000000000238d60        0x0 /home/bob/ofiles/libcss-parse-properties-autogenerated_counter_increment.o
 .data          0x0000000000238d60        0x0 /home/bob/ofiles/libcss-parse-properties-autogenerated_counter_reset.o
 .data          0x0000000000238d60        0x0 /home/bob/ofiles/libcss-parse-properties-autogenerated_cue_after.o
 .data          0x0000000000238d60        0x0 /home/bob/ofiles/libcss-parse-properties-autogenerated_cue_before.o
 .data          0x0000000000238d60        0x0 /home/bob/ofiles/libcss-parse-properties-autogenerated_direction.o
 .data          0x0000000000238d60        0x0 /home/bob/ofiles/libcss-parse-properties-autogenerated_display.o
 .data          0x0000000000238d60        0x0 /home/bob/ofiles/libcss-parse-properties-autogenerated_empty_cells.o
 .data          0x0000000000238d60        0x0 /home/bob/ofiles/libcss-parse-properties-autogenerated_float.o
 .data          0x0000000000238d60        0x0 /home/bob/ofiles/libcss-parse-properties-autogenerated_font_size.o
 .data          0x0000000000238d60        0x0 /home/bob/ofiles/libcss-parse-properties-autogenerated_font_style.o
 .data          0x0000000000238d60        0x0 /home/bob/ofiles/libcss-parse-properties-autogenerated_font_variant.o
 .data          0x0000000000238d60        0x0 /home/bob/ofiles/libcss-parse-properties-autogenerated_height.o
 .data          0x0000000000238d60        0x0 /home/bob/ofiles/libcss-parse-properties-autogenerated_left.o
 .data          0x0000000000238d60        0x0 /home/bob/ofiles/libcss-parse-properties-autogenerated_letter_spacing.o
 .data          0x0000000000238d60        0x0 /home/bob/ofiles/libcss-parse-properties-autogenerated_line_height.o
 .data          0x0000000000238d60        0x0 /home/bob/ofiles/libcss-parse-properties-autogenerated_list_style_image.o
 .data          0x0000000000238d60        0x0 /home/bob/ofiles/libcss-parse-properties-autogenerated_list_style_position.o
 .data          0x0000000000238d60        0x0 /home/bob/ofiles/libcss-parse-properties-autogenerated_margin_bottom.o
 .data          0x0000000000238d60        0x0 /home/bob/ofiles/libcss-parse-properties-autogenerated_margin_left.o
 .data          0x0000000000238d60        0x0 /home/bob/ofiles/libcss-parse-properties-autogenerated_margin_right.o
 .data          0x0000000000238d60        0x0 /home/bob/ofiles/libcss-parse-properties-autogenerated_margin_side.o
 .data          0x0000000000238d60        0x0 /home/bob/ofiles/libcss-parse-properties-autogenerated_margin_top.o
 .data          0x0000000000238d60        0x0 /home/bob/ofiles/libcss-parse-properties-autogenerated_max_height.o
 .data          0x0000000000238d60        0x0 /home/bob/ofiles/libcss-parse-properties-autogenerated_max_width.o
 .data          0x0000000000238d60        0x0 /home/bob/ofiles/libcss-parse-properties-autogenerated_min_height.o
 .data          0x0000000000238d60        0x0 /home/bob/ofiles/libcss-parse-properties-autogenerated_min_width.o
 .data          0x0000000000238d60        0x0 /home/bob/ofiles/libcss-parse-properties-autogenerated_orphans.o
 .data          0x0000000000238d60        0x0 /home/bob/ofiles/libcss-parse-properties-autogenerated_outline_color.o
 .data          0x0000000000238d60        0x0 /home/bob/ofiles/libcss-parse-properties-autogenerated_outline_style.o
 .data          0x0000000000238d60        0x0 /home/bob/ofiles/libcss-parse-properties-autogenerated_outline_width.o
 .data          0x0000000000238d60        0x0 /home/bob/ofiles/libcss-parse-properties-autogenerated_overflow_x.o
 .data          0x0000000000238d60        0x0 /home/bob/ofiles/libcss-parse-properties-autogenerated_overflow_y.o
 .data          0x0000000000238d60        0x0 /home/bob/ofiles/libcss-parse-properties-autogenerated_padding_bottom.o
 .data          0x0000000000238d60        0x0 /home/bob/ofiles/libcss-parse-properties-autogenerated_padding_left.o
 .data          0x0000000000238d60        0x0 /home/bob/ofiles/libcss-parse-properties-autogenerated_padding_right.o
 .data          0x0000000000238d60        0x0 /home/bob/ofiles/libcss-parse-properties-autogenerated_padding_side.o
 .data          0x0000000000238d60        0x0 /home/bob/ofiles/libcss-parse-properties-autogenerated_padding_top.o
 .data          0x0000000000238d60        0x0 /home/bob/ofiles/libcss-parse-properties-autogenerated_page_break_after.o
 .data          0x0000000000238d60        0x0 /home/bob/ofiles/libcss-parse-properties-autogenerated_page_break_before.o
 .data          0x0000000000238d60        0x0 /home/bob/ofiles/libcss-parse-properties-autogenerated_page_break_inside.o
 .data          0x0000000000238d60        0x0 /home/bob/ofiles/libcss-parse-properties-autogenerated_pause_after.o
 .data          0x0000000000238d60        0x0 /home/bob/ofiles/libcss-parse-properties-autogenerated_pause_before.o
 .data          0x0000000000238d60        0x0 /home/bob/ofiles/libcss-parse-properties-autogenerated_pitch.o
 .data          0x0000000000238d60        0x0 /home/bob/ofiles/libcss-parse-properties-autogenerated_pitch_range.o
 .data          0x0000000000238d60        0x0 /home/bob/ofiles/libcss-parse-properties-autogenerated_position.o
 .data          0x0000000000238d60        0x0 /home/bob/ofiles/libcss-parse-properties-autogenerated_richness.o
 .data          0x0000000000238d60        0x0 /home/bob/ofiles/libcss-parse-properties-autogenerated_right.o
 .data          0x0000000000238d60        0x0 /home/bob/ofiles/libcss-parse-properties-autogenerated_side.o
 .data          0x0000000000238d60        0x0 /home/bob/ofiles/libcss-parse-properties-autogenerated_speak.o
 .data          0x0000000000238d60        0x0 /home/bob/ofiles/libcss-parse-properties-autogenerated_speak_header.o
 .data          0x0000000000238d60        0x0 /home/bob/ofiles/libcss-parse-properties-autogenerated_speak_numeral.o
 .data          0x0000000000238d60        0x0 /home/bob/ofiles/libcss-parse-properties-autogenerated_speak_punctuation.o
 .data          0x0000000000238d60        0x0 /home/bob/ofiles/libcss-parse-properties-autogenerated_speech_rate.o
 .data          0x0000000000238d60        0x0 /home/bob/ofiles/libcss-parse-properties-autogenerated_stress.o
 .data          0x0000000000238d60        0x0 /home/bob/ofiles/libcss-parse-properties-autogenerated_table_layout.o
 .data          0x0000000000238d60        0x0 /home/bob/ofiles/libcss-parse-properties-autogenerated_text_align.o
 .data          0x0000000000238d60        0x0 /home/bob/ofiles/libcss-parse-properties-autogenerated_text_indent.o
 .data          0x0000000000238d60        0x0 /home/bob/ofiles/libcss-parse-properties-autogenerated_text_transform.o
 .data          0x0000000000238d60        0x0 /home/bob/ofiles/libcss-parse-properties-autogenerated_top.o
 .data          0x0000000000238d60        0x0 /home/bob/ofiles/libcss-parse-properties-autogenerated_unicode_bidi.o
 .data          0x0000000000238d60        0x0 /home/bob/ofiles/libcss-parse-properties-autogenerated_vertical_align.o
 .data          0x0000000000238d60        0x0 /home/bob/ofiles/libcss-parse-properties-autogenerated_visibility.o
 .data          0x0000000000238d60        0x0 /home/bob/ofiles/libcss-parse-properties-autogenerated_volume.o
 .data          0x0000000000238d60        0x0 /home/bob/ofiles/libcss-parse-properties-autogenerated_white_space.o
 .data          0x0000000000238d60        0x0 /home/bob/ofiles/libcss-parse-properties-autogenerated_widows.o
 .data          0x0000000000238d60        0x0 /home/bob/ofiles/libcss-parse-properties-autogenerated_width.o
 .data          0x0000000000238d60        0x0 /home/bob/ofiles/libcss-parse-properties-autogenerated_word_spacing.o
 .data          0x0000000000238d60        0x0 /home/bob/ofiles/libcss-parse-properties-autogenerated_writing_mode.o
 .data          0x0000000000238d60        0x0 /home/bob/ofiles/libcss-parse-properties-autogenerated_z_index.o
 .data          0x0000000000238d60        0x0 /home/bob/ofiles/libcss-parse-properties-azimuth.o
 .data          0x0000000000238d60        0x0 /home/bob/ofiles/libcss-parse-properties-background.o
 .data          0x0000000000238d60        0x0 /home/bob/ofiles/libcss-parse-properties-background_position.o
 .data          0x0000000000238d60        0x0 /home/bob/ofiles/libcss-parse-properties-border.o
 .data          0x0000000000238d60        0x0 /home/bob/ofiles/libcss-parse-properties-border_color.o
 .data          0x0000000000238d60        0x0 /home/bob/ofiles/libcss-parse-properties-border_spacing.o
 .data          0x0000000000238d60        0x0 /home/bob/ofiles/libcss-parse-properties-border_style.o
 .data          0x0000000000238d60        0x0 /home/bob/ofiles/libcss-parse-properties-border_width.o
 .data          0x0000000000238d60        0x0 /home/bob/ofiles/libcss-parse-properties-clip.o
 .data          0x0000000000238d60        0x0 /home/bob/ofiles/libcss-parse-properties-column_rule.o
 .data          0x0000000000238d60        0x0 /home/bob/ofiles/libcss-parse-properties-columns.o
 .data          0x0000000000238d60        0x0 /home/bob/ofiles/libcss-parse-properties-content.o
 .data          0x0000000000238d60        0x0 /home/bob/ofiles/libcss-parse-properties-cue.o
 .data          0x0000000000238d60        0x0 /home/bob/ofiles/libcss-parse-properties-cursor.o
 .data          0x0000000000238d60        0x0 /home/bob/ofiles/libcss-parse-properties-elevation.o
 .data          0x0000000000238d60        0x0 /home/bob/ofiles/libcss-parse-properties-font.o
 .data          0x0000000000238d60        0x0 /home/bob/ofiles/libcss-parse-properties-font_family.o
 .data          0x0000000000238d60        0x0 /home/bob/ofiles/libcss-parse-properties-font_weight.o
 .data          0x0000000000238d60        0x0 /home/bob/ofiles/libcss-parse-properties-list_style.o
 .data          0x0000000000238d60        0x0 /home/bob/ofiles/libcss-parse-properties-list_style_type.o
 .data          0x0000000000238d60        0x0 /home/bob/ofiles/libcss-parse-properties-margin.o
 .data          0x0000000000238d60        0x0 /home/bob/ofiles/libcss-parse-properties-opacity.o
 .data          0x0000000000238d60        0x0 /home/bob/ofiles/libcss-parse-properties-outline.o
 .data          0x0000000000238d60        0x0 /home/bob/ofiles/libcss-parse-properties-overflow.o
 .data          0x0000000000238d60        0x0 /home/bob/ofiles/libcss-parse-properties-padding.o
 .data          0x0000000000238d60        0x0 /home/bob/ofiles/libcss-parse-properties-pause.o
 .data          0x0000000000238d60        0x0 /home/bob/ofiles/libcss-parse-properties-play_during.o
 .data          0x0000000000238d60        0x0 /home/bob/ofiles/libcss-parse-properties-properties.o
 .data          0x0000000000238d60        0x0 /home/bob/ofiles/libcss-parse-properties-quotes.o
 .data          0x0000000000238d60        0x0 /home/bob/ofiles/libcss-parse-properties-text_decoration.o
 .data          0x0000000000238d60        0x0 /home/bob/ofiles/libcss-parse-properties-utils.o
 .data          0x0000000000238d60        0x0 /home/bob/ofiles/libcss-parse-properties-voice_family.o
 .data          0x0000000000238d60        0x0 /home/bob/ofiles/libcss-parse-propstrings.o
 .data          0x0000000000238d60        0x0 /home/bob/ofiles/libcss-select-computed.o
 .data          0x0000000000238d60      0xaa0 /home/bob/ofiles/libcss-select-dispatch.o
                0x0000000000238d60                prop_dispatch
 .data          0x0000000000239800        0x0 /home/bob/ofiles/libcss-select-font_face.o
 .data          0x0000000000239800        0x0 /home/bob/ofiles/libcss-select-hash.o
 .data          0x0000000000239800        0x0 /home/bob/ofiles/libcss-select-properties-azimuth.o
 .data          0x0000000000239800        0x0 /home/bob/ofiles/libcss-select-properties-background_attachment.o
 .data          0x0000000000239800        0x0 /home/bob/ofiles/libcss-select-properties-background_color.o
 .data          0x0000000000239800        0x0 /home/bob/ofiles/libcss-select-properties-background_image.o
 .data          0x0000000000239800        0x0 /home/bob/ofiles/libcss-select-properties-background_position.o
 .data          0x0000000000239800        0x0 /home/bob/ofiles/libcss-select-properties-background_repeat.o
 .data          0x0000000000239800        0x0 /home/bob/ofiles/libcss-select-properties-border_bottom_color.o
 .data          0x0000000000239800        0x0 /home/bob/ofiles/libcss-select-properties-border_bottom_style.o
 .data          0x0000000000239800        0x0 /home/bob/ofiles/libcss-select-properties-border_bottom_width.o
 .data          0x0000000000239800        0x0 /home/bob/ofiles/libcss-select-properties-border_collapse.o
 .data          0x0000000000239800        0x0 /home/bob/ofiles/libcss-select-properties-border_left_color.o
 .data          0x0000000000239800        0x0 /home/bob/ofiles/libcss-select-properties-border_left_style.o
 .data          0x0000000000239800        0x0 /home/bob/ofiles/libcss-select-properties-border_left_width.o
 .data          0x0000000000239800        0x0 /home/bob/ofiles/libcss-select-properties-border_right_color.o
 .data          0x0000000000239800        0x0 /home/bob/ofiles/libcss-select-properties-border_right_style.o
 .data          0x0000000000239800        0x0 /home/bob/ofiles/libcss-select-properties-border_right_width.o
 .data          0x0000000000239800        0x0 /home/bob/ofiles/libcss-select-properties-border_spacing.o
 .data          0x0000000000239800        0x0 /home/bob/ofiles/libcss-select-properties-border_top_color.o
 .data          0x0000000000239800        0x0 /home/bob/ofiles/libcss-select-properties-border_top_style.o
 .data          0x0000000000239800        0x0 /home/bob/ofiles/libcss-select-properties-border_top_width.o
 .data          0x0000000000239800        0x0 /home/bob/ofiles/libcss-select-properties-bottom.o
 .data          0x0000000000239800        0x0 /home/bob/ofiles/libcss-select-properties-break_after.o
 .data          0x0000000000239800        0x0 /home/bob/ofiles/libcss-select-properties-break_before.o
 .data          0x0000000000239800        0x0 /home/bob/ofiles/libcss-select-properties-break_inside.o
 .data          0x0000000000239800        0x0 /home/bob/ofiles/libcss-select-properties-caption_side.o
 .data          0x0000000000239800        0x0 /home/bob/ofiles/libcss-select-properties-clear.o
 .data          0x0000000000239800        0x0 /home/bob/ofiles/libcss-select-properties-clip.o
 .data          0x0000000000239800        0x0 /home/bob/ofiles/libcss-select-properties-color.o
 .data          0x0000000000239800        0x0 /home/bob/ofiles/libcss-select-properties-column_count.o
 .data          0x0000000000239800        0x0 /home/bob/ofiles/libcss-select-properties-column_fill.o
 .data          0x0000000000239800        0x0 /home/bob/ofiles/libcss-select-properties-column_gap.o
 .data          0x0000000000239800        0x0 /home/bob/ofiles/libcss-select-properties-column_rule_color.o
 .data          0x0000000000239800        0x0 /home/bob/ofiles/libcss-select-properties-column_rule_style.o
 .data          0x0000000000239800        0x0 /home/bob/ofiles/libcss-select-properties-column_rule_width.o
 .data          0x0000000000239800        0x0 /home/bob/ofiles/libcss-select-properties-column_span.o
 .data          0x0000000000239800        0x0 /home/bob/ofiles/libcss-select-properties-column_width.o
 .data          0x0000000000239800        0x0 /home/bob/ofiles/libcss-select-properties-content.o
 .data          0x0000000000239800        0x0 /home/bob/ofiles/libcss-select-properties-counter_increment.o
 .data          0x0000000000239800        0x0 /home/bob/ofiles/libcss-select-properties-counter_reset.o
 .data          0x0000000000239800        0x0 /home/bob/ofiles/libcss-select-properties-cue_after.o
 .data          0x0000000000239800        0x0 /home/bob/ofiles/libcss-select-properties-cue_before.o
 .data          0x0000000000239800        0x0 /home/bob/ofiles/libcss-select-properties-cursor.o
 .data          0x0000000000239800        0x0 /home/bob/ofiles/libcss-select-properties-direction.o
 .data          0x0000000000239800        0x0 /home/bob/ofiles/libcss-select-properties-display.o
 .data          0x0000000000239800        0x0 /home/bob/ofiles/libcss-select-properties-elevation.o
 .data          0x0000000000239800        0x0 /home/bob/ofiles/libcss-select-properties-empty_cells.o
 .data          0x0000000000239800        0x0 /home/bob/ofiles/libcss-select-properties-float.o
 .data          0x0000000000239800        0x0 /home/bob/ofiles/libcss-select-properties-font_family.o
 .data          0x0000000000239800        0x0 /home/bob/ofiles/libcss-select-properties-font_size.o
 .data          0x0000000000239800        0x0 /home/bob/ofiles/libcss-select-properties-font_style.o
 .data          0x0000000000239800        0x0 /home/bob/ofiles/libcss-select-properties-font_variant.o
 .data          0x0000000000239800        0x0 /home/bob/ofiles/libcss-select-properties-font_weight.o
 .data          0x0000000000239800        0x0 /home/bob/ofiles/libcss-select-properties-height.o
 .data          0x0000000000239800        0x0 /home/bob/ofiles/libcss-select-properties-helpers.o
 .data          0x0000000000239800        0x0 /home/bob/ofiles/libcss-select-properties-left.o
 .data          0x0000000000239800        0x0 /home/bob/ofiles/libcss-select-properties-letter_spacing.o
 .data          0x0000000000239800        0x0 /home/bob/ofiles/libcss-select-properties-line_height.o
 .data          0x0000000000239800        0x0 /home/bob/ofiles/libcss-select-properties-list_style_image.o
 .data          0x0000000000239800        0x0 /home/bob/ofiles/libcss-select-properties-list_style_position.o
 .data          0x0000000000239800        0x0 /home/bob/ofiles/libcss-select-properties-list_style_type.o
 .data          0x0000000000239800        0x0 /home/bob/ofiles/libcss-select-properties-margin_bottom.o
 .data          0x0000000000239800        0x0 /home/bob/ofiles/libcss-select-properties-margin_left.o
 .data          0x0000000000239800        0x0 /home/bob/ofiles/libcss-select-properties-margin_right.o
 .data          0x0000000000239800        0x0 /home/bob/ofiles/libcss-select-properties-margin_top.o
 .data          0x0000000000239800        0x0 /home/bob/ofiles/libcss-select-properties-max_height.o
 .data          0x0000000000239800        0x0 /home/bob/ofiles/libcss-select-properties-max_width.o
 .data          0x0000000000239800        0x0 /home/bob/ofiles/libcss-select-properties-min_height.o
 .data          0x0000000000239800        0x0 /home/bob/ofiles/libcss-select-properties-min_width.o
 .data          0x0000000000239800        0x0 /home/bob/ofiles/libcss-select-properties-opacity.o
 .data          0x0000000000239800        0x0 /home/bob/ofiles/libcss-select-properties-orphans.o
 .data          0x0000000000239800        0x0 /home/bob/ofiles/libcss-select-properties-outline_color.o
 .data          0x0000000000239800        0x0 /home/bob/ofiles/libcss-select-properties-outline_style.o
 .data          0x0000000000239800        0x0 /home/bob/ofiles/libcss-select-properties-outline_width.o
 .data          0x0000000000239800        0x0 /home/bob/ofiles/libcss-select-properties-overflow_x.o
 .data          0x0000000000239800        0x0 /home/bob/ofiles/libcss-select-properties-overflow_y.o
 .data          0x0000000000239800        0x0 /home/bob/ofiles/libcss-select-properties-padding_bottom.o
 .data          0x0000000000239800        0x0 /home/bob/ofiles/libcss-select-properties-padding_left.o
 .data          0x0000000000239800        0x0 /home/bob/ofiles/libcss-select-properties-padding_right.o
 .data          0x0000000000239800        0x0 /home/bob/ofiles/libcss-select-properties-padding_top.o
 .data          0x0000000000239800        0x0 /home/bob/ofiles/libcss-select-properties-page_break_after.o
 .data          0x0000000000239800        0x0 /home/bob/ofiles/libcss-select-properties-page_break_before.o
 .data          0x0000000000239800        0x0 /home/bob/ofiles/libcss-select-properties-page_break_inside.o
 .data          0x0000000000239800        0x0 /home/bob/ofiles/libcss-select-properties-pause_after.o
 .data          0x0000000000239800        0x0 /home/bob/ofiles/libcss-select-properties-pause_before.o
 .data          0x0000000000239800        0x0 /home/bob/ofiles/libcss-select-properties-pitch.o
 .data          0x0000000000239800        0x0 /home/bob/ofiles/libcss-select-properties-pitch_range.o
 .data          0x0000000000239800        0x0 /home/bob/ofiles/libcss-select-properties-play_during.o
 .data          0x0000000000239800        0x0 /home/bob/ofiles/libcss-select-properties-position.o
 .data          0x0000000000239800        0x0 /home/bob/ofiles/libcss-select-properties-quotes.o
 .data          0x0000000000239800        0x0 /home/bob/ofiles/libcss-select-properties-richness.o
 .data          0x0000000000239800        0x0 /home/bob/ofiles/libcss-select-properties-right.o
 .data          0x0000000000239800        0x0 /home/bob/ofiles/libcss-select-properties-speak.o
 .data          0x0000000000239800        0x0 /home/bob/ofiles/libcss-select-properties-speak_header.o
 .data          0x0000000000239800        0x0 /home/bob/ofiles/libcss-select-properties-speak_numeral.o
 .data          0x0000000000239800        0x0 /home/bob/ofiles/libcss-select-properties-speak_punctuation.o
 .data          0x0000000000239800        0x0 /home/bob/ofiles/libcss-select-properties-speech_rate.o
 .data          0x0000000000239800        0x0 /home/bob/ofiles/libcss-select-properties-stress.o
 .data          0x0000000000239800        0x0 /home/bob/ofiles/libcss-select-properties-table_layout.o
 .data          0x0000000000239800        0x0 /home/bob/ofiles/libcss-select-properties-text_align.o
 .data          0x0000000000239800        0x0 /home/bob/ofiles/libcss-select-properties-text_decoration.o
 .data          0x0000000000239800        0x0 /home/bob/ofiles/libcss-select-properties-text_indent.o
 .data          0x0000000000239800        0x0 /home/bob/ofiles/libcss-select-properties-text_transform.o
 .data          0x0000000000239800        0x0 /home/bob/ofiles/libcss-select-properties-top.o
 .data          0x0000000000239800        0x0 /home/bob/ofiles/libcss-select-properties-unicode_bidi.o
 .data          0x0000000000239800        0x0 /home/bob/ofiles/libcss-select-properties-vertical_align.o
 .data          0x0000000000239800        0x0 /home/bob/ofiles/libcss-select-properties-visibility.o
 .data          0x0000000000239800        0x0 /home/bob/ofiles/libcss-select-properties-voice_family.o
 .data          0x0000000000239800        0x0 /home/bob/ofiles/libcss-select-properties-volume.o
 .data          0x0000000000239800        0x0 /home/bob/ofiles/libcss-select-properties-white_space.o
 .data          0x0000000000239800        0x0 /home/bob/ofiles/libcss-select-properties-widows.o
 .data          0x0000000000239800        0x0 /home/bob/ofiles/libcss-select-properties-width.o
 .data          0x0000000000239800        0x0 /home/bob/ofiles/libcss-select-properties-word_spacing.o
 .data          0x0000000000239800        0x0 /home/bob/ofiles/libcss-select-properties-writing_mode.o
 .data          0x0000000000239800        0x0 /home/bob/ofiles/libcss-select-properties-z_index.o
 .data          0x0000000000239800        0x0 /home/bob/ofiles/libcss-select-select.o
 .data          0x0000000000239800        0x0 /home/bob/ofiles/libcss-stylesheet.o
 .data          0x0000000000239800        0x0 /home/bob/ofiles/libcss-utils-errors.o
 .data          0x0000000000239800        0x0 /home/bob/ofiles/libcss-utils-utils.o
 .data          0x0000000000239800       0x60 /home/bob/ofiles/libdom-bindings-parser.o
 .data          0x0000000000239860       0xe0 /home/bob/ofiles/libdom-core-attr.o
 .data          0x0000000000239940        0x8 /home/bob/ofiles/libdom-core-cdatasection.o
 *fill*         0x0000000000239948       0x18 
 .data          0x0000000000239960       0xe0 /home/bob/ofiles/libdom-core-characterdata.o
                0x0000000000239960                characterdata_vtable
 .data          0x0000000000239a40        0x8 /home/bob/ofiles/libdom-core-comment.o
 *fill*         0x0000000000239a48       0x18 
 .data          0x0000000000239a60       0xc0 /home/bob/ofiles/libdom-core-doc_fragment.o
 .data          0x0000000000239b20      0x140 /home/bob/ofiles/libdom-core-document.o
 .data          0x0000000000239c60       0xe0 /home/bob/ofiles/libdom-core-document_type.o
 .data          0x0000000000239d40      0x160 /home/bob/ofiles/libdom-core-element.o
                0x0000000000239d40                _dom_element_vtable
 .data          0x0000000000239ea0       0xc0 /home/bob/ofiles/libdom-core-entity_ref.o
 .data          0x0000000000239f60        0x0 /home/bob/ofiles/libdom-core-implementation.o
 .data          0x0000000000239f60        0x0 /home/bob/ofiles/libdom-core-namednodemap.o
 .data          0x0000000000239f60       0xc0 /home/bob/ofiles/libdom-core-node.o
 .data          0x000000000023a020        0x0 /home/bob/ofiles/libdom-core-nodelist.o
 .data          0x000000000023a020       0xc0 /home/bob/ofiles/libdom-core-pi.o
 .data          0x000000000023a0e0        0x0 /home/bob/ofiles/libdom-core-string.o
 .data          0x000000000023a0e0      0x100 /home/bob/ofiles/libdom-core-text.o
                0x000000000023a0e0                text_vtable
 .data          0x000000000023a1e0        0x0 /home/bob/ofiles/libdom-core-typeinfo.o
 .data          0x000000000023a1e0        0x4 /home/bob/ofiles/libdom-events-custom_event.o
 .data          0x000000000023a1e4        0x0 /home/bob/ofiles/libdom-events-dispatch.o
 *fill*         0x000000000023a1e4       0x1c 
 .data          0x000000000023a200       0x40 /home/bob/ofiles/libdom-events-document_event.o
 .data          0x000000000023a240        0x4 /home/bob/ofiles/libdom-events-event.o
 .data          0x000000000023a244        0x0 /home/bob/ofiles/libdom-events-event_listener.o
 .data          0x000000000023a244        0x0 /home/bob/ofiles/libdom-events-event_target.o
 .data          0x000000000023a244        0x4 /home/bob/ofiles/libdom-events-keyboard_event.o
 .data          0x000000000023a248        0x4 /home/bob/ofiles/libdom-events-mouse_event.o
 .data          0x000000000023a24c        0x4 /home/bob/ofiles/libdom-events-mouse_multi_wheel_event.o
 .data          0x000000000023a250        0x4 /home/bob/ofiles/libdom-events-mouse_wheel_event.o
 .data          0x000000000023a254        0x4 /home/bob/ofiles/libdom-events-mutation_event.o
 .data          0x000000000023a258        0x4 /home/bob/ofiles/libdom-events-mutation_name_event.o
 .data          0x000000000023a25c        0x4 /home/bob/ofiles/libdom-events-text_event.o
 .data          0x000000000023a260        0x4 /home/bob/ofiles/libdom-events-ui_event.o
 .data          0x000000000023a264        0xc /home/bob/ofiles/libdom-html-html_anchor_element.o
 .data          0x000000000023a270        0xc /home/bob/ofiles/libdom-html-html_applet_element.o
 .data          0x000000000023a27c        0xc /home/bob/ofiles/libdom-html-html_area_element.o
 .data          0x000000000023a288        0xc /home/bob/ofiles/libdom-html-html_base_element.o
 .data          0x000000000023a294        0xc /home/bob/ofiles/libdom-html-html_basefont_element.o
 .data          0x000000000023a2a0        0xc /home/bob/ofiles/libdom-html-html_body_element.o
 .data          0x000000000023a2ac        0xc /home/bob/ofiles/libdom-html-html_br_element.o
 .data          0x000000000023a2b8        0xc /home/bob/ofiles/libdom-html-html_button_element.o
 .data          0x000000000023a2c4        0x0 /home/bob/ofiles/libdom-html-html_collection.o
 .data          0x000000000023a2c4        0xc /home/bob/ofiles/libdom-html-html_directory_element.o
 .data          0x000000000023a2d0        0xc /home/bob/ofiles/libdom-html-html_div_element.o
 .data          0x000000000023a2dc        0xc /home/bob/ofiles/libdom-html-html_dlist_element.o
 *fill*         0x000000000023a2e8       0x18 
 .data          0x000000000023a300      0x1a0 /home/bob/ofiles/libdom-html-html_document.o
 .data          0x000000000023a4a0      0x140 /home/bob/ofiles/libdom-html-html_element.o
                0x000000000023a4a0                _dom_html_element_vtable
 .data          0x000000000023a5e0        0xc /home/bob/ofiles/libdom-html-html_fieldset_element.o
 .data          0x000000000023a5ec        0xc /home/bob/ofiles/libdom-html-html_font_element.o
 .data          0x000000000023a5f8        0xc /home/bob/ofiles/libdom-html-html_form_element.o
 .data          0x000000000023a604        0xc /home/bob/ofiles/libdom-html-html_frame_element.o
 .data          0x000000000023a610        0xc /home/bob/ofiles/libdom-html-html_frameset_element.o
 .data          0x000000000023a61c        0xc /home/bob/ofiles/libdom-html-html_head_element.o
 .data          0x000000000023a628        0xc /home/bob/ofiles/libdom-html-html_heading_element.o
 .data          0x000000000023a634        0xc /home/bob/ofiles/libdom-html-html_hr_element.o
 .data          0x000000000023a640        0xc /home/bob/ofiles/libdom-html-html_html_element.o
 .data          0x000000000023a64c        0xc /home/bob/ofiles/libdom-html-html_iframe_element.o
 .data          0x000000000023a658        0xc /home/bob/ofiles/libdom-html-html_image_element.o
 .data          0x000000000023a664        0xc /home/bob/ofiles/libdom-html-html_input_element.o
 .data          0x000000000023a670        0xc /home/bob/ofiles/libdom-html-html_isindex_element.o
 .data          0x000000000023a67c        0xc /home/bob/ofiles/libdom-html-html_label_element.o
 .data          0x000000000023a688        0xc /home/bob/ofiles/libdom-html-html_legend_element.o
 .data          0x000000000023a694        0xc /home/bob/ofiles/libdom-html-html_li_element.o
 .data          0x000000000023a6a0        0xc /home/bob/ofiles/libdom-html-html_link_element.o
 .data          0x000000000023a6ac        0xc /home/bob/ofiles/libdom-html-html_map_element.o
 .data          0x000000000023a6b8        0xc /home/bob/ofiles/libdom-html-html_menu_element.o
 .data          0x000000000023a6c4        0xc /home/bob/ofiles/libdom-html-html_meta_element.o
 .data          0x000000000023a6d0        0xc /home/bob/ofiles/libdom-html-html_mod_element.o
 .data          0x000000000023a6dc        0xc /home/bob/ofiles/libdom-html-html_object_element.o
 .data          0x000000000023a6e8        0xc /home/bob/ofiles/libdom-html-html_olist_element.o
 .data          0x000000000023a6f4        0xc /home/bob/ofiles/libdom-html-html_opt_group_element.o
 .data          0x000000000023a700        0xc /home/bob/ofiles/libdom-html-html_option_element.o
 .data          0x000000000023a70c        0x0 /home/bob/ofiles/libdom-html-html_options_collection.o
 .data          0x000000000023a70c        0xc /home/bob/ofiles/libdom-html-html_paragraph_element.o
 .data          0x000000000023a718        0xc /home/bob/ofiles/libdom-html-html_param_element.o
 .data          0x000000000023a724        0xc /home/bob/ofiles/libdom-html-html_pre_element.o
 .data          0x000000000023a730        0xc /home/bob/ofiles/libdom-html-html_quote_element.o
 .data          0x000000000023a73c        0xc /home/bob/ofiles/libdom-html-html_script_element.o
 .data          0x000000000023a748        0xc /home/bob/ofiles/libdom-html-html_select_element.o
 .data          0x000000000023a754        0xc /home/bob/ofiles/libdom-html-html_style_element.o
 .data          0x000000000023a760        0xc /home/bob/ofiles/libdom-html-html_table_element.o
 .data          0x000000000023a76c        0xc /home/bob/ofiles/libdom-html-html_tablecaption_element.o
 .data          0x000000000023a778        0xc /home/bob/ofiles/libdom-html-html_tablecell_element.o
 .data          0x000000000023a784        0xc /home/bob/ofiles/libdom-html-html_tablecol_element.o
 .data          0x000000000023a790        0xc /home/bob/ofiles/libdom-html-html_tablerow_element.o
 .data          0x000000000023a79c        0xc /home/bob/ofiles/libdom-html-html_tablesection_element.o
 .data          0x000000000023a7a8        0xc /home/bob/ofiles/libdom-html-html_text_area_element.o
 .data          0x000000000023a7b4        0xc /home/bob/ofiles/libdom-html-html_title_element.o
 .data          0x000000000023a7c0        0xc /home/bob/ofiles/libdom-html-html_ulist_element.o
 .data          0x000000000023a7cc        0x0 /home/bob/ofiles/libdom-utils-character_valid.o
 .data          0x000000000023a7cc        0x0 /home/bob/ofiles/libdom-utils-hashtable.o
 .data          0x000000000023a7cc       0x1c /home/bob/ofiles/libdom-utils-namespace.o
 .data          0x000000000023a7e8        0x0 /home/bob/ofiles/libdom-utils-validate.o
 .data          0x000000000023a7e8        0x0 /home/bob/ofiles/libhubbub-charset-detect.o
 .data          0x000000000023a7e8        0x0 /home/bob/ofiles/libhubbub-parser.o
 *fill*         0x000000000023a7e8       0x18 
 .data          0x000000000023a800    0x38cc0 /home/bob/ofiles/libhubbub-tokeniser-entities.o
 .data          0x00000000002734c0        0x0 /home/bob/ofiles/libhubbub-tokeniser-tokeniser.o
 .data          0x00000000002734c0        0x0 /home/bob/ofiles/libhubbub-treebuilder-after_after_body.o
 .data          0x00000000002734c0        0x0 /home/bob/ofiles/libhubbub-treebuilder-after_after_frameset.o
 .data          0x00000000002734c0        0x0 /home/bob/ofiles/libhubbub-treebuilder-after_body.o
 .data          0x00000000002734c0        0x0 /home/bob/ofiles/libhubbub-treebuilder-after_frameset.o
 .data          0x00000000002734c0        0x0 /home/bob/ofiles/libhubbub-treebuilder-after_head.o
 .data          0x00000000002734c0        0x0 /home/bob/ofiles/libhubbub-treebuilder-before_head.o
 .data          0x00000000002734c0        0x0 /home/bob/ofiles/libhubbub-treebuilder-before_html.o
 .data          0x00000000002734c0        0x0 /home/bob/ofiles/libhubbub-treebuilder-generic_rcdata.o
 .data          0x00000000002734c0        0x0 /home/bob/ofiles/libhubbub-treebuilder-in_body.o
 .data          0x00000000002734c0        0x0 /home/bob/ofiles/libhubbub-treebuilder-in_caption.o
 .data          0x00000000002734c0        0x0 /home/bob/ofiles/libhubbub-treebuilder-in_cell.o
 .data          0x00000000002734c0        0x0 /home/bob/ofiles/libhubbub-treebuilder-in_column_group.o
 .data          0x00000000002734c0        0x0 /home/bob/ofiles/libhubbub-treebuilder-in_foreign_content.o
 .data          0x00000000002734c0        0x0 /home/bob/ofiles/libhubbub-treebuilder-in_frameset.o
 .data          0x00000000002734c0        0x0 /home/bob/ofiles/libhubbub-treebuilder-in_head.o
 .data          0x00000000002734c0        0x0 /home/bob/ofiles/libhubbub-treebuilder-in_head_noscript.o
 .data          0x00000000002734c0        0x0 /home/bob/ofiles/libhubbub-treebuilder-in_row.o
 .data          0x00000000002734c0        0x0 /home/bob/ofiles/libhubbub-treebuilder-in_select.o
 .data          0x00000000002734c0        0x0 /home/bob/ofiles/libhubbub-treebuilder-in_select_in_table.o
 .data          0x00000000002734c0        0x0 /home/bob/ofiles/libhubbub-treebuilder-in_table.o
 .data          0x00000000002734c0        0x0 /home/bob/ofiles/libhubbub-treebuilder-in_table_body.o
 .data          0x00000000002734c0      0x1c0 /home/bob/ofiles/libhubbub-treebuilder-initial.o
                0x00000000002734c0                public_doctypes
 .data          0x0000000000273680        0x0 /home/bob/ofiles/libhubbub-treebuilder-treebuilder.o
 .data          0x0000000000273680        0x0 /home/bob/ofiles/libhubbub-utils-errors.o
 .data          0x0000000000273680        0x0 /home/bob/ofiles/libhubbub-utils-string.o
 .data          0x0000000000273680        0x0 /home/bob/ofiles/libnsbmp-libnsbmp.o
 .data          0x0000000000273680       0x40 /home/bob/ofiles/libnsgif-libnsgif.o
 .data          0x00000000002736c0       0x60 /home/bob/ofiles/libnsutils-base64.o
 .data          0x0000000000273720        0x0 /home/bob/ofiles/libnsutils-time.o
 .data          0x0000000000273720        0x0 /home/bob/ofiles/libnsutils-unistd.o
 .data          0x0000000000273720     0x3040 /home/bob/ofiles/libparserutils-charset-aliases.o
 .data          0x0000000000276760       0x18 /home/bob/ofiles/libparserutils-charset-codec.o
 *fill*         0x0000000000276778        0x8 
 .data          0x0000000000276780     0x1780 /home/bob/ofiles/libparserutils-charset-codecs-codec_8859.o
 .data          0x0000000000277f00        0x4 /home/bob/ofiles/libparserutils-charset-codecs-codec_ascii.o
 *fill*         0x0000000000277f04       0x1c 
 .data          0x0000000000277f20     0x12a0 /home/bob/ofiles/libparserutils-charset-codecs-codec_ext8.o
 .data          0x00000000002791c0        0x4 /home/bob/ofiles/libparserutils-charset-codecs-codec_utf16.o
 .data          0x00000000002791c4        0x4 /home/bob/ofiles/libparserutils-charset-codecs-codec_utf8.o
 .data          0x00000000002791c8        0x0 /home/bob/ofiles/libparserutils-charset-encodings-utf16.o
 .data          0x00000000002791c8        0x0 /home/bob/ofiles/libparserutils-charset-encodings-utf8.o
 .data          0x00000000002791c8        0x0 /home/bob/ofiles/libparserutils-input-filter.o
 .data          0x00000000002791c8        0x0 /home/bob/ofiles/libparserutils-input-inputstream.o
 .data          0x00000000002791c8        0x0 /home/bob/ofiles/libparserutils-utils-buffer.o
 .data          0x00000000002791c8        0x0 /home/bob/ofiles/libparserutils-utils-errors.o
 .data          0x00000000002791c8        0x0 /home/bob/ofiles/libparserutils-utils-stack.o
 .data          0x00000000002791c8        0x0 /home/bob/ofiles/libparserutils-utils-vector.o
 .data          0x00000000002791c8        0x0 /home/bob/ofiles/libutf8proc-utf8proc.o
 .data          0x00000000002791c8        0x0 /home/bob/ofiles/libwapcaplet-libwapcaplet.o
 .data          0x00000000002791c8        0x0 /home/autobuild/tools/win32/mingw32/lib/libgcc.a(_udivdi3.o)
 .data          0x00000000002791c8        0x0 /home/autobuild/tools/win32/mingw32/lib/libgcc.a(_chkstk_ms.o)
 .data          0x00000000002791c8        0x0 /home/autobuild/tools/win32/mingw32/lib/libgcc.a(_divdi3.o)
 .data          0x00000000002791c8        0x4 /home/autobuild/tools/win32/mingw32/lib/libgcc.a(__main.o)
 .data          0x00000000002791cc        0x0 /home/autobuild/tools/win32/mingw32/lib/libgcc.a(_ctors.o)
 .data          0x00000000002791cc        0x0 /home/autobuild/tools/win32/lib/libz.a(gzlib.o)
 .data          0x00000000002791cc        0x0 /home/autobuild/tools/win32/lib/libz.a(gzclose.o)
 .data          0x00000000002791cc        0x0 /home/autobuild/tools/win32/lib/libz.a(gzread.o)
 .data          0x00000000002791cc        0x0 /home/autobuild/tools/win32/lib/libz.a(inflate.o)
 .data          0x00000000002791cc        0x0 /home/autobuild/tools/win32/lib/libz.a(gzwrite.o)
 .data          0x00000000002791cc        0x0 /home/autobuild/tools/win32/lib/libz.a(zutil.o)
 .data          0x00000000002791cc        0x0 /home/autobuild/tools/win32/lib/libz.a(adler32.o)
 .data          0x00000000002791cc        0x0 /home/autobuild/tools/win32/lib/libz.a(crc32.o)
 .data          0x00000000002791cc        0x0 /home/autobuild/tools/win32/lib/libz.a(inftrees.o)
 .data          0x00000000002791cc        0x0 /home/autobuild/tools/win32/lib/libz.a(inffast.o)
 .data          0x00000000002791cc        0x0 /home/autobuild/tools/win32/lib/libz.a(deflate.o)
 .data          0x00000000002791cc       0x3c /home/autobuild/tools/win32/lib/libz.a(trees.o)
 .data          0x0000000000279208        0x0 /home/autobuild/tools/win32/lib/libapp.a(start.o)
 .data          0x0000000000279208        0x0 /home/autobuild/tools/win32/lib/libapp.a(crt3.o)
 .data          0x0000000000279208        0x0 /home/autobuild/tools/win32/lib/libapp.a(crtloader.o)
 .data          0x0000000000279208        0x0 ../../inst/lib/libnsfb.a(src_libnsfb.o)
 .data          0x0000000000279208        0x0 ../../inst/lib/libnsfb.a(src_plot_api.o)
 .data          0x0000000000279208        0x0 ../../inst/lib/libnsfb.a(src_cursor.o)
 .data          0x0000000000279208        0x0 ../../inst/lib/libnsfb.a(src_surface_surface.o)
 .data          0x0000000000279208        0x0 ../../inst/lib/libnsfb.a(src_palette.o)
 .data          0x0000000000279208        0x0 ../../inst/lib/libnsfb.a(src_plot_generic.o)
 .data          0x0000000000279208        0x0 ../../inst/lib/libnsfb.a(src_plot_16bpp.o)
 .data          0x0000000000279208        0x0 ../../inst/lib/libnsfb.a(src_plot_32bpp-xrgb8888.o)
 .data          0x0000000000279208        0x0 ../../inst/lib/libnsfb.a(src_plot_32bpp-xbgr8888.o)
 .data          0x0000000000279208        0x0 ../../inst/lib/libnsfb.a(src_plot_8bpp.o)
 .data          0x0000000000279208        0x0 ../../inst/lib/libnsfb.a(src_plot_util.o)
 *(.data2)
 *(SORT(.data$*))
 *(.jcr)
                0x0000000000279208                __CRT_MT = .
                0x0000000000279208        0x4 LONG 0x0
                0x000000000027920c                PROVIDE (__data_end__, .)
 *(.data_cygwin_nocopy)
                0x000000000027920c                ___iend = .

.idata          0x0000000000279210      0x800
                0x0000000000279210                __idata_start = .
 SORT(*)(.idata$2)
 .idata$2       0x0000000000279210       0x14 /home/autobuild/tools/win32/lib/libc.dll.a(d000000.o)
                0x0000000000279210                _head_libc_dll
 SORT(*)(.idata$3)
                0x0000000000279224        0x4 LONG 0x0
                0x0000000000279228        0x4 LONG 0x0
                0x000000000027922c        0x4 LONG 0x0
                0x0000000000279230        0x4 LONG 0x0
                0x0000000000279234        0x4 LONG 0x0
 SORT(*)(.idata$4)
 .idata$4       0x0000000000279238        0x0 /home/autobuild/tools/win32/lib/libc.dll.a(d000000.o)
 .idata$4       0x0000000000279238        0x4 /home/autobuild/tools/win32/lib/libc.dll.a(d000006.o)
 .idata$4       0x000000000027923c        0x4 /home/autobuild/tools/win32/lib/libc.dll.a(d000007.o)
 .idata$4       0x0000000000279240        0x4 /home/autobuild/tools/win32/lib/libc.dll.a(d000009.o)
 .idata$4       0x0000000000279244        0x4 /home/autobuild/tools/win32/lib/libc.dll.a(d000187.o)
 .idata$4       0x0000000000279248        0x4 /home/autobuild/tools/win32/lib/libc.dll.a(d000208.o)
 .idata$4       0x000000000027924c        0x4 /home/autobuild/tools/win32/lib/libc.dll.a(d000210.o)
 .idata$4       0x0000000000279250        0x4 /home/autobuild/tools/win32/lib/libc.dll.a(d000212.o)
 .idata$4       0x0000000000279254        0x4 /home/autobuild/tools/win32/lib/libc.dll.a(d000215.o)
 .idata$4       0x0000000000279258        0x4 /home/autobuild/tools/win32/lib/libc.dll.a(d000216.o)
 .idata$4       0x000000000027925c        0x4 /home/autobuild/tools/win32/lib/libc.dll.a(d000220.o)
 .idata$4       0x0000000000279260        0x4 /home/autobuild/tools/win32/lib/libc.dll.a(d000236.o)
 .idata$4       0x0000000000279264        0x4 /home/autobuild/tools/win32/lib/libc.dll.a(d000253.o)
 .idata$4       0x0000000000279268        0x4 /home/autobuild/tools/win32/lib/libc.dll.a(d000264.o)
 .idata$4       0x000000000027926c        0x4 /home/autobuild/tools/win32/lib/libc.dll.a(d000272.o)
 .idata$4       0x0000000000279270        0x4 /home/autobuild/tools/win32/lib/libc.dll.a(d000274.o)
 .idata$4       0x0000000000279274        0x4 /home/autobuild/tools/win32/lib/libc.dll.a(d000291.o)
 .idata$4       0x0000000000279278        0x4 /home/autobuild/tools/win32/lib/libc.dll.a(d000292.o)
 .idata$4       0x000000000027927c        0x4 /home/autobuild/tools/win32/lib/libc.dll.a(d000293.o)
 .idata$4       0x0000000000279280        0x4 /home/autobuild/tools/win32/lib/libc.dll.a(d000294.o)
 .idata$4       0x0000000000279284        0x4 /home/autobuild/tools/win32/lib/libc.dll.a(d000296.o)
 .idata$4       0x0000000000279288        0x4 /home/autobuild/tools/win32/lib/libc.dll.a(d000297.o)
 .idata$4       0x000000000027928c        0x4 /home/autobuild/tools/win32/lib/libc.dll.a(d000302.o)
 .idata$4       0x0000000000279290        0x4 /home/autobuild/tools/win32/lib/libc.dll.a(d000305.o)
 .idata$4       0x0000000000279294        0x4 /home/autobuild/tools/win32/lib/libc.dll.a(d000307.o)
 .idata$4       0x0000000000279298        0x4 /home/autobuild/tools/win32/lib/libc.dll.a(d000315.o)
 .idata$4       0x000000000027929c        0x4 /home/autobuild/tools/win32/lib/libc.dll.a(d000316.o)
 .idata$4       0x00000000002792a0        0x4 /home/autobuild/tools/win32/lib/libc.dll.a(d000317.o)
 .idata$4       0x00000000002792a4        0x4 /home/autobuild/tools/win32/lib/libc.dll.a(d000332.o)
 .idata$4       0x00000000002792a8        0x4 /home/autobuild/tools/win32/lib/libc.dll.a(d000385.o)
 .idata$4       0x00000000002792ac        0x4 /home/autobuild/tools/win32/lib/libc.dll.a(d000403.o)
 .idata$4       0x00000000002792b0        0x4 /home/autobuild/tools/win32/lib/libc.dll.a(d000405.o)
 .idata$4       0x00000000002792b4        0x4 /home/autobuild/tools/win32/lib/libc.dll.a(d000411.o)
 .idata$4       0x00000000002792b8        0x4 /home/autobuild/tools/win32/lib/libc.dll.a(d000412.o)
 .idata$4       0x00000000002792bc        0x4 /home/autobuild/tools/win32/lib/libc.dll.a(d000413.o)
 .idata$4       0x00000000002792c0        0x4 /home/autobuild/tools/win32/lib/libc.dll.a(d000414.o)
 .idata$4       0x00000000002792c4        0x4 /home/autobuild/tools/win32/lib/libc.dll.a(d000415.o)
 .idata$4       0x00000000002792c8        0x4 /home/autobuild/tools/win32/lib/libc.dll.a(d000422.o)
 .idata$4       0x00000000002792cc        0x4 /home/autobuild/tools/win32/lib/libc.dll.a(d000431.o)
 .idata$4       0x00000000002792d0        0x4 /home/autobuild/tools/win32/lib/libc.dll.a(d000438.o)
 .idata$4       0x00000000002792d4        0x4 /home/autobuild/tools/win32/lib/libc.dll.a(d000440.o)
 .idata$4       0x00000000002792d8        0x4 /home/autobuild/tools/win32/lib/libc.dll.a(d000441.o)
 .idata$4       0x00000000002792dc        0x4 /home/autobuild/tools/win32/lib/libc.dll.a(d000442.o)
 .idata$4       0x00000000002792e0        0x4 /home/autobuild/tools/win32/lib/libc.dll.a(d000444.o)
 .idata$4       0x00000000002792e4        0x4 /home/autobuild/tools/win32/lib/libc.dll.a(d000446.o)
 .idata$4       0x00000000002792e8        0x4 /home/autobuild/tools/win32/lib/libc.dll.a(d000448.o)
 .idata$4       0x00000000002792ec        0x4 /home/autobuild/tools/win32/lib/libc.dll.a(d000451.o)
 .idata$4       0x00000000002792f0        0x4 /home/autobuild/tools/win32/lib/libc.dll.a(d000454.o)
 .idata$4       0x00000000002792f4        0x4 /home/autobuild/tools/win32/lib/libc.dll.a(d000471.o)
 .idata$4       0x00000000002792f8        0x4 /home/autobuild/tools/win32/lib/libc.dll.a(d000473.o)
 .idata$4       0x00000000002792fc        0x4 /home/autobuild/tools/win32/lib/libc.dll.a(d000485.o)
 .idata$4       0x0000000000279300        0x4 /home/autobuild/tools/win32/lib/libc.dll.a(d000486.o)
 .idata$4       0x0000000000279304        0x4 /home/autobuild/tools/win32/lib/libc.dll.a(d000491.o)
 .idata$4       0x0000000000279308        0x4 /home/autobuild/tools/win32/lib/libc.dll.a(d000495.o)
 .idata$4       0x000000000027930c        0x4 /home/autobuild/tools/win32/lib/libc.dll.a(d000497.o)
 .idata$4       0x0000000000279310        0x4 /home/autobuild/tools/win32/lib/libc.dll.a(d000498.o)
 .idata$4       0x0000000000279314        0x4 /home/autobuild/tools/win32/lib/libc.dll.a(d000499.o)
 .idata$4       0x0000000000279318        0x4 /home/autobuild/tools/win32/lib/libc.dll.a(d000501.o)
 .idata$4       0x000000000027931c        0x4 /home/autobuild/tools/win32/lib/libc.dll.a(d000502.o)
 .idata$4       0x0000000000279320        0x4 /home/autobuild/tools/win32/lib/libc.dll.a(d000503.o)
 .idata$4       0x0000000000279324        0x4 /home/autobuild/tools/win32/lib/libc.dll.a(d000504.o)
 .idata$4       0x0000000000279328        0x4 /home/autobuild/tools/win32/lib/libc.dll.a(d000505.o)
 .idata$4       0x000000000027932c        0x4 /home/autobuild/tools/win32/lib/libc.dll.a(d000506.o)
 .idata$4       0x0000000000279330        0x4 /home/autobuild/tools/win32/lib/libc.dll.a(d000507.o)
 .idata$4       0x0000000000279334        0x4 /home/autobuild/tools/win32/lib/libc.dll.a(d000509.o)
 .idata$4       0x0000000000279338        0x4 /home/autobuild/tools/win32/lib/libc.dll.a(d000510.o)
 .idata$4       0x000000000027933c        0x4 /home/autobuild/tools/win32/lib/libc.dll.a(d000511.o)
 .idata$4       0x0000000000279340        0x4 /home/autobuild/tools/win32/lib/libc.dll.a(d000513.o)
 .idata$4       0x0000000000279344        0x4 /home/autobuild/tools/win32/lib/libc.dll.a(d000514.o)
 .idata$4       0x0000000000279348        0x4 /home/autobuild/tools/win32/lib/libc.dll.a(d000516.o)
 .idata$4       0x000000000027934c        0x4 /home/autobuild/tools/win32/lib/libc.dll.a(d000517.o)
 .idata$4       0x0000000000279350        0x4 /home/autobuild/tools/win32/lib/libc.dll.a(d000519.o)
 .idata$4       0x0000000000279354        0x4 /home/autobuild/tools/win32/lib/libc.dll.a(d000520.o)
 .idata$4       0x0000000000279358        0x4 /home/autobuild/tools/win32/lib/libc.dll.a(d000522.o)
 .idata$4       0x000000000027935c        0x4 /home/autobuild/tools/win32/lib/libc.dll.a(d000525.o)
 .idata$4       0x0000000000279360        0x4 /home/autobuild/tools/win32/lib/libc.dll.a(d000536.o)
 .idata$4       0x0000000000279364        0x4 /home/autobuild/tools/win32/lib/libc.dll.a(d000560.o)
 .idata$4       0x0000000000279368        0x4 /home/autobuild/tools/win32/lib/libc.dll.a(d000563.o)
 .idata$4       0x000000000027936c        0x4 /home/autobuild/tools/win32/lib/libc.dll.a(d000564.o)
 .idata$4       0x0000000000279370        0x4 /home/autobuild/tools/win32/lib/libc.dll.a(d000569.o)
 .idata$4       0x0000000000279374        0x4 /home/autobuild/tools/win32/lib/libc.dll.a(d000577.o)
 SORT(*)(.idata$5)
 .idata$5       0x0000000000279378        0x0 /home/autobuild/tools/win32/lib/libc.dll.a(d000000.o)
 .idata$5       0x0000000000279378        0x4 /home/autobuild/tools/win32/lib/libc.dll.a(d000006.o)
                0x0000000000279378                _imp____assert_func
 .idata$5       0x000000000027937c        0x4 /home/autobuild/tools/win32/lib/libc.dll.a(d000007.o)
                0x000000000027937c                _imp____ctype_ptr__
 .idata$5       0x0000000000279380        0x4 /home/autobuild/tools/win32/lib/libc.dll.a(d000009.o)
                0x0000000000279380                _imp____errno
 .idata$5       0x0000000000279384        0x4 /home/autobuild/tools/win32/lib/libc.dll.a(d000187.o)
                0x0000000000279384                _imp__abort
 .idata$5       0x0000000000279388        0x4 /home/autobuild/tools/win32/lib/libc.dll.a(d000208.o)
                0x0000000000279388                _imp__atoi
 .idata$5       0x000000000027938c        0x4 /home/autobuild/tools/win32/lib/libc.dll.a(d000210.o)
                0x000000000027938c                _imp__bsearch
 .idata$5       0x0000000000279390        0x4 /home/autobuild/tools/win32/lib/libc.dll.a(d000212.o)
                0x0000000000279390                _imp__calloc
 .idata$5       0x0000000000279394        0x4 /home/autobuild/tools/win32/lib/libc.dll.a(d000215.o)
                0x0000000000279394                _imp__ceil
 .idata$5       0x0000000000279398        0x4 /home/autobuild/tools/win32/lib/libc.dll.a(d000216.o)
                0x0000000000279398                _imp__ceilf
 .idata$5       0x000000000027939c        0x4 /home/autobuild/tools/win32/lib/libc.dll.a(d000220.o)
                0x000000000027939c                _imp__close
 .idata$5       0x00000000002793a0        0x4 /home/autobuild/tools/win32/lib/libc.dll.a(d000236.o)
                0x00000000002793a0                _imp__ctime
 .idata$5       0x00000000002793a4        0x4 /home/autobuild/tools/win32/lib/libc.dll.a(d000253.o)
                0x00000000002793a4                _imp__exit
 .idata$5       0x00000000002793a8        0x4 /home/autobuild/tools/win32/lib/libc.dll.a(d000264.o)
                0x00000000002793a8                _imp__fclose
 .idata$5       0x00000000002793ac        0x4 /home/autobuild/tools/win32/lib/libc.dll.a(d000272.o)
                0x00000000002793ac                _imp__fflush
 .idata$5       0x00000000002793b0        0x4 /home/autobuild/tools/win32/lib/libc.dll.a(d000274.o)
                0x00000000002793b0                _imp__fgets
 .idata$5       0x00000000002793b4        0x4 /home/autobuild/tools/win32/lib/libc.dll.a(d000291.o)
                0x00000000002793b4                _imp__fopen
 .idata$5       0x00000000002793b8        0x4 /home/autobuild/tools/win32/lib/libc.dll.a(d000292.o)
                0x00000000002793b8                _imp__fprintf
 .idata$5       0x00000000002793bc        0x4 /home/autobuild/tools/win32/lib/libc.dll.a(d000293.o)
                0x00000000002793bc                _imp__fputc
 .idata$5       0x00000000002793c0        0x4 /home/autobuild/tools/win32/lib/libc.dll.a(d000294.o)
                0x00000000002793c0                _imp__fputs
 .idata$5       0x00000000002793c4        0x4 /home/autobuild/tools/win32/lib/libc.dll.a(d000296.o)
                0x00000000002793c4                _imp__fread
 .idata$5       0x00000000002793c8        0x4 /home/autobuild/tools/win32/lib/libc.dll.a(d000297.o)
                0x00000000002793c8                _imp__free
 .idata$5       0x00000000002793cc        0x4 /home/autobuild/tools/win32/lib/libc.dll.a(d000302.o)
                0x00000000002793cc                _imp__fseek
 .idata$5       0x00000000002793d0        0x4 /home/autobuild/tools/win32/lib/libc.dll.a(d000305.o)
                0x00000000002793d0                _imp__ftell
 .idata$5       0x00000000002793d4        0x4 /home/autobuild/tools/win32/lib/libc.dll.a(d000307.o)
                0x00000000002793d4                _imp__fwrite
 .idata$5       0x00000000002793d8        0x4 /home/autobuild/tools/win32/lib/libc.dll.a(d000315.o)
                0x00000000002793d8                _imp__getenv
 .idata$5       0x00000000002793dc        0x4 /home/autobuild/tools/win32/lib/libc.dll.a(d000316.o)
                0x00000000002793dc                _imp__gettimeofday
 .idata$5       0x00000000002793e0        0x4 /home/autobuild/tools/win32/lib/libc.dll.a(d000317.o)
                0x00000000002793e0                _imp__gmtime
 .idata$5       0x00000000002793e4        0x4 /home/autobuild/tools/win32/lib/libc.dll.a(d000332.o)
                0x00000000002793e4                _imp__isascii
 .idata$5       0x00000000002793e8        0x4 /home/autobuild/tools/win32/lib/libc.dll.a(d000385.o)
                0x00000000002793e8                _imp__localtime
 .idata$5       0x00000000002793ec        0x4 /home/autobuild/tools/win32/lib/libc.dll.a(d000403.o)
                0x00000000002793ec                _imp__lseek
 .idata$5       0x00000000002793f0        0x4 /home/autobuild/tools/win32/lib/libc.dll.a(d000405.o)
                0x00000000002793f0                _imp__malloc
 .idata$5       0x00000000002793f4        0x4 /home/autobuild/tools/win32/lib/libc.dll.a(d000411.o)
                0x00000000002793f4                _imp__memchr
 .idata$5       0x00000000002793f8        0x4 /home/autobuild/tools/win32/lib/libc.dll.a(d000412.o)
                0x00000000002793f8                _imp__memcmp
 .idata$5       0x00000000002793fc        0x4 /home/autobuild/tools/win32/lib/libc.dll.a(d000413.o)
                0x00000000002793fc                _imp__memcpy
 .idata$5       0x0000000000279400        0x4 /home/autobuild/tools/win32/lib/libc.dll.a(d000414.o)
                0x0000000000279400                _imp__memmove
 .idata$5       0x0000000000279404        0x4 /home/autobuild/tools/win32/lib/libc.dll.a(d000415.o)
                0x0000000000279404                _imp__memset
 .idata$5       0x0000000000279408        0x4 /home/autobuild/tools/win32/lib/libc.dll.a(d000422.o)
                0x0000000000279408                _imp__mktime
 .idata$5       0x000000000027940c        0x4 /home/autobuild/tools/win32/lib/libc.dll.a(d000431.o)
                0x000000000027940c                _imp__open
 .idata$5       0x0000000000279410        0x4 /home/autobuild/tools/win32/lib/libc.dll.a(d000438.o)
                0x0000000000279410                _imp__printf
 .idata$5       0x0000000000279414        0x4 /home/autobuild/tools/win32/lib/libc.dll.a(d000440.o)
                0x0000000000279414                _imp__putchar
 .idata$5       0x0000000000279418        0x4 /home/autobuild/tools/win32/lib/libc.dll.a(d000441.o)
                0x0000000000279418                _imp__puts
 .idata$5       0x000000000027941c        0x4 /home/autobuild/tools/win32/lib/libc.dll.a(d000442.o)
                0x000000000027941c                _imp__qsort
 .idata$5       0x0000000000279420        0x4 /home/autobuild/tools/win32/lib/libc.dll.a(d000444.o)
                0x0000000000279420                _imp__rand
 .idata$5       0x0000000000279424        0x4 /home/autobuild/tools/win32/lib/libc.dll.a(d000446.o)
                0x0000000000279424                _imp__read
 .idata$5       0x0000000000279428        0x4 /home/autobuild/tools/win32/lib/libc.dll.a(d000448.o)
                0x0000000000279428                _imp__realloc
 .idata$5       0x000000000027942c        0x4 /home/autobuild/tools/win32/lib/libc.dll.a(d000451.o)
                0x000000000027942c                _imp__remove
 .idata$5       0x0000000000279430        0x4 /home/autobuild/tools/win32/lib/libc.dll.a(d000454.o)
                0x0000000000279430                _imp__rename
 .idata$5       0x0000000000279434        0x4 /home/autobuild/tools/win32/lib/libc.dll.a(d000471.o)
                0x0000000000279434                _imp__setlocale
 .idata$5       0x0000000000279438        0x4 /home/autobuild/tools/win32/lib/libc.dll.a(d000473.o)
                0x0000000000279438                _imp__signal
 .idata$5       0x000000000027943c        0x4 /home/autobuild/tools/win32/lib/libc.dll.a(d000485.o)
                0x000000000027943c                _imp__snprintf
 .idata$5       0x0000000000279440        0x4 /home/autobuild/tools/win32/lib/libc.dll.a(d000486.o)
                0x0000000000279440                _imp__sprintf
 .idata$5       0x0000000000279444        0x4 /home/autobuild/tools/win32/lib/libc.dll.a(d000491.o)
                0x0000000000279444                _imp__sscanf
 .idata$5       0x0000000000279448        0x4 /home/autobuild/tools/win32/lib/libc.dll.a(d000495.o)
                0x0000000000279448                _imp__strcasecmp
 .idata$5       0x000000000027944c        0x4 /home/autobuild/tools/win32/lib/libc.dll.a(d000497.o)
                0x000000000027944c                _imp__strcat
 .idata$5       0x0000000000279450        0x4 /home/autobuild/tools/win32/lib/libc.dll.a(d000498.o)
                0x0000000000279450                _imp__strchr
 .idata$5       0x0000000000279454        0x4 /home/autobuild/tools/win32/lib/libc.dll.a(d000499.o)
                0x0000000000279454                _imp__strcmp
 .idata$5       0x0000000000279458        0x4 /home/autobuild/tools/win32/lib/libc.dll.a(d000501.o)
                0x0000000000279458                _imp__strcpy
 .idata$5       0x000000000027945c        0x4 /home/autobuild/tools/win32/lib/libc.dll.a(d000502.o)
                0x000000000027945c                _imp__strcspn
 .idata$5       0x0000000000279460        0x4 /home/autobuild/tools/win32/lib/libc.dll.a(d000503.o)
                0x0000000000279460                _imp__strdup
 .idata$5       0x0000000000279464        0x4 /home/autobuild/tools/win32/lib/libc.dll.a(d000504.o)
                0x0000000000279464                _imp__strerror
 .idata$5       0x0000000000279468        0x4 /home/autobuild/tools/win32/lib/libc.dll.a(d000505.o)
                0x0000000000279468                _imp__strftime
 .idata$5       0x000000000027946c        0x4 /home/autobuild/tools/win32/lib/libc.dll.a(d000506.o)
                0x000000000027946c                _imp__strlen
 .idata$5       0x0000000000279470        0x4 /home/autobuild/tools/win32/lib/libc.dll.a(d000507.o)
                0x0000000000279470                _imp__strncasecmp
 .idata$5       0x0000000000279474        0x4 /home/autobuild/tools/win32/lib/libc.dll.a(d000509.o)
                0x0000000000279474                _imp__strncmp
 .idata$5       0x0000000000279478        0x4 /home/autobuild/tools/win32/lib/libc.dll.a(d000510.o)
                0x0000000000279478                _imp__strncpy
 .idata$5       0x000000000027947c        0x4 /home/autobuild/tools/win32/lib/libc.dll.a(d000511.o)
                0x000000000027947c                _imp__strndup
 .idata$5       0x0000000000279480        0x4 /home/autobuild/tools/win32/lib/libc.dll.a(d000513.o)
                0x0000000000279480                _imp__strpbrk
 .idata$5       0x0000000000279484        0x4 /home/autobuild/tools/win32/lib/libc.dll.a(d000514.o)
                0x0000000000279484                _imp__strrchr
 .idata$5       0x0000000000279488        0x4 /home/autobuild/tools/win32/lib/libc.dll.a(d000516.o)
                0x0000000000279488                _imp__strspn
 .idata$5       0x000000000027948c        0x4 /home/autobuild/tools/win32/lib/libc.dll.a(d000517.o)
                0x000000000027948c                _imp__strstr
 .idata$5       0x0000000000279490        0x4 /home/autobuild/tools/win32/lib/libc.dll.a(d000519.o)
                0x0000000000279490                _imp__strtof
 .idata$5       0x0000000000279494        0x4 /home/autobuild/tools/win32/lib/libc.dll.a(d000520.o)
                0x0000000000279494                _imp__strtok
 .idata$5       0x0000000000279498        0x4 /home/autobuild/tools/win32/lib/libc.dll.a(d000522.o)
                0x0000000000279498                _imp__strtol
 .idata$5       0x000000000027949c        0x4 /home/autobuild/tools/win32/lib/libc.dll.a(d000525.o)
                0x000000000027949c                _imp__strtoul
 .idata$5       0x00000000002794a0        0x4 /home/autobuild/tools/win32/lib/libc.dll.a(d000536.o)
                0x00000000002794a0                _imp__time
 .idata$5       0x00000000002794a4        0x4 /home/autobuild/tools/win32/lib/libc.dll.a(d000560.o)
                0x00000000002794a4                _imp__vfprintf
 .idata$5       0x00000000002794a8        0x4 /home/autobuild/tools/win32/lib/libc.dll.a(d000563.o)
                0x00000000002794a8                _imp__vsnprintf
 .idata$5       0x00000000002794ac        0x4 /home/autobuild/tools/win32/lib/libc.dll.a(d000564.o)
                0x00000000002794ac                _imp__vsprintf
 .idata$5       0x00000000002794b0        0x4 /home/autobuild/tools/win32/lib/libc.dll.a(d000569.o)
                0x00000000002794b0                _imp__write
 .idata$5       0x00000000002794b4        0x4 /home/autobuild/tools/win32/lib/libc.dll.a(d000577.o)
 SORT(*)(.idata$6)
 .idata$6       0x00000000002794b8       0x10 /home/autobuild/tools/win32/lib/libc.dll.a(d000006.o)
 .idata$6       0x00000000002794c8       0x10 /home/autobuild/tools/win32/lib/libc.dll.a(d000007.o)
                0x00000000002794c8                _nm____ctype_ptr__
 .idata$6       0x00000000002794d8        0xc /home/autobuild/tools/win32/lib/libc.dll.a(d000009.o)
 .idata$6       0x00000000002794e4        0x8 /home/autobuild/tools/win32/lib/libc.dll.a(d000187.o)
 .idata$6       0x00000000002794ec        0x8 /home/autobuild/tools/win32/lib/libc.dll.a(d000208.o)
 .idata$6       0x00000000002794f4        0xc /home/autobuild/tools/win32/lib/libc.dll.a(d000210.o)
 .idata$6       0x0000000000279500        0xc /home/autobuild/tools/win32/lib/libc.dll.a(d000212.o)
 .idata$6       0x000000000027950c        0x8 /home/autobuild/tools/win32/lib/libc.dll.a(d000215.o)
 .idata$6       0x0000000000279514        0x8 /home/autobuild/tools/win32/lib/libc.dll.a(d000216.o)
 .idata$6       0x000000000027951c        0x8 /home/autobuild/tools/win32/lib/libc.dll.a(d000220.o)
 .idata$6       0x0000000000279524        0x8 /home/autobuild/tools/win32/lib/libc.dll.a(d000236.o)
 .idata$6       0x000000000027952c        0x8 /home/autobuild/tools/win32/lib/libc.dll.a(d000253.o)
 .idata$6       0x0000000000279534        0xc /home/autobuild/tools/win32/lib/libc.dll.a(d000264.o)
 .idata$6       0x0000000000279540        0xc /home/autobuild/tools/win32/lib/libc.dll.a(d000272.o)
 .idata$6       0x000000000027954c        0x8 /home/autobuild/tools/win32/lib/libc.dll.a(d000274.o)
 .idata$6       0x0000000000279554        0x8 /home/autobuild/tools/win32/lib/libc.dll.a(d000291.o)
 .idata$6       0x000000000027955c        0xc /home/autobuild/tools/win32/lib/libc.dll.a(d000292.o)
 .idata$6       0x0000000000279568        0x8 /home/autobuild/tools/win32/lib/libc.dll.a(d000293.o)
 .idata$6       0x0000000000279570        0x8 /home/autobuild/tools/win32/lib/libc.dll.a(d000294.o)
 .idata$6       0x0000000000279578        0x8 /home/autobuild/tools/win32/lib/libc.dll.a(d000296.o)
 .idata$6       0x0000000000279580        0x8 /home/autobuild/tools/win32/lib/libc.dll.a(d000297.o)
 .idata$6       0x0000000000279588        0x8 /home/autobuild/tools/win32/lib/libc.dll.a(d000302.o)
 .idata$6       0x0000000000279590        0x8 /home/autobuild/tools/win32/lib/libc.dll.a(d000305.o)
 .idata$6       0x0000000000279598        0xc /home/autobuild/tools/win32/lib/libc.dll.a(d000307.o)
 .idata$6       0x00000000002795a4        0xc /home/autobuild/tools/win32/lib/libc.dll.a(d000315.o)
 .idata$6       0x00000000002795b0       0x10 /home/autobuild/tools/win32/lib/libc.dll.a(d000316.o)
 .idata$6       0x00000000002795c0        0xc /home/autobuild/tools/win32/lib/libc.dll.a(d000317.o)
 .idata$6       0x00000000002795cc        0xc /home/autobuild/tools/win32/lib/libc.dll.a(d000332.o)
 .idata$6       0x00000000002795d8        0xc /home/autobuild/tools/win32/lib/libc.dll.a(d000385.o)
 .idata$6       0x00000000002795e4        0x8 /home/autobuild/tools/win32/lib/libc.dll.a(d000403.o)
 .idata$6       0x00000000002795ec        0xc /home/autobuild/tools/win32/lib/libc.dll.a(d000405.o)
 .idata$6       0x00000000002795f8        0xc /home/autobuild/tools/win32/lib/libc.dll.a(d000411.o)
 .idata$6       0x0000000000279604        0xc /home/autobuild/tools/win32/lib/libc.dll.a(d000412.o)
 .idata$6       0x0000000000279610        0xc /home/autobuild/tools/win32/lib/libc.dll.a(d000413.o)
 .idata$6       0x000000000027961c        0xc /home/autobuild/tools/win32/lib/libc.dll.a(d000414.o)
 .idata$6       0x0000000000279628        0xc /home/autobuild/tools/win32/lib/libc.dll.a(d000415.o)
 .idata$6       0x0000000000279634        0xc /home/autobuild/tools/win32/lib/libc.dll.a(d000422.o)
 .idata$6       0x0000000000279640        0x8 /home/autobuild/tools/win32/lib/libc.dll.a(d000431.o)
 .idata$6       0x0000000000279648        0xc /home/autobuild/tools/win32/lib/libc.dll.a(d000438.o)
 .idata$6       0x0000000000279654        0xc /home/autobuild/tools/win32/lib/libc.dll.a(d000440.o)
 .idata$6       0x0000000000279660        0x8 /home/autobuild/tools/win32/lib/libc.dll.a(d000441.o)
 .idata$6       0x0000000000279668        0x8 /home/autobuild/tools/win32/lib/libc.dll.a(d000442.o)
 .idata$6       0x0000000000279670        0x8 /home/autobuild/tools/win32/lib/libc.dll.a(d000444.o)
 .idata$6       0x0000000000279678        0x8 /home/autobuild/tools/win32/lib/libc.dll.a(d000446.o)
 .idata$6       0x0000000000279680        0xc /home/autobuild/tools/win32/lib/libc.dll.a(d000448.o)
 .idata$6       0x000000000027968c        0xc /home/autobuild/tools/win32/lib/libc.dll.a(d000451.o)
 .idata$6       0x0000000000279698        0xc /home/autobuild/tools/win32/lib/libc.dll.a(d000454.o)
 .idata$6       0x00000000002796a4        0xc /home/autobuild/tools/win32/lib/libc.dll.a(d000471.o)
 .idata$6       0x00000000002796b0        0xc /home/autobuild/tools/win32/lib/libc.dll.a(d000473.o)
 .idata$6       0x00000000002796bc        0xc /home/autobuild/tools/win32/lib/libc.dll.a(d000485.o)
 .idata$6       0x00000000002796c8        0xc /home/autobuild/tools/win32/lib/libc.dll.a(d000486.o)
 .idata$6       0x00000000002796d4        0xc /home/autobuild/tools/win32/lib/libc.dll.a(d000491.o)
 .idata$6       0x00000000002796e0       0x10 /home/autobuild/tools/win32/lib/libc.dll.a(d000495.o)
 .idata$6       0x00000000002796f0        0xc /home/autobuild/tools/win32/lib/libc.dll.a(d000497.o)
 .idata$6       0x00000000002796fc        0xc /home/autobuild/tools/win32/lib/libc.dll.a(d000498.o)
 .idata$6       0x0000000000279708        0xc /home/autobuild/tools/win32/lib/libc.dll.a(d000499.o)
 .idata$6       0x0000000000279714        0xc /home/autobuild/tools/win32/lib/libc.dll.a(d000501.o)
 .idata$6       0x0000000000279720        0xc /home/autobuild/tools/win32/lib/libc.dll.a(d000502.o)
 .idata$6       0x000000000027972c        0xc /home/autobuild/tools/win32/lib/libc.dll.a(d000503.o)
 .idata$6       0x0000000000279738        0xc /home/autobuild/tools/win32/lib/libc.dll.a(d000504.o)
 .idata$6       0x0000000000279744        0xc /home/autobuild/tools/win32/lib/libc.dll.a(d000505.o)
 .idata$6       0x0000000000279750        0xc /home/autobuild/tools/win32/lib/libc.dll.a(d000506.o)
 .idata$6       0x000000000027975c       0x10 /home/autobuild/tools/win32/lib/libc.dll.a(d000507.o)
 .idata$6       0x000000000027976c        0xc /home/autobuild/tools/win32/lib/libc.dll.a(d000509.o)
 .idata$6       0x0000000000279778        0xc /home/autobuild/tools/win32/lib/libc.dll.a(d000510.o)
 .idata$6       0x0000000000279784        0xc /home/autobuild/tools/win32/lib/libc.dll.a(d000511.o)
 .idata$6       0x0000000000279790        0xc /home/autobuild/tools/win32/lib/libc.dll.a(d000513.o)
 .idata$6       0x000000000027979c        0xc /home/autobuild/tools/win32/lib/libc.dll.a(d000514.o)
 .idata$6       0x00000000002797a8        0xc /home/autobuild/tools/win32/lib/libc.dll.a(d000516.o)
 .idata$6       0x00000000002797b4        0xc /home/autobuild/tools/win32/lib/libc.dll.a(d000517.o)
 .idata$6       0x00000000002797c0        0xc /home/autobuild/tools/win32/lib/libc.dll.a(d000519.o)
 .idata$6       0x00000000002797cc        0xc /home/autobuild/tools/win32/lib/libc.dll.a(d000520.o)
 .idata$6       0x00000000002797d8        0xc /home/autobuild/tools/win32/lib/libc.dll.a(d000522.o)
 .idata$6       0x00000000002797e4        0xc /home/autobuild/tools/win32/lib/libc.dll.a(d000525.o)
 .idata$6       0x00000000002797f0        0x8 /home/autobuild/tools/win32/lib/libc.dll.a(d000536.o)
 .idata$6       0x00000000002797f8        0xc /home/autobuild/tools/win32/lib/libc.dll.a(d000560.o)
 .idata$6       0x0000000000279804        0xc /home/autobuild/tools/win32/lib/libc.dll.a(d000563.o)
 .idata$6       0x0000000000279810        0xc /home/autobuild/tools/win32/lib/libc.dll.a(d000564.o)
 .idata$6       0x000000000027981c        0x8 /home/autobuild/tools/win32/lib/libc.dll.a(d000569.o)
 SORT(*)(.idata$7)
 .idata$7       0x0000000000279824        0x4 /home/autobuild/tools/win32/lib/libc.dll.a(d000006.o)
 .idata$7       0x0000000000279828        0x4 /home/autobuild/tools/win32/lib/libc.dll.a(d000007.o)
 .idata$7       0x000000000027982c        0x4 /home/autobuild/tools/win32/lib/libc.dll.a(d000009.o)
 .idata$7       0x0000000000279830        0x4 /home/autobuild/tools/win32/lib/libc.dll.a(d000187.o)
 .idata$7       0x0000000000279834        0x4 /home/autobuild/tools/win32/lib/libc.dll.a(d000208.o)
 .idata$7       0x0000000000279838        0x4 /home/autobuild/tools/win32/lib/libc.dll.a(d000210.o)
 .idata$7       0x000000000027983c        0x4 /home/autobuild/tools/win32/lib/libc.dll.a(d000212.o)
 .idata$7       0x0000000000279840        0x4 /home/autobuild/tools/win32/lib/libc.dll.a(d000215.o)
 .idata$7       0x0000000000279844        0x4 /home/autobuild/tools/win32/lib/libc.dll.a(d000216.o)
 .idata$7       0x0000000000279848        0x4 /home/autobuild/tools/win32/lib/libc.dll.a(d000220.o)
 .idata$7       0x000000000027984c        0x4 /home/autobuild/tools/win32/lib/libc.dll.a(d000236.o)
 .idata$7       0x0000000000279850        0x4 /home/autobuild/tools/win32/lib/libc.dll.a(d000253.o)
 .idata$7       0x0000000000279854        0x4 /home/autobuild/tools/win32/lib/libc.dll.a(d000264.o)
 .idata$7       0x0000000000279858        0x4 /home/autobuild/tools/win32/lib/libc.dll.a(d000272.o)
 .idata$7       0x000000000027985c        0x4 /home/autobuild/tools/win32/lib/libc.dll.a(d000274.o)
 .idata$7       0x0000000000279860        0x4 /home/autobuild/tools/win32/lib/libc.dll.a(d000291.o)
 .idata$7       0x0000000000279864        0x4 /home/autobuild/tools/win32/lib/libc.dll.a(d000292.o)
 .idata$7       0x0000000000279868        0x4 /home/autobuild/tools/win32/lib/libc.dll.a(d000293.o)
 .idata$7       0x000000000027986c        0x4 /home/autobuild/tools/win32/lib/libc.dll.a(d000294.o)
 .idata$7       0x0000000000279870        0x4 /home/autobuild/tools/win32/lib/libc.dll.a(d000296.o)
 .idata$7       0x0000000000279874        0x4 /home/autobuild/tools/win32/lib/libc.dll.a(d000297.o)
 .idata$7       0x0000000000279878        0x4 /home/autobuild/tools/win32/lib/libc.dll.a(d000302.o)
 .idata$7       0x000000000027987c        0x4 /home/autobuild/tools/win32/lib/libc.dll.a(d000305.o)
 .idata$7       0x0000000000279880        0x4 /home/autobuild/tools/win32/lib/libc.dll.a(d000307.o)
 .idata$7       0x0000000000279884        0x4 /home/autobuild/tools/win32/lib/libc.dll.a(d000315.o)
 .idata$7       0x0000000000279888        0x4 /home/autobuild/tools/win32/lib/libc.dll.a(d000316.o)
 .idata$7       0x000000000027988c        0x4 /home/autobuild/tools/win32/lib/libc.dll.a(d000317.o)
 .idata$7       0x0000000000279890        0x4 /home/autobuild/tools/win32/lib/libc.dll.a(d000332.o)
 .idata$7       0x0000000000279894        0x4 /home/autobuild/tools/win32/lib/libc.dll.a(d000385.o)
 .idata$7       0x0000000000279898        0x4 /home/autobuild/tools/win32/lib/libc.dll.a(d000403.o)
 .idata$7       0x000000000027989c        0x4 /home/autobuild/tools/win32/lib/libc.dll.a(d000405.o)
 .idata$7       0x00000000002798a0        0x4 /home/autobuild/tools/win32/lib/libc.dll.a(d000411.o)
 .idata$7       0x00000000002798a4        0x4 /home/autobuild/tools/win32/lib/libc.dll.a(d000412.o)
 .idata$7       0x00000000002798a8        0x4 /home/autobuild/tools/win32/lib/libc.dll.a(d000413.o)
 .idata$7       0x00000000002798ac        0x4 /home/autobuild/tools/win32/lib/libc.dll.a(d000414.o)
 .idata$7       0x00000000002798b0        0x4 /home/autobuild/tools/win32/lib/libc.dll.a(d000415.o)
 .idata$7       0x00000000002798b4        0x4 /home/autobuild/tools/win32/lib/libc.dll.a(d000422.o)
 .idata$7       0x00000000002798b8        0x4 /home/autobuild/tools/win32/lib/libc.dll.a(d000431.o)
 .idata$7       0x00000000002798bc        0x4 /home/autobuild/tools/win32/lib/libc.dll.a(d000438.o)
 .idata$7       0x00000000002798c0        0x4 /home/autobuild/tools/win32/lib/libc.dll.a(d000440.o)
 .idata$7       0x00000000002798c4        0x4 /home/autobuild/tools/win32/lib/libc.dll.a(d000441.o)
 .idata$7       0x00000000002798c8        0x4 /home/autobuild/tools/win32/lib/libc.dll.a(d000442.o)
 .idata$7       0x00000000002798cc        0x4 /home/autobuild/tools/win32/lib/libc.dll.a(d000444.o)
 .idata$7       0x00000000002798d0        0x4 /home/autobuild/tools/win32/lib/libc.dll.a(d000446.o)
 .idata$7       0x00000000002798d4        0x4 /home/autobuild/tools/win32/lib/libc.dll.a(d000448.o)
 .idata$7       0x00000000002798d8        0x4 /home/autobuild/tools/win32/lib/libc.dll.a(d000451.o)
 .idata$7       0x00000000002798dc        0x4 /home/autobuild/tools/win32/lib/libc.dll.a(d000454.o)
 .idata$7       0x00000000002798e0        0x4 /home/autobuild/tools/win32/lib/libc.dll.a(d000471.o)
 .idata$7       0x00000000002798e4        0x4 /home/autobuild/tools/win32/lib/libc.dll.a(d000473.o)
 .idata$7       0x00000000002798e8        0x4 /home/autobuild/tools/win32/lib/libc.dll.a(d000485.o)
 .idata$7       0x00000000002798ec        0x4 /home/autobuild/tools/win32/lib/libc.dll.a(d000486.o)
 .idata$7       0x00000000002798f0        0x4 /home/autobuild/tools/win32/lib/libc.dll.a(d000491.o)
 .idata$7       0x00000000002798f4        0x4 /home/autobuild/tools/win32/lib/libc.dll.a(d000495.o)
 .idata$7       0x00000000002798f8        0x4 /home/autobuild/tools/win32/lib/libc.dll.a(d000497.o)
 .idata$7       0x00000000002798fc        0x4 /home/autobuild/tools/win32/lib/libc.dll.a(d000498.o)
 .idata$7       0x0000000000279900        0x4 /home/autobuild/tools/win32/lib/libc.dll.a(d000499.o)
 .idata$7       0x0000000000279904        0x4 /home/autobuild/tools/win32/lib/libc.dll.a(d000501.o)
 .idata$7       0x0000000000279908        0x4 /home/autobuild/tools/win32/lib/libc.dll.a(d000502.o)
 .idata$7       0x000000000027990c        0x4 /home/autobuild/tools/win32/lib/libc.dll.a(d000503.o)
 .idata$7       0x0000000000279910        0x4 /home/autobuild/tools/win32/lib/libc.dll.a(d000504.o)
 .idata$7       0x0000000000279914        0x4 /home/autobuild/tools/win32/lib/libc.dll.a(d000505.o)
 .idata$7       0x0000000000279918        0x4 /home/autobuild/tools/win32/lib/libc.dll.a(d000506.o)
 .idata$7       0x000000000027991c        0x4 /home/autobuild/tools/win32/lib/libc.dll.a(d000507.o)
 .idata$7       0x0000000000279920        0x4 /home/autobuild/tools/win32/lib/libc.dll.a(d000509.o)
 .idata$7       0x0000000000279924        0x4 /home/autobuild/tools/win32/lib/libc.dll.a(d000510.o)
 .idata$7       0x0000000000279928        0x4 /home/autobuild/tools/win32/lib/libc.dll.a(d000511.o)
 .idata$7       0x000000000027992c        0x4 /home/autobuild/tools/win32/lib/libc.dll.a(d000513.o)
 .idata$7       0x0000000000279930        0x4 /home/autobuild/tools/win32/lib/libc.dll.a(d000514.o)
 .idata$7       0x0000000000279934        0x4 /home/autobuild/tools/win32/lib/libc.dll.a(d000516.o)
 .idata$7       0x0000000000279938        0x4 /home/autobuild/tools/win32/lib/libc.dll.a(d000517.o)
 .idata$7       0x000000000027993c        0x4 /home/autobuild/tools/win32/lib/libc.dll.a(d000519.o)
 .idata$7       0x0000000000279940        0x4 /home/autobuild/tools/win32/lib/libc.dll.a(d000520.o)
 .idata$7       0x0000000000279944        0x4 /home/autobuild/tools/win32/lib/libc.dll.a(d000522.o)
 .idata$7       0x0000000000279948        0x4 /home/autobuild/tools/win32/lib/libc.dll.a(d000525.o)
 .idata$7       0x000000000027994c        0x4 /home/autobuild/tools/win32/lib/libc.dll.a(d000536.o)
 .idata$7       0x0000000000279950        0x4 /home/autobuild/tools/win32/lib/libc.dll.a(d000560.o)
 .idata$7       0x0000000000279954        0x4 /home/autobuild/tools/win32/lib/libc.dll.a(d000563.o)
 .idata$7       0x0000000000279958        0x4 /home/autobuild/tools/win32/lib/libc.dll.a(d000564.o)
 .idata$7       0x000000000027995c        0x4 /home/autobuild/tools/win32/lib/libc.dll.a(d000569.o)
 .idata$7       0x0000000000279960        0xc /home/autobuild/tools/win32/lib/libc.dll.a(d000577.o)
                0x0000000000279960                libc_dll_iname
                0x000000000027996c                __idata_end = .

bss             0x0000000000279970    0x38660
 *(.bss)
 .bss           0x0000000000279970        0x0 content_content.o
 .bss           0x0000000000279970        0x4 content_content_factory.o
 .bss           0x0000000000279974        0x0 content_dirlist.o
 *fill*         0x0000000000279974        0xc 
 .bss           0x0000000000279980      0x1a0 content_fetch.o
 .bss           0x0000000000279b20        0x4 content_fetchers_about.o
 .bss           0x0000000000279b24        0x8 content_fetchers_data.o
 .bss           0x0000000000279b2c        0x4 content_fetchers_file.o
 .bss           0x0000000000279b30        0x0 content_fetchers_http_kolibri.o
 *fill*         0x0000000000279b30       0x10 
 .bss           0x0000000000279b40      0x140 content_fetchers_resource.o
 .bss           0x0000000000279c80        0x4 content_hlcache.o
 .bss           0x0000000000279c84        0x4 content_llcache.o
 .bss           0x0000000000279c88       0x68 content_mimesniff.o
 .bss           0x0000000000279cf0        0x0 content_no_backing_store.o
 *fill*         0x0000000000279cf0       0x10 
 .bss           0x0000000000279d00       0x80 content_urldb.o
 .bss           0x0000000000279d80        0x4 css_css.o
 .bss           0x0000000000279d84        0x0 css_dump.o
 .bss           0x0000000000279d84        0x0 css_internal.o
 .bss           0x0000000000279d84        0x0 css_select.o
 .bss           0x0000000000279d84        0x0 css_utils.o
 .bss           0x0000000000279d84        0x4 desktop_browser.o
 .bss           0x0000000000279d88        0x0 desktop_browser_history.o
 .bss           0x0000000000279d88        0x0 desktop_cookie_manager.o
 .bss           0x0000000000279d88        0x0 desktop_download.o
 .bss           0x0000000000279d88        0x0 desktop_font_haru.o
 .bss           0x0000000000279d88        0x0 desktop_frames.o
 .bss           0x0000000000279d88        0x0 desktop_global_history.o
 .bss           0x0000000000279d88        0x4 desktop_gui_factory.o
                0x0000000000279d88                guit
 .bss           0x0000000000279d8c        0x0 desktop_hotlist.o
 *fill*         0x0000000000279d8c       0x14 
 .bss           0x0000000000279da0    0x2c480 desktop_knockout.o
 .bss           0x00000000002a6220        0x0 desktop_mouse.o
 .bss           0x00000000002a6220        0x0 desktop_netsurf.o
 .bss           0x00000000002a6220        0x0 desktop_plot_style.o
 .bss           0x00000000002a6220       0x1c desktop_print.o
                0x00000000002a6220                html_redraw_printing
                0x00000000002a6224                html_redraw_printing_border
                0x00000000002a6228                html_redraw_printing_top_cropped
 .bss           0x00000000002a623c        0x0 desktop_save_complete.o
 .bss           0x00000000002a623c        0x0 desktop_save_pdf.o
 .bss           0x00000000002a623c        0x0 desktop_save_text.o
 .bss           0x00000000002a623c        0x0 desktop_scrollbar.o
 .bss           0x00000000002a623c        0x0 desktop_search.o
 .bss           0x00000000002a623c       0x10 desktop_searchweb.o
 .bss           0x00000000002a624c        0x0 desktop_selection.o
 .bss           0x00000000002a624c        0x0 desktop_sslcert_viewer.o
 *fill*         0x00000000002a624c       0x14 
 .bss           0x00000000002a6260       0x80 desktop_system_colour.o
 .bss           0x00000000002a62e0        0x0 desktop_textarea.o
 .bss           0x00000000002a62e0        0x0 desktop_textinput.o
 .bss           0x00000000002a62e0        0x8 desktop_tree.o
                0x00000000002a62e0                ssl_current_session
                0x00000000002a62e4                tree_hotlist_path
 .bss           0x00000000002a62e8        0x0 desktop_treeview.o
 .bss           0x00000000002a62e8        0x0 desktop_version.o
 .bss           0x00000000002a62e8        0x0 image_image.o
 .bss           0x00000000002a62e8        0x4 image_image_cache.o
 .bss           0x00000000002a62ec        0x4 javascript_fetcher.o
 .bss           0x00000000002a62f0        0x0 javascript_none_none.o
 .bss           0x00000000002a62f0        0x0 kolibrios_fb_bitmap.o
 .bss           0x00000000002a62f0        0xc kolibrios_fb_clipboard.o
 .bss           0x00000000002a62fc        0x0 kolibrios_fb_fbtk_bitmap.o
 .bss           0x00000000002a62fc        0x0 kolibrios_fb_fbtk_event.o
 .bss           0x00000000002a62fc        0x0 kolibrios_fb_fbtk_fbtk.o
 .bss           0x00000000002a62fc        0x0 kolibrios_fb_fbtk_fill.o
 .bss           0x00000000002a62fc        0x4 kolibrios_fb_fbtk_osk.o
 .bss           0x00000000002a6300        0x0 kolibrios_fb_fbtk_scroll.o
 .bss           0x00000000002a6300        0x4 kolibrios_fb_fbtk_text.o
 .bss           0x00000000002a6304        0x0 kolibrios_fb_fbtk_user.o
 .bss           0x00000000002a6304        0x0 kolibrios_fb_fbtk_window.o
 .bss           0x00000000002a6304        0x0 kolibrios_fb_fetch.o
 .bss           0x00000000002a6304        0x0 kolibrios_fb_findfile.o
 *fill*         0x00000000002a6304       0x1c 
 .bss           0x00000000002a6320       0x60 kolibrios_fb_font_freetype.o
                0x00000000002a6320                framebuffer_utf8_table
 .bss           0x00000000002a6380        0x4 kolibrios_fb_framebuffer.o
 .bss           0x00000000002a6384       0x50 kolibrios_fb_gui.o
                0x00000000002a6384                input_window
                0x00000000002a6388                window_list
 .bss           0x00000000002a63d4        0x0 kolibrios_fb_localhistory.o
 .bss           0x00000000002a63d4        0x0 kolibrios_fb_misc.o
 .bss           0x00000000002a63d4        0x4 kolibrios_fb_schedule.o
 .bss           0x00000000002a63d8        0x0 kolibrios_kolibri_debug.o
 .bss           0x00000000002a63d8        0x0 kolibrios_kolibri_filesystem.o
 .bss           0x00000000002a63d8        0x0 kolibrios_kolibri_http.o
 .bss           0x00000000002a63d8        0x0 kolibrios_kolibri_iconv.o
 .bss           0x00000000002a63d8        0x0 kolibrios_kolibri_misc.o
 .bss           0x00000000002a63d8        0x0 kolibrios_kolibri_regex.o
 .bss           0x00000000002a63d8        0x0 kolibrios_main.o
 .bss           0x00000000002a63d8        0x0 render_box.o
 .bss           0x00000000002a63d8        0x0 render_box_construct.o
 .bss           0x00000000002a63d8        0x0 render_box_normalise.o
 .bss           0x00000000002a63d8        0x0 render_box_textarea.o
 .bss           0x00000000002a63d8        0x0 render_font.o
 .bss           0x00000000002a63d8        0x0 render_form.o
 .bss           0x00000000002a63d8        0x0 render_html.o
 .bss           0x00000000002a63d8       0x10 render_html_css.o
 .bss           0x00000000002a63e8        0xc render_html_css_fetcher.o
 .bss           0x00000000002a63f4        0x0 render_html_forms.o
 .bss           0x00000000002a63f4        0x0 render_html_interaction.o
 .bss           0x00000000002a63f4        0x0 render_html_object.o
 .bss           0x00000000002a63f4        0x4 render_html_redraw.o
                0x00000000002a63f4                html_redraw_debug
 .bss           0x00000000002a63f8        0x0 render_html_script.o
 .bss           0x00000000002a63f8        0x0 render_imagemap.o
 .bss           0x00000000002a63f8        0x0 render_layout.o
 .bss           0x00000000002a63f8        0x0 render_search.o
 .bss           0x00000000002a63f8        0x0 render_table.o
 .bss           0x00000000002a63f8        0x4 render_textplain.o
 .bss           0x00000000002a63fc        0x0 utils_base64.o
 .bss           0x00000000002a63fc        0x0 utils_bloom.o
 .bss           0x00000000002a63fc        0x0 utils_corestrings.o
 .bss           0x00000000002a63fc        0x0 utils_file.o
 *fill*         0x00000000002a63fc        0x4 
 .bss           0x00000000002a6400      0x120 utils_filename.o
 .bss           0x00000000002a6520        0x0 utils_filepath.o
 .bss           0x00000000002a6520        0x0 utils_hashtable.o
 .bss           0x00000000002a6520        0x0 utils_http_challenge.o
 .bss           0x00000000002a6520        0x0 utils_http_content-disposition.o
 .bss           0x00000000002a6520        0x0 utils_http_content-type.o
 .bss           0x00000000002a6520        0x0 utils_http_generics.o
 .bss           0x00000000002a6520        0x0 utils_http_parameter.o
 .bss           0x00000000002a6520        0x0 utils_http_primitives.o
 .bss           0x00000000002a6520        0x0 utils_http_www-authenticate.o
 .bss           0x00000000002a6520        0x0 utils_idna.o
 .bss           0x00000000002a6520        0x0 utils_libdom.o
 .bss           0x00000000002a6520        0x0 utils_locale.o
 .bss           0x00000000002a6520       0x40 utils_log.o
                0x00000000002a6520                verbose_log
 .bss           0x00000000002a6560        0x4 utils_messages.o
 .bss           0x00000000002a6564        0x8 utils_nsoption.o
                0x00000000002a6564                nsoptions
                0x00000000002a6568                nsoptions_default
 .bss           0x00000000002a656c        0x0 utils_nsurl.o
 .bss           0x00000000002a656c        0x0 utils_punycode.o
 .bss           0x00000000002a656c        0x8 utils_talloc.o
 .bss           0x00000000002a6574        0x0 utils_url.o
 .bss           0x00000000002a6574        0x4 utils_useragent.o
 *fill*         0x00000000002a6578        0x8 
 .bss           0x00000000002a6580       0x60 utils_utf8.o
 .bss           0x00000000002a65e0       0x5c utils_utils.o
 .bss           0x00000000002a663c        0x0 /home/bob/ofiles/libcss-charset-detect.o
 .bss           0x00000000002a663c        0x0 /home/bob/ofiles/libcss-lex-lex.o
 .bss           0x00000000002a663c        0x0 /home/bob/ofiles/libcss-parse-font_face.o
 .bss           0x00000000002a663c        0x0 /home/bob/ofiles/libcss-parse-important.o
 .bss           0x00000000002a663c        0x0 /home/bob/ofiles/libcss-parse-language.o
 .bss           0x00000000002a663c        0x0 /home/bob/ofiles/libcss-parse-parse.o
 .bss           0x00000000002a663c        0x0 /home/bob/ofiles/libcss-parse-properties-autogenerated_background_attachment.o
 .bss           0x00000000002a663c        0x0 /home/bob/ofiles/libcss-parse-properties-autogenerated_background_color.o
 .bss           0x00000000002a663c        0x0 /home/bob/ofiles/libcss-parse-properties-autogenerated_background_image.o
 .bss           0x00000000002a663c        0x0 /home/bob/ofiles/libcss-parse-properties-autogenerated_background_repeat.o
 .bss           0x00000000002a663c        0x0 /home/bob/ofiles/libcss-parse-properties-autogenerated_border_bottom.o
 .bss           0x00000000002a663c        0x0 /home/bob/ofiles/libcss-parse-properties-autogenerated_border_bottom_color.o
 .bss           0x00000000002a663c        0x0 /home/bob/ofiles/libcss-parse-properties-autogenerated_border_bottom_style.o
 .bss           0x00000000002a663c        0x0 /home/bob/ofiles/libcss-parse-properties-autogenerated_border_bottom_width.o
 .bss           0x00000000002a663c        0x0 /home/bob/ofiles/libcss-parse-properties-autogenerated_border_collapse.o
 .bss           0x00000000002a663c        0x0 /home/bob/ofiles/libcss-parse-properties-autogenerated_border_left.o
 .bss           0x00000000002a663c        0x0 /home/bob/ofiles/libcss-parse-properties-autogenerated_border_left_color.o
 .bss           0x00000000002a663c        0x0 /home/bob/ofiles/libcss-parse-properties-autogenerated_border_left_style.o
 .bss           0x00000000002a663c        0x0 /home/bob/ofiles/libcss-parse-properties-autogenerated_border_left_width.o
 .bss           0x00000000002a663c        0x0 /home/bob/ofiles/libcss-parse-properties-autogenerated_border_right.o
 .bss           0x00000000002a663c        0x0 /home/bob/ofiles/libcss-parse-properties-autogenerated_border_right_color.o
 .bss           0x00000000002a663c        0x0 /home/bob/ofiles/libcss-parse-properties-autogenerated_border_right_style.o
 .bss           0x00000000002a663c        0x0 /home/bob/ofiles/libcss-parse-properties-autogenerated_border_right_width.o
 .bss           0x00000000002a663c        0x0 /home/bob/ofiles/libcss-parse-properties-autogenerated_border_side_color.o
 .bss           0x00000000002a663c        0x0 /home/bob/ofiles/libcss-parse-properties-autogenerated_border_side_style.o
 .bss           0x00000000002a663c        0x0 /home/bob/ofiles/libcss-parse-properties-autogenerated_border_side_width.o
 .bss           0x00000000002a663c        0x0 /home/bob/ofiles/libcss-parse-properties-autogenerated_border_top.o
 .bss           0x00000000002a663c        0x0 /home/bob/ofiles/libcss-parse-properties-autogenerated_border_top_color.o
 .bss           0x00000000002a663c        0x0 /home/bob/ofiles/libcss-parse-properties-autogenerated_border_top_style.o
 .bss           0x00000000002a663c        0x0 /home/bob/ofiles/libcss-parse-properties-autogenerated_border_top_width.o
 .bss           0x00000000002a663c        0x0 /home/bob/ofiles/libcss-parse-properties-autogenerated_bottom.o
 .bss           0x00000000002a663c        0x0 /home/bob/ofiles/libcss-parse-properties-autogenerated_break_after.o
 .bss           0x00000000002a663c        0x0 /home/bob/ofiles/libcss-parse-properties-autogenerated_break_before.o
 .bss           0x00000000002a663c        0x0 /home/bob/ofiles/libcss-parse-properties-autogenerated_break_inside.o
 .bss           0x00000000002a663c        0x0 /home/bob/ofiles/libcss-parse-properties-autogenerated_caption_side.o
 .bss           0x00000000002a663c        0x0 /home/bob/ofiles/libcss-parse-properties-autogenerated_clear.o
 .bss           0x00000000002a663c        0x0 /home/bob/ofiles/libcss-parse-properties-autogenerated_color.o
 .bss           0x00000000002a663c        0x0 /home/bob/ofiles/libcss-parse-properties-autogenerated_column_count.o
 .bss           0x00000000002a663c        0x0 /home/bob/ofiles/libcss-parse-properties-autogenerated_column_fill.o
 .bss           0x00000000002a663c        0x0 /home/bob/ofiles/libcss-parse-properties-autogenerated_column_gap.o
 .bss           0x00000000002a663c        0x0 /home/bob/ofiles/libcss-parse-properties-autogenerated_column_rule_color.o
 .bss           0x00000000002a663c        0x0 /home/bob/ofiles/libcss-parse-properties-autogenerated_column_rule_style.o
 .bss           0x00000000002a663c        0x0 /home/bob/ofiles/libcss-parse-properties-autogenerated_column_rule_width.o
 .bss           0x00000000002a663c        0x0 /home/bob/ofiles/libcss-parse-properties-autogenerated_column_span.o
 .bss           0x00000000002a663c        0x0 /home/bob/ofiles/libcss-parse-properties-autogenerated_column_width.o
 .bss           0x00000000002a663c        0x0 /home/bob/ofiles/libcss-parse-properties-autogenerated_counter_increment.o
 .bss           0x00000000002a663c        0x0 /home/bob/ofiles/libcss-parse-properties-autogenerated_counter_reset.o
 .bss           0x00000000002a663c        0x0 /home/bob/ofiles/libcss-parse-properties-autogenerated_cue_after.o
 .bss           0x00000000002a663c        0x0 /home/bob/ofiles/libcss-parse-properties-autogenerated_cue_before.o
 .bss           0x00000000002a663c        0x0 /home/bob/ofiles/libcss-parse-properties-autogenerated_direction.o
 .bss           0x00000000002a663c        0x0 /home/bob/ofiles/libcss-parse-properties-autogenerated_display.o
 .bss           0x00000000002a663c        0x0 /home/bob/ofiles/libcss-parse-properties-autogenerated_empty_cells.o
 .bss           0x00000000002a663c        0x0 /home/bob/ofiles/libcss-parse-properties-autogenerated_float.o
 .bss           0x00000000002a663c        0x0 /home/bob/ofiles/libcss-parse-properties-autogenerated_font_size.o
 .bss           0x00000000002a663c        0x0 /home/bob/ofiles/libcss-parse-properties-autogenerated_font_style.o
 .bss           0x00000000002a663c        0x0 /home/bob/ofiles/libcss-parse-properties-autogenerated_font_variant.o
 .bss           0x00000000002a663c        0x0 /home/bob/ofiles/libcss-parse-properties-autogenerated_height.o
 .bss           0x00000000002a663c        0x0 /home/bob/ofiles/libcss-parse-properties-autogenerated_left.o
 .bss           0x00000000002a663c        0x0 /home/bob/ofiles/libcss-parse-properties-autogenerated_letter_spacing.o
 .bss           0x00000000002a663c        0x0 /home/bob/ofiles/libcss-parse-properties-autogenerated_line_height.o
 .bss           0x00000000002a663c        0x0 /home/bob/ofiles/libcss-parse-properties-autogenerated_list_style_image.o
 .bss           0x00000000002a663c        0x0 /home/bob/ofiles/libcss-parse-properties-autogenerated_list_style_position.o
 .bss           0x00000000002a663c        0x0 /home/bob/ofiles/libcss-parse-properties-autogenerated_margin_bottom.o
 .bss           0x00000000002a663c        0x0 /home/bob/ofiles/libcss-parse-properties-autogenerated_margin_left.o
 .bss           0x00000000002a663c        0x0 /home/bob/ofiles/libcss-parse-properties-autogenerated_margin_right.o
 .bss           0x00000000002a663c        0x0 /home/bob/ofiles/libcss-parse-properties-autogenerated_margin_side.o
 .bss           0x00000000002a663c        0x0 /home/bob/ofiles/libcss-parse-properties-autogenerated_margin_top.o
 .bss           0x00000000002a663c        0x0 /home/bob/ofiles/libcss-parse-properties-autogenerated_max_height.o
 .bss           0x00000000002a663c        0x0 /home/bob/ofiles/libcss-parse-properties-autogenerated_max_width.o
 .bss           0x00000000002a663c        0x0 /home/bob/ofiles/libcss-parse-properties-autogenerated_min_height.o
 .bss           0x00000000002a663c        0x0 /home/bob/ofiles/libcss-parse-properties-autogenerated_min_width.o
 .bss           0x00000000002a663c        0x0 /home/bob/ofiles/libcss-parse-properties-autogenerated_orphans.o
 .bss           0x00000000002a663c        0x0 /home/bob/ofiles/libcss-parse-properties-autogenerated_outline_color.o
 .bss           0x00000000002a663c        0x0 /home/bob/ofiles/libcss-parse-properties-autogenerated_outline_style.o
 .bss           0x00000000002a663c        0x0 /home/bob/ofiles/libcss-parse-properties-autogenerated_outline_width.o
 .bss           0x00000000002a663c        0x0 /home/bob/ofiles/libcss-parse-properties-autogenerated_overflow_x.o
 .bss           0x00000000002a663c        0x0 /home/bob/ofiles/libcss-parse-properties-autogenerated_overflow_y.o
 .bss           0x00000000002a663c        0x0 /home/bob/ofiles/libcss-parse-properties-autogenerated_padding_bottom.o
 .bss           0x00000000002a663c        0x0 /home/bob/ofiles/libcss-parse-properties-autogenerated_padding_left.o
 .bss           0x00000000002a663c        0x0 /home/bob/ofiles/libcss-parse-properties-autogenerated_padding_right.o
 .bss           0x00000000002a663c        0x0 /home/bob/ofiles/libcss-parse-properties-autogenerated_padding_side.o
 .bss           0x00000000002a663c        0x0 /home/bob/ofiles/libcss-parse-properties-autogenerated_padding_top.o
 .bss           0x00000000002a663c        0x0 /home/bob/ofiles/libcss-parse-properties-autogenerated_page_break_after.o
 .bss           0x00000000002a663c        0x0 /home/bob/ofiles/libcss-parse-properties-autogenerated_page_break_before.o
 .bss           0x00000000002a663c        0x0 /home/bob/ofiles/libcss-parse-properties-autogenerated_page_break_inside.o
 .bss           0x00000000002a663c        0x0 /home/bob/ofiles/libcss-parse-properties-autogenerated_pause_after.o
 .bss           0x00000000002a663c        0x0 /home/bob/ofiles/libcss-parse-properties-autogenerated_pause_before.o
 .bss           0x00000000002a663c        0x0 /home/bob/ofiles/libcss-parse-properties-autogenerated_pitch.o
 .bss           0x00000000002a663c        0x0 /home/bob/ofiles/libcss-parse-properties-autogenerated_pitch_range.o
 .bss           0x00000000002a663c        0x0 /home/bob/ofiles/libcss-parse-properties-autogenerated_position.o
 .bss           0x00000000002a663c        0x0 /home/bob/ofiles/libcss-parse-properties-autogenerated_richness.o
 .bss           0x00000000002a663c        0x0 /home/bob/ofiles/libcss-parse-properties-autogenerated_right.o
 .bss           0x00000000002a663c        0x0 /home/bob/ofiles/libcss-parse-properties-autogenerated_side.o
 .bss           0x00000000002a663c        0x0 /home/bob/ofiles/libcss-parse-properties-autogenerated_speak.o
 .bss           0x00000000002a663c        0x0 /home/bob/ofiles/libcss-parse-properties-autogenerated_speak_header.o
 .bss           0x00000000002a663c        0x0 /home/bob/ofiles/libcss-parse-properties-autogenerated_speak_numeral.o
 .bss           0x00000000002a663c        0x0 /home/bob/ofiles/libcss-parse-properties-autogenerated_speak_punctuation.o
 .bss           0x00000000002a663c        0x0 /home/bob/ofiles/libcss-parse-properties-autogenerated_speech_rate.o
 .bss           0x00000000002a663c        0x0 /home/bob/ofiles/libcss-parse-properties-autogenerated_stress.o
 .bss           0x00000000002a663c        0x0 /home/bob/ofiles/libcss-parse-properties-autogenerated_table_layout.o
 .bss           0x00000000002a663c        0x0 /home/bob/ofiles/libcss-parse-properties-autogenerated_text_align.o
 .bss           0x00000000002a663c        0x0 /home/bob/ofiles/libcss-parse-properties-autogenerated_text_indent.o
 .bss           0x00000000002a663c        0x0 /home/bob/ofiles/libcss-parse-properties-autogenerated_text_transform.o
 .bss           0x00000000002a663c        0x0 /home/bob/ofiles/libcss-parse-properties-autogenerated_top.o
 .bss           0x00000000002a663c        0x0 /home/bob/ofiles/libcss-parse-properties-autogenerated_unicode_bidi.o
 .bss           0x00000000002a663c        0x0 /home/bob/ofiles/libcss-parse-properties-autogenerated_vertical_align.o
 .bss           0x00000000002a663c        0x0 /home/bob/ofiles/libcss-parse-properties-autogenerated_visibility.o
 .bss           0x00000000002a663c        0x0 /home/bob/ofiles/libcss-parse-properties-autogenerated_volume.o
 .bss           0x00000000002a663c        0x0 /home/bob/ofiles/libcss-parse-properties-autogenerated_white_space.o
 .bss           0x00000000002a663c        0x0 /home/bob/ofiles/libcss-parse-properties-autogenerated_widows.o
 .bss           0x00000000002a663c        0x0 /home/bob/ofiles/libcss-parse-properties-autogenerated_width.o
 .bss           0x00000000002a663c        0x0 /home/bob/ofiles/libcss-parse-properties-autogenerated_word_spacing.o
 .bss           0x00000000002a663c        0x0 /home/bob/ofiles/libcss-parse-properties-autogenerated_writing_mode.o
 .bss           0x00000000002a663c        0x0 /home/bob/ofiles/libcss-parse-properties-autogenerated_z_index.o
 .bss           0x00000000002a663c        0x0 /home/bob/ofiles/libcss-parse-properties-azimuth.o
 .bss           0x00000000002a663c        0x0 /home/bob/ofiles/libcss-parse-properties-background.o
 .bss           0x00000000002a663c        0x0 /home/bob/ofiles/libcss-parse-properties-background_position.o
 .bss           0x00000000002a663c        0x0 /home/bob/ofiles/libcss-parse-properties-border.o
 .bss           0x00000000002a663c        0x0 /home/bob/ofiles/libcss-parse-properties-border_color.o
 .bss           0x00000000002a663c        0x0 /home/bob/ofiles/libcss-parse-properties-border_spacing.o
 .bss           0x00000000002a663c        0x0 /home/bob/ofiles/libcss-parse-properties-border_style.o
 .bss           0x00000000002a663c        0x0 /home/bob/ofiles/libcss-parse-properties-border_width.o
 .bss           0x00000000002a663c        0x0 /home/bob/ofiles/libcss-parse-properties-clip.o
 .bss           0x00000000002a663c        0x0 /home/bob/ofiles/libcss-parse-properties-column_rule.o
 .bss           0x00000000002a663c        0x0 /home/bob/ofiles/libcss-parse-properties-columns.o
 .bss           0x00000000002a663c        0x0 /home/bob/ofiles/libcss-parse-properties-content.o
 .bss           0x00000000002a663c        0x0 /home/bob/ofiles/libcss-parse-properties-cue.o
 .bss           0x00000000002a663c        0x0 /home/bob/ofiles/libcss-parse-properties-cursor.o
 .bss           0x00000000002a663c        0x0 /home/bob/ofiles/libcss-parse-properties-elevation.o
 .bss           0x00000000002a663c        0x0 /home/bob/ofiles/libcss-parse-properties-font.o
 .bss           0x00000000002a663c        0x0 /home/bob/ofiles/libcss-parse-properties-font_family.o
 .bss           0x00000000002a663c        0x0 /home/bob/ofiles/libcss-parse-properties-font_weight.o
 .bss           0x00000000002a663c        0x0 /home/bob/ofiles/libcss-parse-properties-list_style.o
 .bss           0x00000000002a663c        0x0 /home/bob/ofiles/libcss-parse-properties-list_style_type.o
 .bss           0x00000000002a663c        0x0 /home/bob/ofiles/libcss-parse-properties-margin.o
 .bss           0x00000000002a663c        0x0 /home/bob/ofiles/libcss-parse-properties-opacity.o
 .bss           0x00000000002a663c        0x0 /home/bob/ofiles/libcss-parse-properties-outline.o
 .bss           0x00000000002a663c        0x0 /home/bob/ofiles/libcss-parse-properties-overflow.o
 .bss           0x00000000002a663c        0x0 /home/bob/ofiles/libcss-parse-properties-padding.o
 .bss           0x00000000002a663c        0x0 /home/bob/ofiles/libcss-parse-properties-pause.o
 .bss           0x00000000002a663c        0x0 /home/bob/ofiles/libcss-parse-properties-play_during.o
 .bss           0x00000000002a663c        0x0 /home/bob/ofiles/libcss-parse-properties-properties.o
 .bss           0x00000000002a663c        0x0 /home/bob/ofiles/libcss-parse-properties-quotes.o
 .bss           0x00000000002a663c        0x0 /home/bob/ofiles/libcss-parse-properties-text_decoration.o
 .bss           0x00000000002a663c        0x0 /home/bob/ofiles/libcss-parse-properties-utils.o
 .bss           0x00000000002a663c        0x0 /home/bob/ofiles/libcss-parse-properties-voice_family.o
 *fill*         0x00000000002a663c        0x4 
 .bss           0x00000000002a6640      0x860 /home/bob/ofiles/libcss-parse-propstrings.o
 .bss           0x00000000002a6ea0        0x0 /home/bob/ofiles/libcss-select-computed.o
 .bss           0x00000000002a6ea0        0x0 /home/bob/ofiles/libcss-select-dispatch.o
 .bss           0x00000000002a6ea0        0x0 /home/bob/ofiles/libcss-select-font_face.o
 .bss           0x00000000002a6ea0       0x18 /home/bob/ofiles/libcss-select-hash.o
 .bss           0x00000000002a6eb8        0x0 /home/bob/ofiles/libcss-select-properties-azimuth.o
 .bss           0x00000000002a6eb8        0x0 /home/bob/ofiles/libcss-select-properties-background_attachment.o
 .bss           0x00000000002a6eb8        0x0 /home/bob/ofiles/libcss-select-properties-background_color.o
 .bss           0x00000000002a6eb8        0x0 /home/bob/ofiles/libcss-select-properties-background_image.o
 .bss           0x00000000002a6eb8        0x0 /home/bob/ofiles/libcss-select-properties-background_position.o
 .bss           0x00000000002a6eb8        0x0 /home/bob/ofiles/libcss-select-properties-background_repeat.o
 .bss           0x00000000002a6eb8        0x0 /home/bob/ofiles/libcss-select-properties-border_bottom_color.o
 .bss           0x00000000002a6eb8        0x0 /home/bob/ofiles/libcss-select-properties-border_bottom_style.o
 .bss           0x00000000002a6eb8        0x0 /home/bob/ofiles/libcss-select-properties-border_bottom_width.o
 .bss           0x00000000002a6eb8        0x0 /home/bob/ofiles/libcss-select-properties-border_collapse.o
 .bss           0x00000000002a6eb8        0x0 /home/bob/ofiles/libcss-select-properties-border_left_color.o
 .bss           0x00000000002a6eb8        0x0 /home/bob/ofiles/libcss-select-properties-border_left_style.o
 .bss           0x00000000002a6eb8        0x0 /home/bob/ofiles/libcss-select-properties-border_left_width.o
 .bss           0x00000000002a6eb8        0x0 /home/bob/ofiles/libcss-select-properties-border_right_color.o
 .bss           0x00000000002a6eb8        0x0 /home/bob/ofiles/libcss-select-properties-border_right_style.o
 .bss           0x00000000002a6eb8        0x0 /home/bob/ofiles/libcss-select-properties-border_right_width.o
 .bss           0x00000000002a6eb8        0x0 /home/bob/ofiles/libcss-select-properties-border_spacing.o
 .bss           0x00000000002a6eb8        0x0 /home/bob/ofiles/libcss-select-properties-border_top_color.o
 .bss           0x00000000002a6eb8        0x0 /home/bob/ofiles/libcss-select-properties-border_top_style.o
 .bss           0x00000000002a6eb8        0x0 /home/bob/ofiles/libcss-select-properties-border_top_width.o
 .bss           0x00000000002a6eb8        0x0 /home/bob/ofiles/libcss-select-properties-bottom.o
 .bss           0x00000000002a6eb8        0x0 /home/bob/ofiles/libcss-select-properties-break_after.o
 .bss           0x00000000002a6eb8        0x0 /home/bob/ofiles/libcss-select-properties-break_before.o
 .bss           0x00000000002a6eb8        0x0 /home/bob/ofiles/libcss-select-properties-break_inside.o
 .bss           0x00000000002a6eb8        0x0 /home/bob/ofiles/libcss-select-properties-caption_side.o
 .bss           0x00000000002a6eb8        0x0 /home/bob/ofiles/libcss-select-properties-clear.o
 .bss           0x00000000002a6eb8        0x0 /home/bob/ofiles/libcss-select-properties-clip.o
 .bss           0x00000000002a6eb8        0x0 /home/bob/ofiles/libcss-select-properties-color.o
 .bss           0x00000000002a6eb8        0x0 /home/bob/ofiles/libcss-select-properties-column_count.o
 .bss           0x00000000002a6eb8        0x0 /home/bob/ofiles/libcss-select-properties-column_fill.o
 .bss           0x00000000002a6eb8        0x0 /home/bob/ofiles/libcss-select-properties-column_gap.o
 .bss           0x00000000002a6eb8        0x0 /home/bob/ofiles/libcss-select-properties-column_rule_color.o
 .bss           0x00000000002a6eb8        0x0 /home/bob/ofiles/libcss-select-properties-column_rule_style.o
 .bss           0x00000000002a6eb8        0x0 /home/bob/ofiles/libcss-select-properties-column_rule_width.o
 .bss           0x00000000002a6eb8        0x0 /home/bob/ofiles/libcss-select-properties-column_span.o
 .bss           0x00000000002a6eb8        0x0 /home/bob/ofiles/libcss-select-properties-column_width.o
 .bss           0x00000000002a6eb8        0x0 /home/bob/ofiles/libcss-select-properties-content.o
 .bss           0x00000000002a6eb8        0x0 /home/bob/ofiles/libcss-select-properties-counter_increment.o
 .bss           0x00000000002a6eb8        0x0 /home/bob/ofiles/libcss-select-properties-counter_reset.o
 .bss           0x00000000002a6eb8        0x0 /home/bob/ofiles/libcss-select-properties-cue_after.o
 .bss           0x00000000002a6eb8        0x0 /home/bob/ofiles/libcss-select-properties-cue_before.o
 .bss           0x00000000002a6eb8        0x0 /home/bob/ofiles/libcss-select-properties-cursor.o
 .bss           0x00000000002a6eb8        0x0 /home/bob/ofiles/libcss-select-properties-direction.o
 .bss           0x00000000002a6eb8        0x0 /home/bob/ofiles/libcss-select-properties-display.o
 .bss           0x00000000002a6eb8        0x0 /home/bob/ofiles/libcss-select-properties-elevation.o
 .bss           0x00000000002a6eb8        0x0 /home/bob/ofiles/libcss-select-properties-empty_cells.o
 .bss           0x00000000002a6eb8        0x0 /home/bob/ofiles/libcss-select-properties-float.o
 .bss           0x00000000002a6eb8        0x0 /home/bob/ofiles/libcss-select-properties-font_family.o
 .bss           0x00000000002a6eb8        0x0 /home/bob/ofiles/libcss-select-properties-font_size.o
 .bss           0x00000000002a6eb8        0x0 /home/bob/ofiles/libcss-select-properties-font_style.o
 .bss           0x00000000002a6eb8        0x0 /home/bob/ofiles/libcss-select-properties-font_variant.o
 .bss           0x00000000002a6eb8        0x0 /home/bob/ofiles/libcss-select-properties-font_weight.o
 .bss           0x00000000002a6eb8        0x0 /home/bob/ofiles/libcss-select-properties-height.o
 .bss           0x00000000002a6eb8        0x0 /home/bob/ofiles/libcss-select-properties-helpers.o
 .bss           0x00000000002a6eb8        0x0 /home/bob/ofiles/libcss-select-properties-left.o
 .bss           0x00000000002a6eb8        0x0 /home/bob/ofiles/libcss-select-properties-letter_spacing.o
 .bss           0x00000000002a6eb8        0x0 /home/bob/ofiles/libcss-select-properties-line_height.o
 .bss           0x00000000002a6eb8        0x0 /home/bob/ofiles/libcss-select-properties-list_style_image.o
 .bss           0x00000000002a6eb8        0x0 /home/bob/ofiles/libcss-select-properties-list_style_position.o
 .bss           0x00000000002a6eb8        0x0 /home/bob/ofiles/libcss-select-properties-list_style_type.o
 .bss           0x00000000002a6eb8        0x0 /home/bob/ofiles/libcss-select-properties-margin_bottom.o
 .bss           0x00000000002a6eb8        0x0 /home/bob/ofiles/libcss-select-properties-margin_left.o
 .bss           0x00000000002a6eb8        0x0 /home/bob/ofiles/libcss-select-properties-margin_right.o
 .bss           0x00000000002a6eb8        0x0 /home/bob/ofiles/libcss-select-properties-margin_top.o
 .bss           0x00000000002a6eb8        0x0 /home/bob/ofiles/libcss-select-properties-max_height.o
 .bss           0x00000000002a6eb8        0x0 /home/bob/ofiles/libcss-select-properties-max_width.o
 .bss           0x00000000002a6eb8        0x0 /home/bob/ofiles/libcss-select-properties-min_height.o
 .bss           0x00000000002a6eb8        0x0 /home/bob/ofiles/libcss-select-properties-min_width.o
 .bss           0x00000000002a6eb8        0x0 /home/bob/ofiles/libcss-select-properties-opacity.o
 .bss           0x00000000002a6eb8        0x0 /home/bob/ofiles/libcss-select-properties-orphans.o
 .bss           0x00000000002a6eb8        0x0 /home/bob/ofiles/libcss-select-properties-outline_color.o
 .bss           0x00000000002a6eb8        0x0 /home/bob/ofiles/libcss-select-properties-outline_style.o
 .bss           0x00000000002a6eb8        0x0 /home/bob/ofiles/libcss-select-properties-outline_width.o
 .bss           0x00000000002a6eb8        0x0 /home/bob/ofiles/libcss-select-properties-overflow_x.o
 .bss           0x00000000002a6eb8        0x0 /home/bob/ofiles/libcss-select-properties-overflow_y.o
 .bss           0x00000000002a6eb8        0x0 /home/bob/ofiles/libcss-select-properties-padding_bottom.o
 .bss           0x00000000002a6eb8        0x0 /home/bob/ofiles/libcss-select-properties-padding_left.o
 .bss           0x00000000002a6eb8        0x0 /home/bob/ofiles/libcss-select-properties-padding_right.o
 .bss           0x00000000002a6eb8        0x0 /home/bob/ofiles/libcss-select-properties-padding_top.o
 .bss           0x00000000002a6eb8        0x0 /home/bob/ofiles/libcss-select-properties-page_break_after.o
 .bss           0x00000000002a6eb8        0x0 /home/bob/ofiles/libcss-select-properties-page_break_before.o
 .bss           0x00000000002a6eb8        0x0 /home/bob/ofiles/libcss-select-properties-page_break_inside.o
 .bss           0x00000000002a6eb8        0x0 /home/bob/ofiles/libcss-select-properties-pause_after.o
 .bss           0x00000000002a6eb8        0x0 /home/bob/ofiles/libcss-select-properties-pause_before.o
 .bss           0x00000000002a6eb8        0x0 /home/bob/ofiles/libcss-select-properties-pitch.o
 .bss           0x00000000002a6eb8        0x0 /home/bob/ofiles/libcss-select-properties-pitch_range.o
 .bss           0x00000000002a6eb8        0x0 /home/bob/ofiles/libcss-select-properties-play_during.o
 .bss           0x00000000002a6eb8        0x0 /home/bob/ofiles/libcss-select-properties-position.o
 .bss           0x00000000002a6eb8        0x0 /home/bob/ofiles/libcss-select-properties-quotes.o
 .bss           0x00000000002a6eb8        0x0 /home/bob/ofiles/libcss-select-properties-richness.o
 .bss           0x00000000002a6eb8        0x0 /home/bob/ofiles/libcss-select-properties-right.o
 .bss           0x00000000002a6eb8        0x0 /home/bob/ofiles/libcss-select-properties-speak.o
 .bss           0x00000000002a6eb8        0x0 /home/bob/ofiles/libcss-select-properties-speak_header.o
 .bss           0x00000000002a6eb8        0x0 /home/bob/ofiles/libcss-select-properties-speak_numeral.o
 .bss           0x00000000002a6eb8        0x0 /home/bob/ofiles/libcss-select-properties-speak_punctuation.o
 .bss           0x00000000002a6eb8        0x0 /home/bob/ofiles/libcss-select-properties-speech_rate.o
 .bss           0x00000000002a6eb8        0x0 /home/bob/ofiles/libcss-select-properties-stress.o
 .bss           0x00000000002a6eb8        0x0 /home/bob/ofiles/libcss-select-properties-table_layout.o
 .bss           0x00000000002a6eb8        0x0 /home/bob/ofiles/libcss-select-properties-text_align.o
 .bss           0x00000000002a6eb8        0x0 /home/bob/ofiles/libcss-select-properties-text_decoration.o
 .bss           0x00000000002a6eb8        0x0 /home/bob/ofiles/libcss-select-properties-text_indent.o
 .bss           0x00000000002a6eb8        0x0 /home/bob/ofiles/libcss-select-properties-text_transform.o
 .bss           0x00000000002a6eb8        0x0 /home/bob/ofiles/libcss-select-properties-top.o
 .bss           0x00000000002a6eb8        0x0 /home/bob/ofiles/libcss-select-properties-unicode_bidi.o
 .bss           0x00000000002a6eb8        0x0 /home/bob/ofiles/libcss-select-properties-vertical_align.o
 .bss           0x00000000002a6eb8        0x0 /home/bob/ofiles/libcss-select-properties-visibility.o
 .bss           0x00000000002a6eb8        0x0 /home/bob/ofiles/libcss-select-properties-voice_family.o
 .bss           0x00000000002a6eb8        0x0 /home/bob/ofiles/libcss-select-properties-volume.o
 .bss           0x00000000002a6eb8        0x0 /home/bob/ofiles/libcss-select-properties-white_space.o
 .bss           0x00000000002a6eb8        0x0 /home/bob/ofiles/libcss-select-properties-widows.o
 .bss           0x00000000002a6eb8        0x0 /home/bob/ofiles/libcss-select-properties-width.o
 .bss           0x00000000002a6eb8        0x0 /home/bob/ofiles/libcss-select-properties-word_spacing.o
 .bss           0x00000000002a6eb8        0x0 /home/bob/ofiles/libcss-select-properties-writing_mode.o
 .bss           0x00000000002a6eb8        0x0 /home/bob/ofiles/libcss-select-properties-z_index.o
 .bss           0x00000000002a6eb8        0x4 /home/bob/ofiles/libcss-select-select.o
 .bss           0x00000000002a6ebc        0x0 /home/bob/ofiles/libcss-stylesheet.o
 .bss           0x00000000002a6ebc        0x0 /home/bob/ofiles/libcss-utils-errors.o
 .bss           0x00000000002a6ebc        0x0 /home/bob/ofiles/libcss-utils-utils.o
 .bss           0x00000000002a6ebc        0x0 /home/bob/ofiles/libdom-bindings-parser.o
 .bss           0x00000000002a6ebc        0x0 /home/bob/ofiles/libdom-core-attr.o
 .bss           0x00000000002a6ebc        0x0 /home/bob/ofiles/libdom-core-cdatasection.o
 .bss           0x00000000002a6ebc        0x0 /home/bob/ofiles/libdom-core-characterdata.o
 .bss           0x00000000002a6ebc        0x0 /home/bob/ofiles/libdom-core-comment.o
 .bss           0x00000000002a6ebc        0x0 /home/bob/ofiles/libdom-core-doc_fragment.o
 .bss           0x00000000002a6ebc        0x0 /home/bob/ofiles/libdom-core-document.o
 .bss           0x00000000002a6ebc        0x0 /home/bob/ofiles/libdom-core-document_type.o
 .bss           0x00000000002a6ebc        0x0 /home/bob/ofiles/libdom-core-element.o
 .bss           0x00000000002a6ebc        0x0 /home/bob/ofiles/libdom-core-entity_ref.o
 .bss           0x00000000002a6ebc        0x0 /home/bob/ofiles/libdom-core-implementation.o
 .bss           0x00000000002a6ebc        0x0 /home/bob/ofiles/libdom-core-namednodemap.o
 .bss           0x00000000002a6ebc        0x0 /home/bob/ofiles/libdom-core-node.o
 .bss           0x00000000002a6ebc        0x0 /home/bob/ofiles/libdom-core-nodelist.o
 .bss           0x00000000002a6ebc        0x0 /home/bob/ofiles/libdom-core-pi.o
 .bss           0x00000000002a6ebc        0x0 /home/bob/ofiles/libdom-core-string.o
 .bss           0x00000000002a6ebc        0x0 /home/bob/ofiles/libdom-core-text.o
 .bss           0x00000000002a6ebc        0x0 /home/bob/ofiles/libdom-core-typeinfo.o
 .bss           0x00000000002a6ebc        0x0 /home/bob/ofiles/libdom-events-custom_event.o
 .bss           0x00000000002a6ebc        0x0 /home/bob/ofiles/libdom-events-dispatch.o
 .bss           0x00000000002a6ebc        0x0 /home/bob/ofiles/libdom-events-document_event.o
 .bss           0x00000000002a6ebc        0x0 /home/bob/ofiles/libdom-events-event.o
 .bss           0x00000000002a6ebc        0x0 /home/bob/ofiles/libdom-events-event_listener.o
 .bss           0x00000000002a6ebc        0x0 /home/bob/ofiles/libdom-events-event_target.o
 .bss           0x00000000002a6ebc        0x0 /home/bob/ofiles/libdom-events-keyboard_event.o
 .bss           0x00000000002a6ebc        0x0 /home/bob/ofiles/libdom-events-mouse_event.o
 .bss           0x00000000002a6ebc        0x0 /home/bob/ofiles/libdom-events-mouse_multi_wheel_event.o
 .bss           0x00000000002a6ebc        0x0 /home/bob/ofiles/libdom-events-mouse_wheel_event.o
 .bss           0x00000000002a6ebc        0x0 /home/bob/ofiles/libdom-events-mutation_event.o
 .bss           0x00000000002a6ebc        0x0 /home/bob/ofiles/libdom-events-mutation_name_event.o
 .bss           0x00000000002a6ebc        0x0 /home/bob/ofiles/libdom-events-text_event.o
 .bss           0x00000000002a6ebc        0x0 /home/bob/ofiles/libdom-events-ui_event.o
 .bss           0x00000000002a6ebc        0x0 /home/bob/ofiles/libdom-html-html_anchor_element.o
 .bss           0x00000000002a6ebc        0x0 /home/bob/ofiles/libdom-html-html_applet_element.o
 .bss           0x00000000002a6ebc        0x0 /home/bob/ofiles/libdom-html-html_area_element.o
 .bss           0x00000000002a6ebc        0x0 /home/bob/ofiles/libdom-html-html_base_element.o
 .bss           0x00000000002a6ebc        0x0 /home/bob/ofiles/libdom-html-html_basefont_element.o
 .bss           0x00000000002a6ebc        0x0 /home/bob/ofiles/libdom-html-html_body_element.o
 .bss           0x00000000002a6ebc        0x0 /home/bob/ofiles/libdom-html-html_br_element.o
 .bss           0x00000000002a6ebc        0x0 /home/bob/ofiles/libdom-html-html_button_element.o
 .bss           0x00000000002a6ebc        0x0 /home/bob/ofiles/libdom-html-html_collection.o
 .bss           0x00000000002a6ebc        0x0 /home/bob/ofiles/libdom-html-html_directory_element.o
 .bss           0x00000000002a6ebc        0x0 /home/bob/ofiles/libdom-html-html_div_element.o
 .bss           0x00000000002a6ebc        0x0 /home/bob/ofiles/libdom-html-html_dlist_element.o
 .bss           0x00000000002a6ebc        0x0 /home/bob/ofiles/libdom-html-html_document.o
 .bss           0x00000000002a6ebc        0x0 /home/bob/ofiles/libdom-html-html_element.o
 .bss           0x00000000002a6ebc        0x0 /home/bob/ofiles/libdom-html-html_fieldset_element.o
 .bss           0x00000000002a6ebc        0x0 /home/bob/ofiles/libdom-html-html_font_element.o
 .bss           0x00000000002a6ebc        0x0 /home/bob/ofiles/libdom-html-html_form_element.o
 .bss           0x00000000002a6ebc        0x0 /home/bob/ofiles/libdom-html-html_frame_element.o
 .bss           0x00000000002a6ebc        0x0 /home/bob/ofiles/libdom-html-html_frameset_element.o
 .bss           0x00000000002a6ebc        0x0 /home/bob/ofiles/libdom-html-html_head_element.o
 .bss           0x00000000002a6ebc        0x0 /home/bob/ofiles/libdom-html-html_heading_element.o
 .bss           0x00000000002a6ebc        0x0 /home/bob/ofiles/libdom-html-html_hr_element.o
 .bss           0x00000000002a6ebc        0x0 /home/bob/ofiles/libdom-html-html_html_element.o
 .bss           0x00000000002a6ebc        0x0 /home/bob/ofiles/libdom-html-html_iframe_element.o
 .bss           0x00000000002a6ebc        0x0 /home/bob/ofiles/libdom-html-html_image_element.o
 .bss           0x00000000002a6ebc        0x0 /home/bob/ofiles/libdom-html-html_input_element.o
 .bss           0x00000000002a6ebc        0x0 /home/bob/ofiles/libdom-html-html_isindex_element.o
 .bss           0x00000000002a6ebc        0x0 /home/bob/ofiles/libdom-html-html_label_element.o
 .bss           0x00000000002a6ebc        0x0 /home/bob/ofiles/libdom-html-html_legend_element.o
 .bss           0x00000000002a6ebc        0x0 /home/bob/ofiles/libdom-html-html_li_element.o
 .bss           0x00000000002a6ebc        0x0 /home/bob/ofiles/libdom-html-html_link_element.o
 .bss           0x00000000002a6ebc        0x0 /home/bob/ofiles/libdom-html-html_map_element.o
 .bss           0x00000000002a6ebc        0x0 /home/bob/ofiles/libdom-html-html_menu_element.o
 .bss           0x00000000002a6ebc        0x0 /home/bob/ofiles/libdom-html-html_meta_element.o
 .bss           0x00000000002a6ebc        0x0 /home/bob/ofiles/libdom-html-html_mod_element.o
 .bss           0x00000000002a6ebc        0x0 /home/bob/ofiles/libdom-html-html_object_element.o
 .bss           0x00000000002a6ebc        0x0 /home/bob/ofiles/libdom-html-html_olist_element.o
 .bss           0x00000000002a6ebc        0x0 /home/bob/ofiles/libdom-html-html_opt_group_element.o
 .bss           0x00000000002a6ebc        0x0 /home/bob/ofiles/libdom-html-html_option_element.o
 .bss           0x00000000002a6ebc        0x0 /home/bob/ofiles/libdom-html-html_options_collection.o
 .bss           0x00000000002a6ebc        0x0 /home/bob/ofiles/libdom-html-html_paragraph_element.o
 .bss           0x00000000002a6ebc        0x0 /home/bob/ofiles/libdom-html-html_param_element.o
 .bss           0x00000000002a6ebc        0x0 /home/bob/ofiles/libdom-html-html_pre_element.o
 .bss           0x00000000002a6ebc        0x0 /home/bob/ofiles/libdom-html-html_quote_element.o
 .bss           0x00000000002a6ebc        0x0 /home/bob/ofiles/libdom-html-html_script_element.o
 .bss           0x00000000002a6ebc        0x0 /home/bob/ofiles/libdom-html-html_select_element.o
 .bss           0x00000000002a6ebc        0x0 /home/bob/ofiles/libdom-html-html_style_element.o
 .bss           0x00000000002a6ebc        0x0 /home/bob/ofiles/libdom-html-html_table_element.o
 .bss           0x00000000002a6ebc        0x0 /home/bob/ofiles/libdom-html-html_tablecaption_element.o
 .bss           0x00000000002a6ebc        0x0 /home/bob/ofiles/libdom-html-html_tablecell_element.o
 .bss           0x00000000002a6ebc        0x0 /home/bob/ofiles/libdom-html-html_tablecol_element.o
 .bss           0x00000000002a6ebc        0x0 /home/bob/ofiles/libdom-html-html_tablerow_element.o
 .bss           0x00000000002a6ebc        0x0 /home/bob/ofiles/libdom-html-html_tablesection_element.o
 .bss           0x00000000002a6ebc        0x0 /home/bob/ofiles/libdom-html-html_text_area_element.o
 .bss           0x00000000002a6ebc        0x0 /home/bob/ofiles/libdom-html-html_title_element.o
 .bss           0x00000000002a6ebc        0x0 /home/bob/ofiles/libdom-html-html_ulist_element.o
 .bss           0x00000000002a6ebc        0x0 /home/bob/ofiles/libdom-utils-character_valid.o
 .bss           0x00000000002a6ebc        0x0 /home/bob/ofiles/libdom-utils-hashtable.o
 .bss           0x00000000002a6ebc       0x24 /home/bob/ofiles/libdom-utils-namespace.o
                0x00000000002a6ebc                dom_namespaces
 .bss           0x00000000002a6ee0        0x0 /home/bob/ofiles/libdom-utils-validate.o
 .bss           0x00000000002a6ee0        0x0 /home/bob/ofiles/libhubbub-charset-detect.o
 .bss           0x00000000002a6ee0        0x0 /home/bob/ofiles/libhubbub-parser.o
 .bss           0x00000000002a6ee0        0x4 /home/bob/ofiles/libhubbub-tokeniser-entities.o
 .bss           0x00000000002a6ee4        0x0 /home/bob/ofiles/libhubbub-tokeniser-tokeniser.o
 .bss           0x00000000002a6ee4        0x0 /home/bob/ofiles/libhubbub-treebuilder-after_after_body.o
 .bss           0x00000000002a6ee4        0x0 /home/bob/ofiles/libhubbub-treebuilder-after_after_frameset.o
 .bss           0x00000000002a6ee4        0x0 /home/bob/ofiles/libhubbub-treebuilder-after_body.o
 .bss           0x00000000002a6ee4        0x0 /home/bob/ofiles/libhubbub-treebuilder-after_frameset.o
 .bss           0x00000000002a6ee4        0x0 /home/bob/ofiles/libhubbub-treebuilder-after_head.o
 .bss           0x00000000002a6ee4        0x0 /home/bob/ofiles/libhubbub-treebuilder-before_head.o
 .bss           0x00000000002a6ee4        0x0 /home/bob/ofiles/libhubbub-treebuilder-before_html.o
 .bss           0x00000000002a6ee4        0x0 /home/bob/ofiles/libhubbub-treebuilder-generic_rcdata.o
 .bss           0x00000000002a6ee4        0x0 /home/bob/ofiles/libhubbub-treebuilder-in_body.o
 .bss           0x00000000002a6ee4        0x0 /home/bob/ofiles/libhubbub-treebuilder-in_caption.o
 .bss           0x00000000002a6ee4        0x0 /home/bob/ofiles/libhubbub-treebuilder-in_cell.o
 .bss           0x00000000002a6ee4        0x0 /home/bob/ofiles/libhubbub-treebuilder-in_column_group.o
 .bss           0x00000000002a6ee4        0x0 /home/bob/ofiles/libhubbub-treebuilder-in_foreign_content.o
 .bss           0x00000000002a6ee4        0x0 /home/bob/ofiles/libhubbub-treebuilder-in_frameset.o
 .bss           0x00000000002a6ee4        0x8 /home/bob/ofiles/libhubbub-treebuilder-in_head.o
 .bss           0x00000000002a6eec        0x0 /home/bob/ofiles/libhubbub-treebuilder-in_head_noscript.o
 .bss           0x00000000002a6eec        0x0 /home/bob/ofiles/libhubbub-treebuilder-in_row.o
 .bss           0x00000000002a6eec        0x0 /home/bob/ofiles/libhubbub-treebuilder-in_select.o
 .bss           0x00000000002a6eec        0x0 /home/bob/ofiles/libhubbub-treebuilder-in_select_in_table.o
 .bss           0x00000000002a6eec        0x0 /home/bob/ofiles/libhubbub-treebuilder-in_table.o
 .bss           0x00000000002a6eec        0x0 /home/bob/ofiles/libhubbub-treebuilder-in_table_body.o
 .bss           0x00000000002a6eec        0x0 /home/bob/ofiles/libhubbub-treebuilder-initial.o
 .bss           0x00000000002a6eec        0x0 /home/bob/ofiles/libhubbub-treebuilder-treebuilder.o
 .bss           0x00000000002a6eec        0x0 /home/bob/ofiles/libhubbub-utils-errors.o
 .bss           0x00000000002a6eec        0x0 /home/bob/ofiles/libhubbub-utils-string.o
 .bss           0x00000000002a6eec        0x0 /home/bob/ofiles/libnsbmp-libnsbmp.o
 *fill*         0x00000000002a6eec       0x14 
 .bss           0x00000000002a6f00     0xa060 /home/bob/ofiles/libnsgif-libnsgif.o
 .bss           0x00000000002b0f60      0x120 /home/bob/ofiles/libnsutils-base64.o
 .bss           0x00000000002b1080        0x8 /home/bob/ofiles/libnsutils-time.o
 .bss           0x00000000002b1088        0x0 /home/bob/ofiles/libnsutils-unistd.o
 .bss           0x00000000002b1088        0x0 /home/bob/ofiles/libparserutils-charset-aliases.o
 .bss           0x00000000002b1088        0x0 /home/bob/ofiles/libparserutils-charset-codec.o
 .bss           0x00000000002b1088        0x0 /home/bob/ofiles/libparserutils-charset-codecs-codec_8859.o
 .bss           0x00000000002b1088        0x4 /home/bob/ofiles/libparserutils-charset-codecs-codec_ascii.o
 .bss           0x00000000002b108c        0x0 /home/bob/ofiles/libparserutils-charset-codecs-codec_ext8.o
 .bss           0x00000000002b108c        0x0 /home/bob/ofiles/libparserutils-charset-codecs-codec_utf16.o
 .bss           0x00000000002b108c        0x0 /home/bob/ofiles/libparserutils-charset-codecs-codec_utf8.o
 .bss           0x00000000002b108c        0x0 /home/bob/ofiles/libparserutils-charset-encodings-utf16.o
 .bss           0x00000000002b108c        0x0 /home/bob/ofiles/libparserutils-charset-encodings-utf8.o
 .bss           0x00000000002b108c        0x0 /home/bob/ofiles/libparserutils-input-filter.o
 .bss           0x00000000002b108c       0x10 /home/bob/ofiles/libparserutils-input-inputstream.o
 .bss           0x00000000002b109c        0x0 /home/bob/ofiles/libparserutils-utils-buffer.o
 .bss           0x00000000002b109c        0x0 /home/bob/ofiles/libparserutils-utils-errors.o
 .bss           0x00000000002b109c        0x0 /home/bob/ofiles/libparserutils-utils-stack.o
 .bss           0x00000000002b109c        0x0 /home/bob/ofiles/libparserutils-utils-vector.o
 .bss           0x00000000002b109c        0x0 /home/bob/ofiles/libutf8proc-utf8proc.o
 .bss           0x00000000002b109c        0x4 /home/bob/ofiles/libwapcaplet-libwapcaplet.o
 .bss           0x00000000002b10a0        0x0 /home/autobuild/tools/win32/mingw32/lib/libgcc.a(_udivdi3.o)
 .bss           0x00000000002b10a0        0x0 /home/autobuild/tools/win32/mingw32/lib/libgcc.a(_chkstk_ms.o)
 .bss           0x00000000002b10a0        0x0 /home/autobuild/tools/win32/mingw32/lib/libgcc.a(_divdi3.o)
 .bss           0x00000000002b10a0        0x4 /home/autobuild/tools/win32/mingw32/lib/libgcc.a(__main.o)
 .bss           0x00000000002b10a4        0x0 /home/autobuild/tools/win32/mingw32/lib/libgcc.a(_ctors.o)
 .bss           0x00000000002b10a4        0x0 /home/autobuild/tools/win32/lib/libz.a(gzlib.o)
 .bss           0x00000000002b10a4        0x0 /home/autobuild/tools/win32/lib/libz.a(gzclose.o)
 .bss           0x00000000002b10a4        0x0 /home/autobuild/tools/win32/lib/libz.a(gzread.o)
 .bss           0x00000000002b10a4        0x0 /home/autobuild/tools/win32/lib/libz.a(inflate.o)
 .bss           0x00000000002b10a4        0x0 /home/autobuild/tools/win32/lib/libz.a(gzwrite.o)
 .bss           0x00000000002b10a4        0x0 /home/autobuild/tools/win32/lib/libz.a(zutil.o)
 .bss           0x00000000002b10a4        0x0 /home/autobuild/tools/win32/lib/libz.a(adler32.o)
 .bss           0x00000000002b10a4        0x0 /home/autobuild/tools/win32/lib/libz.a(crc32.o)
 .bss           0x00000000002b10a4        0x0 /home/autobuild/tools/win32/lib/libz.a(inftrees.o)
 .bss           0x00000000002b10a4        0x0 /home/autobuild/tools/win32/lib/libz.a(inffast.o)
 .bss           0x00000000002b10a4        0x0 /home/autobuild/tools/win32/lib/libz.a(deflate.o)
 .bss           0x00000000002b10a4        0x0 /home/autobuild/tools/win32/lib/libz.a(trees.o)
 .bss           0x00000000002b10a4        0x0 /home/autobuild/tools/win32/lib/libapp.a(start.o)
 .bss           0x00000000002b10a4        0x0 /home/autobuild/tools/win32/lib/libapp.a(crt3.o)
 .bss           0x00000000002b10a4        0x0 /home/autobuild/tools/win32/lib/libapp.a(crtloader.o)
 .bss           0x00000000002b10a4        0x0 ../../inst/lib/libnsfb.a(src_libnsfb.o)
 .bss           0x00000000002b10a4        0x0 ../../inst/lib/libnsfb.a(src_plot_api.o)
 .bss           0x00000000002b10a4        0x0 ../../inst/lib/libnsfb.a(src_cursor.o)
 *fill*         0x00000000002b10a4       0x1c 
 .bss           0x00000000002b10c0       0xe0 ../../inst/lib/libnsfb.a(src_surface_surface.o)
 .bss           0x00000000002b11a0        0x0 ../../inst/lib/libnsfb.a(src_palette.o)
 .bss           0x00000000002b11a0        0x0 ../../inst/lib/libnsfb.a(src_plot_generic.o)
 .bss           0x00000000002b11a0        0x0 ../../inst/lib/libnsfb.a(src_plot_16bpp.o)
 .bss           0x00000000002b11a0        0x0 ../../inst/lib/libnsfb.a(src_plot_32bpp-xrgb8888.o)
 .bss           0x00000000002b11a0        0x0 ../../inst/lib/libnsfb.a(src_plot_32bpp-xbgr8888.o)
 .bss           0x00000000002b11a0        0x0 ../../inst/lib/libnsfb.a(src_plot_8bpp.o)
 .bss           0x00000000002b11a0        0x0 ../../inst/lib/libnsfb.a(src_plot_util.o)
 *(COMMON)
 COMMON         0x00000000002b11a0        0x0 content_fetchers_file.o
 COMMON         0x00000000002b11a0        0xc content_fetchers_http_kolibri.o
                0x00000000002b11a0                fetcher_head
                0x00000000002b11a4                fetcher_tail
                0x00000000002b11a8                fetch_http_kolibri_multi
 COMMON         0x00000000002b11ac        0x0 css_css.o
 *fill*         0x00000000002b11ac       0x14 
 COMMON         0x00000000002b11c0       0xc4 desktop_cookie_manager.o
                0x00000000002b11c0                cm_ctx
 *fill*         0x00000000002b1284       0x1c 
 COMMON         0x00000000002b12a0      0x150 desktop_global_history.o
                0x00000000002b12a0                gh_ctx
                0x00000000002b1380                gh_list
 *fill*         0x00000000002b13f0       0x10 
 COMMON         0x00000000002b1400       0x34 desktop_hotlist.o
                0x00000000002b1400                hl_ctx
 COMMON         0x00000000002b1434       0x10 desktop_save_complete.o
                0x00000000002b1434                save_complete_import_re
 COMMON         0x00000000002b1444        0x4 desktop_tree.o
                0x00000000002b1444                treeview_inits
 *fill*         0x00000000002b1448       0x18 
 COMMON         0x00000000002b1460      0x160 desktop_treeview.o
                0x00000000002b1460                plot_style_even
                0x00000000002b1500                plot_style_odd
                0x00000000002b15a0                tree_g
 COMMON         0x00000000002b15c0        0x4 kolibrios_fb_findfile.o
                0x00000000002b15c0                respaths
 COMMON         0x00000000002b15c4        0x4 kolibrios_fb_font_freetype.o
                0x00000000002b15c4                ft_load_type
 COMMON         0x00000000002b15c8        0x8 kolibrios_fb_gui.o
                0x00000000002b15c8                fbtk
                0x00000000002b15cc                search_current_window
 *fill*         0x00000000002b15d0       0x10 
 COMMON         0x00000000002b15e0       0xdc kolibrios_main.o
                0x00000000002b15e0                kolibri_color_table
                0x00000000002b1620                kolibri_gui_op_table
 COMMON         0x00000000002b16bc      0x3d8 utils_corestrings.o
                0x00000000002b16bc                corestring_dom_file
                0x00000000002b16c0                corestring_dom_playing
                0x00000000002b16c4                corestring_dom_dblclick
                0x00000000002b16c8                corestring_dom_src
                0x00000000002b16cc                corestring_lwc_submit
                0x00000000002b16d0                corestring_dom_dragleave
                0x00000000002b16d4                corestring_dom_volumechange
                0x00000000002b16d8                corestring_lwc_default
                0x00000000002b16dc                corestring_dom_mousewheel
                0x00000000002b16e0                corestring_dom_rect
                0x00000000002b16e4                corestring_lwc_ul
                0x00000000002b16e8                corestring_dom_value
                0x00000000002b16ec                corestring_dom_waiting
                0x00000000002b16f0                corestring_dom_hspace
                0x00000000002b16f4                corestring_dom_ended
                0x00000000002b16f8                corestring_dom_on
                0x00000000002b16fc                corestring_lwc_url
                0x00000000002b1700                corestring_dom_input
                0x00000000002b1704                corestring_dom_target
                0x00000000002b1708                corestring_dom_DOMNodeInserted
                0x00000000002b170c                corestring_dom_keypress
                0x00000000002b1710                corestring_lwc_align
                0x00000000002b1714                corestring_dom___ns_key_libcss_node_data
                0x00000000002b1718                corestring_dom_type
                0x00000000002b171c                corestring_dom_resize
                0x00000000002b1720                corestring_dom_rel
                0x00000000002b1724                corestring_dom_DOMSubtreeModified
                0x00000000002b1728                corestring_dom_load
                0x00000000002b172c                corestring_lwc_text
                0x00000000002b1730                corestring_dom_mouseover
                0x00000000002b1734                corestring_dom_loadstart
                0x00000000002b1738                corestring_dom_ratechange
                0x00000000002b173c                corestring_dom_hashchange
                0x00000000002b1740                corestring_lwc_password
                0x00000000002b1744                corestring_lwc_textarea
                0x00000000002b1748                corestring_dom_seeked
                0x00000000002b174c                corestring_dom_name
                0x00000000002b1750                corestring_lwc_justify
                0x00000000002b1754                corestring_dom_canplay
                0x00000000002b1758                corestring_lwc_yes
                0x00000000002b175c                corestring_dom_classid
                0x00000000002b1760                corestring_dom_popstate
                0x00000000002b1764                corestring_dom_offline
                0x00000000002b1768                corestring_dom_border
                0x00000000002b176c                corestring_lwc_img
                0x00000000002b1770                corestring_lwc_file
                0x00000000002b1774                corestring_dom_href
                0x00000000002b1778                corestring_dom_loadedmetadata
                0x00000000002b177c                corestring_dom_bgcolor
                0x00000000002b1780                corestring_dom_content
                0x00000000002b1784                corestring_dom_loadeddata
                0x00000000002b1788                corestring_dom_timeupdate
                0x00000000002b178c                corestring_lwc_optgroup
                0x00000000002b1790                corestring_dom_vlink
                0x00000000002b1794                corestring_dom_HEAD
                0x00000000002b1798                corestring_dom_pause
                0x00000000002b179c                corestring_dom_area
                0x00000000002b17a0                corestring_dom_invalid
                0x00000000002b17a4                corestring_dom_cellpadding
                0x00000000002b17a8                corestring_dom___ns_key_box_node_data
                0x00000000002b17ac                corestring_lwc_object
                0x00000000002b17b0                corestring_lwc_javascript
                0x00000000002b17b4                corestring_lwc_embed
                0x00000000002b17b8                corestring_lwc__parent
                0x00000000002b17bc                corestring_dom_change
                0x00000000002b17c0                corestring_dom_selected
                0x00000000002b17c4                corestring_dom_codebase
                0x00000000002b17c8                corestring_lwc_col
                0x00000000002b17cc                corestring_dom_checkbox
                0x00000000002b17d0                corestring_dom_http_equiv
                0x00000000002b17d4                corestring_lwc_title
                0x00000000002b17d8                corestring_lwc_param
                0x00000000002b17dc                corestring_dom_cols
                0x00000000002b17e0                corestring_lwc_circle
                0x00000000002b17e4                corestring_dom_dragover
                0x00000000002b17e8                corestring_dom_drag
                0x00000000002b17ec                corestring_lwc_div
                0x00000000002b17f0                corestring_dom_dragend
                0x00000000002b17f4                corestring_lwc_about
                0x00000000002b17f8                corestring_dom_width
                0x00000000002b17fc                corestring_lwc_charset
                0x00000000002b1800                corestring_lwc_reset
                0x00000000002b1804                corestring_dom_radio
                0x00000000002b1808                corestring_dom_height
                0x00000000002b180c                corestring_dom_class
                0x00000000002b1810                corestring_lwc_button
                0x00000000002b1814                corestring_lwc_frame
                0x00000000002b1818                corestring_lwc_text_css
                0x00000000002b181c                corestring_dom_durationchange
                0x00000000002b1820                corestring_lwc_option
                0x00000000002b1824                corestring_dom_align
                0x00000000002b1828                corestring_dom_pageshow
                0x00000000002b182c                corestring_lwc_shortcut_icon
                0x00000000002b1830                corestring_dom_TEXTAREA
                0x00000000002b1834                corestring_dom_text_javascript
                0x00000000002b1838                corestring_lwc__blank
                0x00000000002b183c                corestring_dom_progress
                0x00000000002b1840                corestring_dom_error
                0x00000000002b1844                corestring_lwc_no
                0x00000000002b1848                corestring_dom_blur
                0x00000000002b184c                corestring_dom_reset
                0x00000000002b1850                corestring_dom_INPUT
                0x00000000002b1854                corestring_dom_data
                0x00000000002b1858                corestring_dom_readystatechange
                0x00000000002b185c                corestring_lwc_left
                0x00000000002b1860                corestring_dom_noresize
                0x00000000002b1864                corestring_lwc_applet
                0x00000000002b1868                corestring_dom_DOMAttrModified
                0x00000000002b186c                corestring_lwc_checkbox
                0x00000000002b1870                corestring_dom_image
                0x00000000002b1874                corestring_dom_select
                0x00000000002b1878                corestring_lwc_resource
                0x00000000002b187c                corestring_lwc_link
                0x00000000002b1880                corestring_dom_nohref
                0x00000000002b1884                corestring_lwc_body
                0x00000000002b1888                corestring_dom_stalled
                0x00000000002b188c                corestring_dom___ns_key_file_name_node_data
                0x00000000002b1890                corestring_dom_cellspacing
                0x00000000002b1894                corestring_dom_button
                0x00000000002b1898                corestring_dom_mouseout
                0x00000000002b189c                corestring_lwc_head
                0x00000000002b18a0                corestring_dom_marginwidth
                0x00000000002b18a4                corestring_lwc_input
                0x00000000002b18a8                corestring_dom_BUTTON
                0x00000000002b18ac                corestring_dom_hreflang
                0x00000000002b18b0                corestring_dom_DOMNodeInsertedIntoDocument
                0x00000000002b18b4                corestring_dom_text
                0x00000000002b18b8                corestring_dom_color
                0x00000000002b18bc                corestring_lwc_p
                0x00000000002b18c0                corestring_lwc_baseline
                0x00000000002b18c4                corestring_lwc_src
                0x00000000002b18c8                corestring_dom_emptied
                0x00000000002b18cc                corestring_lwc_a
                0x00000000002b18d0                corestring_dom_mousemove
                0x00000000002b18d4                corestring_dom_mouseup
                0x00000000002b18d8                corestring_dom_SELECT
                0x00000000002b18dc                corestring_dom_suspend
                0x00000000002b18e0                corestring_lwc_absmiddle
                0x00000000002b18e4                corestring_lwc_texttop
                0x00000000002b18e8                corestring_dom_rowspan
                0x00000000002b18ec                corestring_dom_marginheight
                0x00000000002b18f0                corestring_nsurl_about_blank
                0x00000000002b18f4                corestring_dom_online
                0x00000000002b18f8                corestring_dom_id
                0x00000000002b18fc                corestring_lwc_tbody
                0x00000000002b1900                corestring_lwc_rect
                0x00000000002b1904                corestring_lwc_image
                0x00000000002b1908                corestring_lwc_data
                0x00000000002b190c                corestring_dom_mousedown
                0x00000000002b1910                corestring_dom_title
                0x00000000002b1914                corestring_lwc_https
                0x00000000002b1918                corestring_lwc(short,...)(long, float)
                0x00000000002b191c                corestring_lwc_meta
                0x00000000002b1920                corestring_dom_valign
                0x00000000002b1924                corestring_dom_vspace
                0x00000000002b1928                corestring_lwc_icon
                0x00000000002b192c                corestring_dom_storage
                0x00000000002b1930                corestring_dom_dragenter
                0x00000000002b1934                corestring_dom_colspan
                0x00000000002b1938                corestring_dom_media
                0x00000000002b193c                corestring_lwc_slash_
                0x00000000002b1940                corestring_lwc_font
                0x00000000002b1944                corestring_lwc_poly
                0x00000000002b1948                corestring_dom_frameborder
                0x00000000002b194c                corestring_lwc_radio
                0x00000000002b1950                corestring_dom_BODY
                0x00000000002b1954                corestring_dom_html_namespace
                0x00000000002b1958                corestring_dom_defer
                0x00000000002b195c                corestring_dom_beforeunload
                0x00000000002b1960                corestring_dom_style
                0x00000000002b1964                corestring_lwc_h3
                0x00000000002b1968                corestring_lwc_h2
                0x00000000002b196c                corestring_lwc_tfoot
                0x00000000002b1970                corestring_lwc_h4
                0x00000000002b1974                corestring_lwc_h5
                0x00000000002b1978                corestring_lwc_h1
                0x00000000002b197c                corestring_lwc_search
                0x00000000002b1980                corestring_dom_pagehide
                0x00000000002b1984                corestring_dom_cancel
                0x00000000002b1988                corestring_dom_coords
                0x00000000002b198c                corestring_lwc_center
                0x00000000002b1990                corestring_lwc_select
                0x00000000002b1994                corestring_dom_rows
                0x00000000002b1998                corestring_lwc_h6
                0x00000000002b199c                corestring_lwc_top
                0x00000000002b19a0                corestring_dom_scroll
                0x00000000002b19a4                corestring_dom_bordercolor
                0x00000000002b19a8                corestring_dom_submit
                0x00000000002b19ac                corestring_dom_background
                0x00000000002b19b0                corestring_dom_seeking
                0x00000000002b19b4                corestring_lwc_http
                0x00000000002b19b8                corestring_dom_contextmenu
                0x00000000002b19bc                corestring_lwc_middle
                0x00000000002b19c0                corestring_lwc_frameset
                0x00000000002b19c4                corestring_lwc__top
                0x00000000002b19c8                corestring_lwc_th
                0x00000000002b19cc                corestring_dom_charset
                0x00000000002b19d0                corestring_dom_size
                0x00000000002b19d4                corestring_lwc_td
                0x00000000002b19d8                corestring_dom_focus
                0x00000000002b19dc                corestring_lwc_style
                0x00000000002b19e0                corestring_dom_alt
                0x00000000002b19e4                corestring_dom_async
                0x00000000002b19e8                corestring_dom_cuechange
                0x00000000002b19ec                corestring_lwc_polygon
                0x00000000002b19f0                corestring_dom_close
                0x00000000002b19f4                corestring_dom___ns_key_image_coords_node_data
                0x00000000002b19f8                corestring_lwc_abscenter
                0x00000000002b19fc                corestring_dom_shape
                0x00000000002b1a00                corestring_dom_scrolling
                0x00000000002b1a04                corestring_dom_afterprint
                0x00000000002b1a08                corestring_lwc_tr
                0x00000000002b1a0c                corestring_dom_dragstart
                0x00000000002b1a10                corestring_lwc_noscript
                0x00000000002b1a14                corestring_lwc_multipart_form_data
                0x00000000002b1a18                corestring_lwc_hr
                0x00000000002b1a1c                corestring_dom_click
                0x00000000002b1a20                corestring_dom_abort
                0x00000000002b1a24                corestring_dom_link
                0x00000000002b1a28                corestring_dom_keydown
                0x00000000002b1a2c                corestring_dom_drop
                0x00000000002b1a30                corestring_lwc_base
                0x00000000002b1a34                corestring_lwc_li
                0x00000000002b1a38                corestring_lwc_hidden
                0x00000000002b1a3c                corestring_dom_canplaythrough
                0x00000000002b1a40                corestring_lwc_bottom
                0x00000000002b1a44                corestring_lwc_post
                0x00000000002b1a48                corestring_lwc_rectangle
                0x00000000002b1a4c                corestring_lwc_iframe
                0x00000000002b1a50                corestring_dom_show
                0x00000000002b1a54                corestring_lwc_refresh
                0x00000000002b1a58                corestring_dom_unload
                0x00000000002b1a5c                corestring_dom_play
                0x00000000002b1a60                corestring_dom_a
                0x00000000002b1a64                corestring_lwc_thead
                0x00000000002b1a68                corestring_dom_map
                0x00000000002b1a6c                corestring_dom_message
                0x00000000002b1a70                corestring_lwc_right
                0x00000000002b1a74                corestring_lwc_filename
                0x00000000002b1a78                corestring_lwc_table
                0x00000000002b1a7c                corestring_dom_beforeprint
                0x00000000002b1a80                corestring_dom___ns_key_html_content_data
                0x00000000002b1a84                corestring_dom_keyup
                0x00000000002b1a88                corestring_lwc_html
                0x00000000002b1a8c                corestring_lwc_caption
                0x00000000002b1a90                corestring_dom_sizes
 COMMON         0x00000000002b1a94       0x10 /home/bob/ofiles/libcss-parse-font_face.o
                0x00000000002b1a94                _ALIGNED
 COMMON         0x00000000002b1aa4       0x10 /home/autobuild/tools/win32/mingw32/lib/libgcc.a(_ctors.o)
                0x00000000002b1ac0                . = ALIGN (0x10)
 *fill*         0x00000000002b1ab4        0xc 
                0x00000000002b1ac0                ___cmdline = .
                0x00000000002b1bc0                . = (. + 0x100)
 *fill*         0x00000000002b1ac0      0x100 
                0x00000000002b1bc0                ___pgmname = .
                0x00000000002b1fd0                . = ((. + 0x400) + 0x10)
 *fill*         0x00000000002b1bc0      0x410 
                0x00000000002b1fd0                ___stacktop = .
                0x00000000002b1fd0                ___memsize = .

/DISCARD/
 *(.debug$S)
 *(.debug$T)
 *(.debug$F)
 *(.drectve)
 *(.note.GNU-stack)
 *(.comment)
 *(.debug_abbrev)
 *(.debug_info)
 *(.debug_line)
 *(.debug_frame)
 *(.debug_loc)
 *(.debug_pubnames)
 *(.debug_aranges)
 *(.debug_ranges)
LOAD /home/autobuild/tools/win32/mingw32/lib/libgcc.a
LOAD /home/autobuild/tools/win32/lib/libz.a
LOAD /home/autobuild/tools/win32/lib/libdll.a
LOAD /home/autobuild/tools/win32/lib/libapp.a
LOAD /home/autobuild/tools/win32/lib/libc.dll.a
LOAD ../../inst/lib/libcss.a
LOAD ../../inst/lib/libdom.a
LOAD ../../inst/lib/libhubbub.a
LOAD ../../inst/lib/libnsbmp.a
LOAD ../../inst/lib/libnsfb.a
LOAD ../../inst/lib/libnsgif.a
LOAD ../../inst/lib/libnsutils.a
LOAD ../../inst/lib/libparserutils.a
LOAD ../../inst/lib/libutf8proc.a
LOAD ../../inst/lib/libwapcaplet.a
OUTPUT(_netsurf pei-i386)

.debug_str      0x0000000000000000     0x6c00
 .debug_str     0x0000000000000000      0x137 content_content.o
 .debug_str     0x0000000000000137       0xee content_content_factory.o
 .debug_str     0x0000000000000225       0x24 content_dirlist.o
 .debug_str     0x0000000000000249       0x5b content_fetch.o
 .debug_str     0x00000000000002a4       0x5e content_fetchers_about.o
 .debug_str     0x0000000000000302       0x3b content_fetchers_data.o
 .debug_str     0x000000000000033d       0x2d content_fetchers_file.o
 .debug_str     0x000000000000036a       0x23 content_fetchers_http_kolibri.o
 .debug_str     0x000000000000038d       0x22 content_fetchers_resource.o
 .debug_str     0x00000000000003af      0x140 content_hlcache.o
 .debug_str     0x00000000000004ef      0x20a content_llcache.o
 .debug_str     0x00000000000006f9       0x9a content_mimesniff.o
 .debug_str     0x0000000000000793       0x1f content_no_backing_store.o
 .debug_str     0x00000000000007b2      0x1b9 content_urldb.o
 .debug_str     0x000000000000096b      0x156 css_css.o
 .debug_str     0x0000000000000ac1       0x77 css_dump.o
 .debug_str     0x0000000000000b38        0xa css_internal.o
 .debug_str     0x0000000000000b42      0x690 css_select.o
 .debug_str     0x00000000000011d2       0x25 css_utils.o
 .debug_str     0x00000000000011f7      0x25a desktop_browser.o
 .debug_str     0x0000000000001451       0x76 desktop_browser_history.o
 .debug_str     0x00000000000014c7       0x78 desktop_cookie_manager.o
 .debug_str     0x000000000000153f       0x87 desktop_download.o
 .debug_str     0x00000000000015c6        0x0 desktop_font_haru.o
 .debug_str     0x00000000000015c6      0x11b desktop_frames.o
 .debug_str     0x00000000000016e1       0x78 desktop_global_history.o
 .debug_str     0x0000000000001759       0x64 desktop_gui_factory.o
 .debug_str     0x00000000000017bd      0x1c2 desktop_hotlist.o
 .debug_str     0x000000000000197f       0x4e desktop_knockout.o
 .debug_str     0x00000000000019cd       0x14 desktop_mouse.o
 .debug_str     0x00000000000019e1       0x57 desktop_netsurf.o
 .debug_str     0x0000000000001a38        0x0 desktop_plot_style.o
 .debug_str     0x0000000000001a38       0x4b desktop_print.o
 .debug_str     0x0000000000001a83      0x3ef desktop_save_complete.o
 .debug_str     0x0000000000001e72        0x0 desktop_save_pdf.o
 .debug_str     0x0000000000001e72       0x91 desktop_save_text.o
 .debug_str     0x0000000000001f03       0x9a desktop_scrollbar.o
 .debug_str     0x0000000000001f9d        0x0 desktop_search.o
 .debug_str     0x0000000000001f9d       0xa9 desktop_searchweb.o
 .debug_str     0x0000000000002046      0x1d7 desktop_selection.o
 .debug_str     0x000000000000221d       0x59 desktop_sslcert_viewer.o
 .debug_str     0x0000000000002276       0x11 desktop_system_colour.o
 .debug_str     0x0000000000002287      0x1bd desktop_textarea.o
 .debug_str     0x0000000000002444       0x83 desktop_textinput.o
 .debug_str     0x00000000000024c7       0x83 desktop_tree.o
 .debug_str     0x000000000000254a      0x1e5 desktop_treeview.o
 .debug_str     0x000000000000272f        0x0 desktop_version.o
 .debug_str     0x000000000000272f        0x7 image_image.o
 .debug_str     0x0000000000002736       0xbe image_image_cache.o
 .debug_str     0x00000000000027f4       0x11 javascript_fetcher.o
 .debug_str     0x0000000000002805       0x13 javascript_none_none.o
 .debug_str     0x0000000000002818       0x31 kolibrios_fb_bitmap.o
 .debug_str     0x0000000000002849       0x1c kolibrios_fb_clipboard.o
 .debug_str     0x0000000000002865       0x2e kolibrios_fb_fbtk_bitmap.o
 .debug_str     0x0000000000002893       0x59 kolibrios_fb_fbtk_event.o
 .debug_str     0x00000000000028ec       0x63 kolibrios_fb_fbtk_fbtk.o
 .debug_str     0x000000000000294f       0x20 kolibrios_fb_fbtk_fill.o
 .debug_str     0x000000000000296f       0x27 kolibrios_fb_fbtk_osk.o
 .debug_str     0x0000000000002996       0x7c kolibrios_fb_fbtk_scroll.o
 .debug_str     0x0000000000002a12       0x9f kolibrios_fb_fbtk_text.o
 .debug_str     0x0000000000002ab1       0x20 kolibrios_fb_fbtk_user.o
 .debug_str     0x0000000000002ad1       0x20 kolibrios_fb_fbtk_window.o
 .debug_str     0x0000000000002af1       0x11 kolibrios_fb_fetch.o
 .debug_str     0x0000000000002b02        0x0 kolibrios_fb_findfile.o
 .debug_str     0x0000000000002b02       0x92 kolibrios_fb_font_freetype.o
 .debug_str     0x0000000000002b94       0x6b kolibrios_fb_framebuffer.o
 .debug_str     0x0000000000002bff      0x156 kolibrios_fb_gui.o
 .debug_str     0x0000000000002d55       0x1a kolibrios_fb_localhistory.o
 .debug_str     0x0000000000002d6f        0x0 kolibrios_fb_misc.o
 .debug_str     0x0000000000002d6f       0x27 kolibrios_fb_schedule.o
 .debug_str     0x0000000000002d96        0x0 kolibrios_kolibri_debug.o
 .debug_str     0x0000000000002d96        0x0 kolibrios_kolibri_filesystem.o
 .debug_str     0x0000000000002d96        0x0 kolibrios_kolibri_http.o
 .debug_str     0x0000000000002d96        0x0 kolibrios_kolibri_iconv.o
 .debug_str     0x0000000000002d96       0x23 kolibrios_kolibri_misc.o
 .debug_str     0x0000000000002db9        0x0 kolibrios_kolibri_regex.o
 .debug_str     0x0000000000002db9       0x67 kolibrios_main.o
 .debug_str     0x0000000000002e20      0x29a render_box.o
 .debug_str     0x00000000000030ba      0x56c render_box_construct.o
 .debug_str     0x0000000000003626      0x23a render_box_normalise.o
 .debug_str     0x0000000000003860      0x27e render_box_textarea.o
 .debug_str     0x0000000000003ade       0x1c render_font.o
 .debug_str     0x0000000000003afa      0x3f2 render_form.o
 .debug_str     0x0000000000003eec      0x448 render_html.o
 .debug_str     0x0000000000004334      0x2db render_html_css.o
 .debug_str     0x000000000000460f       0x7e render_html_css_fetcher.o
 .debug_str     0x000000000000468d      0x303 render_html_forms.o
 .debug_str     0x0000000000004990      0x349 render_html_interaction.o
 .debug_str     0x0000000000004cd9      0x26e render_html_object.o
 .debug_str     0x0000000000004f47      0x30b render_html_redraw.o
 .debug_str     0x0000000000005252      0x2ac render_html_script.o
 .debug_str     0x00000000000054fe      0x328 render_imagemap.o
 .debug_str     0x0000000000005826      0x3c8 render_layout.o
 .debug_str     0x0000000000005bee      0x23a render_search.o
 .debug_str     0x0000000000005e28       0x75 render_table.o
 .debug_str     0x0000000000005e9d      0x199 render_textplain.o
 .debug_str     0x0000000000006036        0xd utils_base64.o
 .debug_str     0x0000000000006043       0x15 utils_bloom.o
 .debug_str     0x0000000000006058       0x13 utils_corestrings.o
 .debug_str     0x000000000000606b        0x9 utils_file.o
 .debug_str     0x0000000000006074       0x39 utils_filename.o
 .debug_str     0x00000000000060ad       0x34 utils_filepath.o
 .debug_str     0x00000000000060e1       0x1f utils_hashtable.o
 .debug_str     0x0000000000006100       0x41 utils_http_challenge.o
 .debug_str     0x0000000000006141       0x44 utils_http_content-disposition.o
 .debug_str     0x0000000000006185       0x3d utils_http_content-type.o
 .debug_str     0x00000000000061c2        0xb utils_http_generics.o
 .debug_str     0x00000000000061cd       0x31 utils_http_parameter.o
 .debug_str     0x00000000000061fe        0x0 utils_http_primitives.o
 .debug_str     0x00000000000061fe       0x30 utils_http_www-authenticate.o
 .debug_str     0x000000000000622e       0xd4 utils_idna.o
 .debug_str     0x0000000000006302      0x1e0 utils_libdom.o
 .debug_str     0x00000000000064e2        0x0 utils_locale.o
 .debug_str     0x00000000000064e2        0xe utils_log.o
 .debug_str     0x00000000000064f0       0x1d utils_messages.o
 .debug_str     0x000000000000650d       0x4f utils_nsoption.o
 .debug_str     0x000000000000655c       0xc5 utils_nsurl.o
 .debug_str     0x0000000000006621       0x26 utils_punycode.o
 .debug_str     0x0000000000006647       0x71 utils_talloc.o
 .debug_str     0x00000000000066b8        0x0 utils_url.o
 .debug_str     0x00000000000066b8        0x0 utils_useragent.o
 .debug_str     0x00000000000066b8       0x51 utils_utf8.o
 .debug_str     0x0000000000006709        0x0 utils_utils.o
 .debug_str     0x0000000000006709        0x0 /home/autobuild/tools/win32/mingw32/lib/libgcc.a(_udivdi3.o)
 .debug_str     0x0000000000006709        0x0 /home/autobuild/tools/win32/mingw32/lib/libgcc.a(_divdi3.o)
 .debug_str     0x0000000000006709        0x0 /home/autobuild/tools/win32/mingw32/lib/libgcc.a(__main.o)
 .debug_str     0x0000000000006709        0x0 /home/autobuild/tools/win32/mingw32/lib/libgcc.a(_ctors.o)
 .debug_str     0x0000000000006709       0x24 ../../inst/lib/libnsfb.a(src_libnsfb.o)
 .debug_str     0x000000000000672d       0x33 ../../inst/lib/libnsfb.a(src_plot_api.o)
 .debug_str     0x0000000000006760       0x54 ../../inst/lib/libnsfb.a(src_cursor.o)
 .debug_str     0x00000000000067b4       0x1c ../../inst/lib/libnsfb.a(src_surface_surface.o)
 .debug_str     0x00000000000067d0        0x8 ../../inst/lib/libnsfb.a(src_palette.o)
 .debug_str     0x00000000000067d8       0xa1 ../../inst/lib/libnsfb.a(src_plot_generic.o)
 .debug_str     0x0000000000006879       0x89 ../../inst/lib/libnsfb.a(src_plot_16bpp.o)
 .debug_str     0x0000000000006902       0x89 ../../inst/lib/libnsfb.a(src_plot_32bpp-xrgb8888.o)
 .debug_str     0x000000000000698b       0x89 ../../inst/lib/libnsfb.a(src_plot_32bpp-xbgr8888.o)
 .debug_str     0x0000000000006a14       0x91 ../../inst/lib/libnsfb.a(src_plot_8bpp.o)
 .debug_str     0x0000000000006aa5        0x0 ../../inst/lib/libnsfb.a(src_plot_util.o)
